ARM GAS  /tmp/ccS8U376.s 			page 1


   1              		.cpu cortex-m7
   2              		.eabi_attribute 28, 1
   3              		.eabi_attribute 20, 1
   4              		.eabi_attribute 21, 1
   5              		.eabi_attribute 23, 3
   6              		.eabi_attribute 24, 1
   7              		.eabi_attribute 25, 1
   8              		.eabi_attribute 26, 1
   9              		.eabi_attribute 30, 1
  10              		.eabi_attribute 34, 1
  11              		.eabi_attribute 18, 4
  12              		.file	"stm32h7xx_hal_flash_ex.c"
  13              		.text
  14              	.Ltext0:
  15              		.cfi_sections	.debug_frame
  16              		.section	.text.FLASH_MassErase,"ax",%progbits
  17              		.align	1
  18              		.arch armv7e-m
  19              		.syntax unified
  20              		.thumb
  21              		.thumb_func
  22              		.fpu fpv5-d16
  24              	FLASH_MassErase:
  25              	.LVL0:
  26              	.LFB153:
  27              		.file 1 "../../Drivers/STM32H7xx_HAL_Driver/Src/stm32h7xx_hal_flash_ex.c"
   1:../../Drivers/STM32H7xx_HAL_Driver/Src/stm32h7xx_hal_flash_ex.c **** /**
   2:../../Drivers/STM32H7xx_HAL_Driver/Src/stm32h7xx_hal_flash_ex.c ****   ******************************************************************************
   3:../../Drivers/STM32H7xx_HAL_Driver/Src/stm32h7xx_hal_flash_ex.c ****   * @file    stm32h7xx_hal_flash_ex.c
   4:../../Drivers/STM32H7xx_HAL_Driver/Src/stm32h7xx_hal_flash_ex.c ****   * @author  MCD Application Team
   5:../../Drivers/STM32H7xx_HAL_Driver/Src/stm32h7xx_hal_flash_ex.c ****   * @brief   Extended FLASH HAL module driver.
   6:../../Drivers/STM32H7xx_HAL_Driver/Src/stm32h7xx_hal_flash_ex.c ****   *          This file provides firmware functions to manage the following
   7:../../Drivers/STM32H7xx_HAL_Driver/Src/stm32h7xx_hal_flash_ex.c ****   *          functionalities of the FLASH extension peripheral:
   8:../../Drivers/STM32H7xx_HAL_Driver/Src/stm32h7xx_hal_flash_ex.c ****   *           + Extended programming operations functions
   9:../../Drivers/STM32H7xx_HAL_Driver/Src/stm32h7xx_hal_flash_ex.c ****   *
  10:../../Drivers/STM32H7xx_HAL_Driver/Src/stm32h7xx_hal_flash_ex.c ****  @verbatim
  11:../../Drivers/STM32H7xx_HAL_Driver/Src/stm32h7xx_hal_flash_ex.c ****  ==============================================================================
  12:../../Drivers/STM32H7xx_HAL_Driver/Src/stm32h7xx_hal_flash_ex.c ****                    ##### Flash Extension features #####
  13:../../Drivers/STM32H7xx_HAL_Driver/Src/stm32h7xx_hal_flash_ex.c ****   ==============================================================================
  14:../../Drivers/STM32H7xx_HAL_Driver/Src/stm32h7xx_hal_flash_ex.c **** 
  15:../../Drivers/STM32H7xx_HAL_Driver/Src/stm32h7xx_hal_flash_ex.c ****   [..] Comparing to other previous devices, the FLASH interface for STM32H7xx
  16:../../Drivers/STM32H7xx_HAL_Driver/Src/stm32h7xx_hal_flash_ex.c ****        devices contains the following additional features
  17:../../Drivers/STM32H7xx_HAL_Driver/Src/stm32h7xx_hal_flash_ex.c **** 
  18:../../Drivers/STM32H7xx_HAL_Driver/Src/stm32h7xx_hal_flash_ex.c ****        (+) Capacity up to 2 Mbyte with dual bank architecture supporting read-while-write
  19:../../Drivers/STM32H7xx_HAL_Driver/Src/stm32h7xx_hal_flash_ex.c ****            capability (RWW)
  20:../../Drivers/STM32H7xx_HAL_Driver/Src/stm32h7xx_hal_flash_ex.c ****        (+) Dual bank memory organization
  21:../../Drivers/STM32H7xx_HAL_Driver/Src/stm32h7xx_hal_flash_ex.c ****        (+) PCROP protection for all banks
  22:../../Drivers/STM32H7xx_HAL_Driver/Src/stm32h7xx_hal_flash_ex.c ****        (+) Global readout protection (RDP)
  23:../../Drivers/STM32H7xx_HAL_Driver/Src/stm32h7xx_hal_flash_ex.c ****        (+) Write protection
  24:../../Drivers/STM32H7xx_HAL_Driver/Src/stm32h7xx_hal_flash_ex.c ****        (+) Secure access only protection
  25:../../Drivers/STM32H7xx_HAL_Driver/Src/stm32h7xx_hal_flash_ex.c ****        (+) Bank / register swapping (when Dual-Bank)
  26:../../Drivers/STM32H7xx_HAL_Driver/Src/stm32h7xx_hal_flash_ex.c ****        (+) Cyclic Redundancy Check (CRC)
  27:../../Drivers/STM32H7xx_HAL_Driver/Src/stm32h7xx_hal_flash_ex.c **** 
  28:../../Drivers/STM32H7xx_HAL_Driver/Src/stm32h7xx_hal_flash_ex.c ****                         ##### How to use this driver #####
  29:../../Drivers/STM32H7xx_HAL_Driver/Src/stm32h7xx_hal_flash_ex.c ****  ==============================================================================
  30:../../Drivers/STM32H7xx_HAL_Driver/Src/stm32h7xx_hal_flash_ex.c ****   [..] This driver provides functions to configure and program the FLASH memory
  31:../../Drivers/STM32H7xx_HAL_Driver/Src/stm32h7xx_hal_flash_ex.c ****        of all STM32H7xx devices. It includes
ARM GAS  /tmp/ccS8U376.s 			page 2


  32:../../Drivers/STM32H7xx_HAL_Driver/Src/stm32h7xx_hal_flash_ex.c ****       (#) FLASH Memory Erase functions:
  33:../../Drivers/STM32H7xx_HAL_Driver/Src/stm32h7xx_hal_flash_ex.c ****            (++) Lock and Unlock the FLASH interface using HAL_FLASH_Unlock() and
  34:../../Drivers/STM32H7xx_HAL_Driver/Src/stm32h7xx_hal_flash_ex.c ****                 HAL_FLASH_Lock() functions
  35:../../Drivers/STM32H7xx_HAL_Driver/Src/stm32h7xx_hal_flash_ex.c ****            (++) Erase function: Sector erase, bank erase and dual-bank mass erase
  36:../../Drivers/STM32H7xx_HAL_Driver/Src/stm32h7xx_hal_flash_ex.c ****            (++) There are two modes of erase :
  37:../../Drivers/STM32H7xx_HAL_Driver/Src/stm32h7xx_hal_flash_ex.c ****              (+++) Polling Mode using HAL_FLASHEx_Erase()
  38:../../Drivers/STM32H7xx_HAL_Driver/Src/stm32h7xx_hal_flash_ex.c ****              (+++) Interrupt Mode using HAL_FLASHEx_Erase_IT()
  39:../../Drivers/STM32H7xx_HAL_Driver/Src/stm32h7xx_hal_flash_ex.c **** 
  40:../../Drivers/STM32H7xx_HAL_Driver/Src/stm32h7xx_hal_flash_ex.c ****       (#) Option Bytes Programming functions: Use HAL_FLASHEx_OBProgram() to:
  41:../../Drivers/STM32H7xx_HAL_Driver/Src/stm32h7xx_hal_flash_ex.c ****         (++) Set/Reset the write protection per bank
  42:../../Drivers/STM32H7xx_HAL_Driver/Src/stm32h7xx_hal_flash_ex.c ****         (++) Set the Read protection Level
  43:../../Drivers/STM32H7xx_HAL_Driver/Src/stm32h7xx_hal_flash_ex.c ****         (++) Set the BOR level
  44:../../Drivers/STM32H7xx_HAL_Driver/Src/stm32h7xx_hal_flash_ex.c ****         (++) Program the user Option Bytes
  45:../../Drivers/STM32H7xx_HAL_Driver/Src/stm32h7xx_hal_flash_ex.c ****         (++) PCROP protection configuration and control per bank
  46:../../Drivers/STM32H7xx_HAL_Driver/Src/stm32h7xx_hal_flash_ex.c ****         (++) Secure area configuration and control per bank
  47:../../Drivers/STM32H7xx_HAL_Driver/Src/stm32h7xx_hal_flash_ex.c ****         (++) Core Boot address configuration
  48:../../Drivers/STM32H7xx_HAL_Driver/Src/stm32h7xx_hal_flash_ex.c ****         (++) TCM / AXI shared RAM configuration
  49:../../Drivers/STM32H7xx_HAL_Driver/Src/stm32h7xx_hal_flash_ex.c ****         (++) CPU Frequency Boost configuration
  50:../../Drivers/STM32H7xx_HAL_Driver/Src/stm32h7xx_hal_flash_ex.c **** 
  51:../../Drivers/STM32H7xx_HAL_Driver/Src/stm32h7xx_hal_flash_ex.c ****       (#) FLASH Memory Lock and unlock per Bank: HAL_FLASHEx_Lock_Bank1(), HAL_FLASHEx_Unlock_Bank1
  52:../../Drivers/STM32H7xx_HAL_Driver/Src/stm32h7xx_hal_flash_ex.c ****           HAL_FLASHEx_Lock_Bank2() and HAL_FLASHEx_Unlock_Bank2() functions
  53:../../Drivers/STM32H7xx_HAL_Driver/Src/stm32h7xx_hal_flash_ex.c **** 
  54:../../Drivers/STM32H7xx_HAL_Driver/Src/stm32h7xx_hal_flash_ex.c ****       (#) FLASH CRC computation function: Use HAL_FLASHEx_ComputeCRC() to:
  55:../../Drivers/STM32H7xx_HAL_Driver/Src/stm32h7xx_hal_flash_ex.c ****           (++) Enable CRC feature
  56:../../Drivers/STM32H7xx_HAL_Driver/Src/stm32h7xx_hal_flash_ex.c ****           (++) Program the desired burst size
  57:../../Drivers/STM32H7xx_HAL_Driver/Src/stm32h7xx_hal_flash_ex.c ****           (++) Define the user Flash Area on which the CRC has be computed
  58:../../Drivers/STM32H7xx_HAL_Driver/Src/stm32h7xx_hal_flash_ex.c ****           (++) Perform the CRC computation
  59:../../Drivers/STM32H7xx_HAL_Driver/Src/stm32h7xx_hal_flash_ex.c ****           (++) Disable CRC feature
  60:../../Drivers/STM32H7xx_HAL_Driver/Src/stm32h7xx_hal_flash_ex.c **** 
  61:../../Drivers/STM32H7xx_HAL_Driver/Src/stm32h7xx_hal_flash_ex.c ****  @endverbatim
  62:../../Drivers/STM32H7xx_HAL_Driver/Src/stm32h7xx_hal_flash_ex.c ****   ******************************************************************************
  63:../../Drivers/STM32H7xx_HAL_Driver/Src/stm32h7xx_hal_flash_ex.c ****   * @attention
  64:../../Drivers/STM32H7xx_HAL_Driver/Src/stm32h7xx_hal_flash_ex.c ****   *
  65:../../Drivers/STM32H7xx_HAL_Driver/Src/stm32h7xx_hal_flash_ex.c ****   * Copyright (c) 2017 STMicroelectronics.
  66:../../Drivers/STM32H7xx_HAL_Driver/Src/stm32h7xx_hal_flash_ex.c ****   * All rights reserved.
  67:../../Drivers/STM32H7xx_HAL_Driver/Src/stm32h7xx_hal_flash_ex.c ****   *
  68:../../Drivers/STM32H7xx_HAL_Driver/Src/stm32h7xx_hal_flash_ex.c ****   * This software is licensed under terms that can be found in the LICENSE file in
  69:../../Drivers/STM32H7xx_HAL_Driver/Src/stm32h7xx_hal_flash_ex.c ****   * the root directory of this software component.
  70:../../Drivers/STM32H7xx_HAL_Driver/Src/stm32h7xx_hal_flash_ex.c ****   * If no LICENSE file comes with this software, it is provided AS-IS.
  71:../../Drivers/STM32H7xx_HAL_Driver/Src/stm32h7xx_hal_flash_ex.c ****   ******************************************************************************
  72:../../Drivers/STM32H7xx_HAL_Driver/Src/stm32h7xx_hal_flash_ex.c ****   */
  73:../../Drivers/STM32H7xx_HAL_Driver/Src/stm32h7xx_hal_flash_ex.c **** 
  74:../../Drivers/STM32H7xx_HAL_Driver/Src/stm32h7xx_hal_flash_ex.c **** /* Includes ------------------------------------------------------------------*/
  75:../../Drivers/STM32H7xx_HAL_Driver/Src/stm32h7xx_hal_flash_ex.c **** #include "stm32h7xx_hal.h"
  76:../../Drivers/STM32H7xx_HAL_Driver/Src/stm32h7xx_hal_flash_ex.c **** 
  77:../../Drivers/STM32H7xx_HAL_Driver/Src/stm32h7xx_hal_flash_ex.c **** /** @addtogroup STM32H7xx_HAL_Driver
  78:../../Drivers/STM32H7xx_HAL_Driver/Src/stm32h7xx_hal_flash_ex.c ****   * @{
  79:../../Drivers/STM32H7xx_HAL_Driver/Src/stm32h7xx_hal_flash_ex.c ****   */
  80:../../Drivers/STM32H7xx_HAL_Driver/Src/stm32h7xx_hal_flash_ex.c **** 
  81:../../Drivers/STM32H7xx_HAL_Driver/Src/stm32h7xx_hal_flash_ex.c **** /** @defgroup FLASHEx  FLASHEx
  82:../../Drivers/STM32H7xx_HAL_Driver/Src/stm32h7xx_hal_flash_ex.c ****   * @brief FLASH HAL Extension module driver
  83:../../Drivers/STM32H7xx_HAL_Driver/Src/stm32h7xx_hal_flash_ex.c ****   * @{
  84:../../Drivers/STM32H7xx_HAL_Driver/Src/stm32h7xx_hal_flash_ex.c ****   */
  85:../../Drivers/STM32H7xx_HAL_Driver/Src/stm32h7xx_hal_flash_ex.c **** 
  86:../../Drivers/STM32H7xx_HAL_Driver/Src/stm32h7xx_hal_flash_ex.c **** #ifdef HAL_FLASH_MODULE_ENABLED
  87:../../Drivers/STM32H7xx_HAL_Driver/Src/stm32h7xx_hal_flash_ex.c **** 
  88:../../Drivers/STM32H7xx_HAL_Driver/Src/stm32h7xx_hal_flash_ex.c **** /* Private typedef -----------------------------------------------------------*/
ARM GAS  /tmp/ccS8U376.s 			page 3


  89:../../Drivers/STM32H7xx_HAL_Driver/Src/stm32h7xx_hal_flash_ex.c **** /* Private define ------------------------------------------------------------*/
  90:../../Drivers/STM32H7xx_HAL_Driver/Src/stm32h7xx_hal_flash_ex.c **** /** @addtogroup FLASHEx_Private_Constants
  91:../../Drivers/STM32H7xx_HAL_Driver/Src/stm32h7xx_hal_flash_ex.c ****   * @{
  92:../../Drivers/STM32H7xx_HAL_Driver/Src/stm32h7xx_hal_flash_ex.c ****   */
  93:../../Drivers/STM32H7xx_HAL_Driver/Src/stm32h7xx_hal_flash_ex.c **** #define FLASH_TIMEOUT_VALUE       50000U /* 50 s */
  94:../../Drivers/STM32H7xx_HAL_Driver/Src/stm32h7xx_hal_flash_ex.c **** 
  95:../../Drivers/STM32H7xx_HAL_Driver/Src/stm32h7xx_hal_flash_ex.c **** /**
  96:../../Drivers/STM32H7xx_HAL_Driver/Src/stm32h7xx_hal_flash_ex.c ****   * @}
  97:../../Drivers/STM32H7xx_HAL_Driver/Src/stm32h7xx_hal_flash_ex.c ****   */
  98:../../Drivers/STM32H7xx_HAL_Driver/Src/stm32h7xx_hal_flash_ex.c **** /* Private macro -------------------------------------------------------------*/
  99:../../Drivers/STM32H7xx_HAL_Driver/Src/stm32h7xx_hal_flash_ex.c **** /* Private variables ---------------------------------------------------------*/
 100:../../Drivers/STM32H7xx_HAL_Driver/Src/stm32h7xx_hal_flash_ex.c **** /* Private function prototypes -----------------------------------------------*/
 101:../../Drivers/STM32H7xx_HAL_Driver/Src/stm32h7xx_hal_flash_ex.c **** /** @defgroup FLASHEx_Private_Functions FLASHEx Private Functions
 102:../../Drivers/STM32H7xx_HAL_Driver/Src/stm32h7xx_hal_flash_ex.c ****   * @{
 103:../../Drivers/STM32H7xx_HAL_Driver/Src/stm32h7xx_hal_flash_ex.c ****   */
 104:../../Drivers/STM32H7xx_HAL_Driver/Src/stm32h7xx_hal_flash_ex.c **** static void FLASH_MassErase(uint32_t VoltageRange, uint32_t Banks);
 105:../../Drivers/STM32H7xx_HAL_Driver/Src/stm32h7xx_hal_flash_ex.c **** static void FLASH_OB_EnableWRP(uint32_t WRPSector, uint32_t Banks);
 106:../../Drivers/STM32H7xx_HAL_Driver/Src/stm32h7xx_hal_flash_ex.c **** static void FLASH_OB_DisableWRP(uint32_t WRPSector, uint32_t Bank);
 107:../../Drivers/STM32H7xx_HAL_Driver/Src/stm32h7xx_hal_flash_ex.c **** static void FLASH_OB_GetWRP(uint32_t *WRPState, uint32_t *WRPSector, uint32_t Bank);
 108:../../Drivers/STM32H7xx_HAL_Driver/Src/stm32h7xx_hal_flash_ex.c **** static void FLASH_OB_RDPConfig(uint32_t RDPLevel);
 109:../../Drivers/STM32H7xx_HAL_Driver/Src/stm32h7xx_hal_flash_ex.c **** static uint32_t FLASH_OB_GetRDP(void);
 110:../../Drivers/STM32H7xx_HAL_Driver/Src/stm32h7xx_hal_flash_ex.c **** static void FLASH_OB_PCROPConfig(uint32_t PCROConfigRDP, uint32_t PCROPStartAddr, uint32_t PCROPEnd
 111:../../Drivers/STM32H7xx_HAL_Driver/Src/stm32h7xx_hal_flash_ex.c **** static void FLASH_OB_GetPCROP(uint32_t *PCROPConfig, uint32_t *PCROPStartAddr,uint32_t *PCROPEndAdd
 112:../../Drivers/STM32H7xx_HAL_Driver/Src/stm32h7xx_hal_flash_ex.c **** static void FLASH_OB_BOR_LevelConfig(uint32_t Level);
 113:../../Drivers/STM32H7xx_HAL_Driver/Src/stm32h7xx_hal_flash_ex.c **** static uint32_t FLASH_OB_GetBOR(void);
 114:../../Drivers/STM32H7xx_HAL_Driver/Src/stm32h7xx_hal_flash_ex.c **** static void FLASH_OB_UserConfig(uint32_t UserType, uint32_t UserConfig);
 115:../../Drivers/STM32H7xx_HAL_Driver/Src/stm32h7xx_hal_flash_ex.c **** static uint32_t FLASH_OB_GetUser(void);
 116:../../Drivers/STM32H7xx_HAL_Driver/Src/stm32h7xx_hal_flash_ex.c **** static void FLASH_OB_BootAddConfig(uint32_t BootOption, uint32_t BootAddress0, uint32_t BootAddress
 117:../../Drivers/STM32H7xx_HAL_Driver/Src/stm32h7xx_hal_flash_ex.c **** static void FLASH_OB_GetBootAdd(uint32_t *BootAddress0, uint32_t *BootAddress1);
 118:../../Drivers/STM32H7xx_HAL_Driver/Src/stm32h7xx_hal_flash_ex.c **** static void FLASH_OB_SecureAreaConfig(uint32_t SecureAreaConfig, uint32_t SecureAreaStartAddr, uint
 119:../../Drivers/STM32H7xx_HAL_Driver/Src/stm32h7xx_hal_flash_ex.c **** static void FLASH_OB_GetSecureArea(uint32_t *SecureAreaConfig, uint32_t *SecureAreaStartAddr, uint3
 120:../../Drivers/STM32H7xx_HAL_Driver/Src/stm32h7xx_hal_flash_ex.c **** static void FLASH_CRC_AddSector(uint32_t Sector, uint32_t Bank);
 121:../../Drivers/STM32H7xx_HAL_Driver/Src/stm32h7xx_hal_flash_ex.c **** static void FLASH_CRC_SelectAddress(uint32_t CRCStartAddr, uint32_t CRCEndAddr, uint32_t Bank);
 122:../../Drivers/STM32H7xx_HAL_Driver/Src/stm32h7xx_hal_flash_ex.c **** 
 123:../../Drivers/STM32H7xx_HAL_Driver/Src/stm32h7xx_hal_flash_ex.c **** #if defined (DUAL_CORE)
 124:../../Drivers/STM32H7xx_HAL_Driver/Src/stm32h7xx_hal_flash_ex.c **** static void FLASH_OB_CM4BootAddConfig(uint32_t BootOption, uint32_t BootAddress0, uint32_t BootAddr
 125:../../Drivers/STM32H7xx_HAL_Driver/Src/stm32h7xx_hal_flash_ex.c **** static void FLASH_OB_GetCM4BootAdd(uint32_t *BootAddress0, uint32_t *BootAddress1);
 126:../../Drivers/STM32H7xx_HAL_Driver/Src/stm32h7xx_hal_flash_ex.c **** #endif /*DUAL_CORE*/
 127:../../Drivers/STM32H7xx_HAL_Driver/Src/stm32h7xx_hal_flash_ex.c **** 
 128:../../Drivers/STM32H7xx_HAL_Driver/Src/stm32h7xx_hal_flash_ex.c **** #if defined (FLASH_OTPBL_LOCKBL)
 129:../../Drivers/STM32H7xx_HAL_Driver/Src/stm32h7xx_hal_flash_ex.c **** static void FLASH_OB_OTP_LockConfig(uint32_t OTP_Block);
 130:../../Drivers/STM32H7xx_HAL_Driver/Src/stm32h7xx_hal_flash_ex.c **** static uint32_t FLASH_OB_OTP_GetLock(void);
 131:../../Drivers/STM32H7xx_HAL_Driver/Src/stm32h7xx_hal_flash_ex.c **** #endif /* FLASH_OTPBL_LOCKBL */
 132:../../Drivers/STM32H7xx_HAL_Driver/Src/stm32h7xx_hal_flash_ex.c **** 
 133:../../Drivers/STM32H7xx_HAL_Driver/Src/stm32h7xx_hal_flash_ex.c **** #if defined (FLASH_OPTSR2_TCM_AXI_SHARED)
 134:../../Drivers/STM32H7xx_HAL_Driver/Src/stm32h7xx_hal_flash_ex.c **** static void FLASH_OB_SharedRAM_Config(uint32_t SharedRamConfig);
 135:../../Drivers/STM32H7xx_HAL_Driver/Src/stm32h7xx_hal_flash_ex.c **** static uint32_t FLASH_OB_SharedRAM_GetConfig(void);
 136:../../Drivers/STM32H7xx_HAL_Driver/Src/stm32h7xx_hal_flash_ex.c **** #endif /* FLASH_OPTSR2_TCM_AXI_SHARED */
 137:../../Drivers/STM32H7xx_HAL_Driver/Src/stm32h7xx_hal_flash_ex.c **** 
 138:../../Drivers/STM32H7xx_HAL_Driver/Src/stm32h7xx_hal_flash_ex.c **** #if defined (FLASH_OPTSR2_CPUFREQ_BOOST)
 139:../../Drivers/STM32H7xx_HAL_Driver/Src/stm32h7xx_hal_flash_ex.c **** static void FLASH_OB_CPUFreq_BoostConfig(uint32_t FreqBoost);
 140:../../Drivers/STM32H7xx_HAL_Driver/Src/stm32h7xx_hal_flash_ex.c **** static uint32_t FLASH_OB_CPUFreq_GetBoost(void);
 141:../../Drivers/STM32H7xx_HAL_Driver/Src/stm32h7xx_hal_flash_ex.c **** #endif /* FLASH_OPTSR2_CPUFREQ_BOOST */
 142:../../Drivers/STM32H7xx_HAL_Driver/Src/stm32h7xx_hal_flash_ex.c **** /**
 143:../../Drivers/STM32H7xx_HAL_Driver/Src/stm32h7xx_hal_flash_ex.c ****   * @}
 144:../../Drivers/STM32H7xx_HAL_Driver/Src/stm32h7xx_hal_flash_ex.c ****   */
 145:../../Drivers/STM32H7xx_HAL_Driver/Src/stm32h7xx_hal_flash_ex.c **** 
ARM GAS  /tmp/ccS8U376.s 			page 4


 146:../../Drivers/STM32H7xx_HAL_Driver/Src/stm32h7xx_hal_flash_ex.c **** /* Exported functions ---------------------------------------------------------*/
 147:../../Drivers/STM32H7xx_HAL_Driver/Src/stm32h7xx_hal_flash_ex.c **** /** @defgroup FLASHEx_Exported_Functions FLASHEx Exported Functions
 148:../../Drivers/STM32H7xx_HAL_Driver/Src/stm32h7xx_hal_flash_ex.c ****   * @{
 149:../../Drivers/STM32H7xx_HAL_Driver/Src/stm32h7xx_hal_flash_ex.c ****   */
 150:../../Drivers/STM32H7xx_HAL_Driver/Src/stm32h7xx_hal_flash_ex.c **** 
 151:../../Drivers/STM32H7xx_HAL_Driver/Src/stm32h7xx_hal_flash_ex.c **** /** @defgroup FLASHEx_Exported_Functions_Group1 Extended IO operation functions
 152:../../Drivers/STM32H7xx_HAL_Driver/Src/stm32h7xx_hal_flash_ex.c ****  *  @brief   Extended IO operation functions
 153:../../Drivers/STM32H7xx_HAL_Driver/Src/stm32h7xx_hal_flash_ex.c ****  *
 154:../../Drivers/STM32H7xx_HAL_Driver/Src/stm32h7xx_hal_flash_ex.c **** @verbatim
 155:../../Drivers/STM32H7xx_HAL_Driver/Src/stm32h7xx_hal_flash_ex.c ****  ===============================================================================
 156:../../Drivers/STM32H7xx_HAL_Driver/Src/stm32h7xx_hal_flash_ex.c ****                 ##### Extended programming operation functions #####
 157:../../Drivers/STM32H7xx_HAL_Driver/Src/stm32h7xx_hal_flash_ex.c ****  ===============================================================================
 158:../../Drivers/STM32H7xx_HAL_Driver/Src/stm32h7xx_hal_flash_ex.c ****     [..]
 159:../../Drivers/STM32H7xx_HAL_Driver/Src/stm32h7xx_hal_flash_ex.c ****     This subsection provides a set of functions allowing to manage the Extension FLASH
 160:../../Drivers/STM32H7xx_HAL_Driver/Src/stm32h7xx_hal_flash_ex.c ****     programming operations Operations.
 161:../../Drivers/STM32H7xx_HAL_Driver/Src/stm32h7xx_hal_flash_ex.c **** 
 162:../../Drivers/STM32H7xx_HAL_Driver/Src/stm32h7xx_hal_flash_ex.c **** @endverbatim
 163:../../Drivers/STM32H7xx_HAL_Driver/Src/stm32h7xx_hal_flash_ex.c ****   * @{
 164:../../Drivers/STM32H7xx_HAL_Driver/Src/stm32h7xx_hal_flash_ex.c ****   */
 165:../../Drivers/STM32H7xx_HAL_Driver/Src/stm32h7xx_hal_flash_ex.c **** /**
 166:../../Drivers/STM32H7xx_HAL_Driver/Src/stm32h7xx_hal_flash_ex.c ****   * @brief  Perform a mass erase or erase the specified FLASH memory sectors
 167:../../Drivers/STM32H7xx_HAL_Driver/Src/stm32h7xx_hal_flash_ex.c ****   * @param[in]  pEraseInit pointer to an FLASH_EraseInitTypeDef structure that
 168:../../Drivers/STM32H7xx_HAL_Driver/Src/stm32h7xx_hal_flash_ex.c ****   *         contains the configuration information for the erasing.
 169:../../Drivers/STM32H7xx_HAL_Driver/Src/stm32h7xx_hal_flash_ex.c ****   *
 170:../../Drivers/STM32H7xx_HAL_Driver/Src/stm32h7xx_hal_flash_ex.c ****   * @param[out]  SectorError pointer to variable  that contains the configuration
 171:../../Drivers/STM32H7xx_HAL_Driver/Src/stm32h7xx_hal_flash_ex.c ****   *          information on faulty sector in case of error (0xFFFFFFFF means that all
 172:../../Drivers/STM32H7xx_HAL_Driver/Src/stm32h7xx_hal_flash_ex.c ****   *          the sectors have been correctly erased)
 173:../../Drivers/STM32H7xx_HAL_Driver/Src/stm32h7xx_hal_flash_ex.c ****   *
 174:../../Drivers/STM32H7xx_HAL_Driver/Src/stm32h7xx_hal_flash_ex.c ****   * @retval HAL Status
 175:../../Drivers/STM32H7xx_HAL_Driver/Src/stm32h7xx_hal_flash_ex.c ****   */
 176:../../Drivers/STM32H7xx_HAL_Driver/Src/stm32h7xx_hal_flash_ex.c **** HAL_StatusTypeDef HAL_FLASHEx_Erase(FLASH_EraseInitTypeDef *pEraseInit, uint32_t *SectorError)
 177:../../Drivers/STM32H7xx_HAL_Driver/Src/stm32h7xx_hal_flash_ex.c **** {
 178:../../Drivers/STM32H7xx_HAL_Driver/Src/stm32h7xx_hal_flash_ex.c ****   HAL_StatusTypeDef status = HAL_OK;
 179:../../Drivers/STM32H7xx_HAL_Driver/Src/stm32h7xx_hal_flash_ex.c ****   uint32_t sector_index;
 180:../../Drivers/STM32H7xx_HAL_Driver/Src/stm32h7xx_hal_flash_ex.c **** 
 181:../../Drivers/STM32H7xx_HAL_Driver/Src/stm32h7xx_hal_flash_ex.c ****   /* Check the parameters */
 182:../../Drivers/STM32H7xx_HAL_Driver/Src/stm32h7xx_hal_flash_ex.c ****   assert_param(IS_FLASH_TYPEERASE(pEraseInit->TypeErase));
 183:../../Drivers/STM32H7xx_HAL_Driver/Src/stm32h7xx_hal_flash_ex.c ****   assert_param(IS_FLASH_BANK(pEraseInit->Banks));
 184:../../Drivers/STM32H7xx_HAL_Driver/Src/stm32h7xx_hal_flash_ex.c **** 
 185:../../Drivers/STM32H7xx_HAL_Driver/Src/stm32h7xx_hal_flash_ex.c ****   /* Process Locked */
 186:../../Drivers/STM32H7xx_HAL_Driver/Src/stm32h7xx_hal_flash_ex.c ****   __HAL_LOCK(&pFlash);
 187:../../Drivers/STM32H7xx_HAL_Driver/Src/stm32h7xx_hal_flash_ex.c **** 
 188:../../Drivers/STM32H7xx_HAL_Driver/Src/stm32h7xx_hal_flash_ex.c ****   /* Reset error code */
 189:../../Drivers/STM32H7xx_HAL_Driver/Src/stm32h7xx_hal_flash_ex.c ****   pFlash.ErrorCode = HAL_FLASH_ERROR_NONE;
 190:../../Drivers/STM32H7xx_HAL_Driver/Src/stm32h7xx_hal_flash_ex.c **** 
 191:../../Drivers/STM32H7xx_HAL_Driver/Src/stm32h7xx_hal_flash_ex.c ****   /* Wait for last operation to be completed on Bank1 */
 192:../../Drivers/STM32H7xx_HAL_Driver/Src/stm32h7xx_hal_flash_ex.c ****   if((pEraseInit->Banks & FLASH_BANK_1) == FLASH_BANK_1)
 193:../../Drivers/STM32H7xx_HAL_Driver/Src/stm32h7xx_hal_flash_ex.c ****   {
 194:../../Drivers/STM32H7xx_HAL_Driver/Src/stm32h7xx_hal_flash_ex.c ****     if(FLASH_WaitForLastOperation((uint32_t)FLASH_TIMEOUT_VALUE, FLASH_BANK_1) != HAL_OK)
 195:../../Drivers/STM32H7xx_HAL_Driver/Src/stm32h7xx_hal_flash_ex.c ****     {
 196:../../Drivers/STM32H7xx_HAL_Driver/Src/stm32h7xx_hal_flash_ex.c ****       status = HAL_ERROR;
 197:../../Drivers/STM32H7xx_HAL_Driver/Src/stm32h7xx_hal_flash_ex.c ****     }
 198:../../Drivers/STM32H7xx_HAL_Driver/Src/stm32h7xx_hal_flash_ex.c ****   }
 199:../../Drivers/STM32H7xx_HAL_Driver/Src/stm32h7xx_hal_flash_ex.c **** 
 200:../../Drivers/STM32H7xx_HAL_Driver/Src/stm32h7xx_hal_flash_ex.c **** #if defined (DUAL_BANK)
 201:../../Drivers/STM32H7xx_HAL_Driver/Src/stm32h7xx_hal_flash_ex.c ****   /* Wait for last operation to be completed on Bank2 */
 202:../../Drivers/STM32H7xx_HAL_Driver/Src/stm32h7xx_hal_flash_ex.c ****   if((pEraseInit->Banks & FLASH_BANK_2) == FLASH_BANK_2)
ARM GAS  /tmp/ccS8U376.s 			page 5


 203:../../Drivers/STM32H7xx_HAL_Driver/Src/stm32h7xx_hal_flash_ex.c ****   {
 204:../../Drivers/STM32H7xx_HAL_Driver/Src/stm32h7xx_hal_flash_ex.c ****     if(FLASH_WaitForLastOperation((uint32_t)FLASH_TIMEOUT_VALUE, FLASH_BANK_2) != HAL_OK)
 205:../../Drivers/STM32H7xx_HAL_Driver/Src/stm32h7xx_hal_flash_ex.c ****     {
 206:../../Drivers/STM32H7xx_HAL_Driver/Src/stm32h7xx_hal_flash_ex.c ****       status = HAL_ERROR;
 207:../../Drivers/STM32H7xx_HAL_Driver/Src/stm32h7xx_hal_flash_ex.c ****     }
 208:../../Drivers/STM32H7xx_HAL_Driver/Src/stm32h7xx_hal_flash_ex.c ****   }
 209:../../Drivers/STM32H7xx_HAL_Driver/Src/stm32h7xx_hal_flash_ex.c **** #endif /* DUAL_BANK */
 210:../../Drivers/STM32H7xx_HAL_Driver/Src/stm32h7xx_hal_flash_ex.c **** 
 211:../../Drivers/STM32H7xx_HAL_Driver/Src/stm32h7xx_hal_flash_ex.c ****   if(status == HAL_OK)
 212:../../Drivers/STM32H7xx_HAL_Driver/Src/stm32h7xx_hal_flash_ex.c ****   {
 213:../../Drivers/STM32H7xx_HAL_Driver/Src/stm32h7xx_hal_flash_ex.c ****     if(pEraseInit->TypeErase == FLASH_TYPEERASE_MASSERASE)
 214:../../Drivers/STM32H7xx_HAL_Driver/Src/stm32h7xx_hal_flash_ex.c ****     {
 215:../../Drivers/STM32H7xx_HAL_Driver/Src/stm32h7xx_hal_flash_ex.c ****       /* Mass erase to be done */
 216:../../Drivers/STM32H7xx_HAL_Driver/Src/stm32h7xx_hal_flash_ex.c ****       FLASH_MassErase(pEraseInit->VoltageRange, pEraseInit->Banks);
 217:../../Drivers/STM32H7xx_HAL_Driver/Src/stm32h7xx_hal_flash_ex.c **** 
 218:../../Drivers/STM32H7xx_HAL_Driver/Src/stm32h7xx_hal_flash_ex.c ****       /* Wait for last operation to be completed on Bank 1 */
 219:../../Drivers/STM32H7xx_HAL_Driver/Src/stm32h7xx_hal_flash_ex.c ****       if((pEraseInit->Banks & FLASH_BANK_1) == FLASH_BANK_1)
 220:../../Drivers/STM32H7xx_HAL_Driver/Src/stm32h7xx_hal_flash_ex.c ****       {
 221:../../Drivers/STM32H7xx_HAL_Driver/Src/stm32h7xx_hal_flash_ex.c ****         if(FLASH_WaitForLastOperation((uint32_t)FLASH_TIMEOUT_VALUE, FLASH_BANK_1) != HAL_OK)
 222:../../Drivers/STM32H7xx_HAL_Driver/Src/stm32h7xx_hal_flash_ex.c ****         {
 223:../../Drivers/STM32H7xx_HAL_Driver/Src/stm32h7xx_hal_flash_ex.c ****           status = HAL_ERROR;
 224:../../Drivers/STM32H7xx_HAL_Driver/Src/stm32h7xx_hal_flash_ex.c ****         }
 225:../../Drivers/STM32H7xx_HAL_Driver/Src/stm32h7xx_hal_flash_ex.c ****         /* if the erase operation is completed, disable the Bank1 BER Bit */
 226:../../Drivers/STM32H7xx_HAL_Driver/Src/stm32h7xx_hal_flash_ex.c ****         FLASH->CR1 &= (~FLASH_CR_BER);
 227:../../Drivers/STM32H7xx_HAL_Driver/Src/stm32h7xx_hal_flash_ex.c ****       }
 228:../../Drivers/STM32H7xx_HAL_Driver/Src/stm32h7xx_hal_flash_ex.c **** #if defined (DUAL_BANK)
 229:../../Drivers/STM32H7xx_HAL_Driver/Src/stm32h7xx_hal_flash_ex.c ****       /* Wait for last operation to be completed on Bank 2 */
 230:../../Drivers/STM32H7xx_HAL_Driver/Src/stm32h7xx_hal_flash_ex.c ****       if((pEraseInit->Banks & FLASH_BANK_2) == FLASH_BANK_2)
 231:../../Drivers/STM32H7xx_HAL_Driver/Src/stm32h7xx_hal_flash_ex.c ****       {
 232:../../Drivers/STM32H7xx_HAL_Driver/Src/stm32h7xx_hal_flash_ex.c ****         if(FLASH_WaitForLastOperation((uint32_t)FLASH_TIMEOUT_VALUE, FLASH_BANK_2) != HAL_OK)
 233:../../Drivers/STM32H7xx_HAL_Driver/Src/stm32h7xx_hal_flash_ex.c ****         {
 234:../../Drivers/STM32H7xx_HAL_Driver/Src/stm32h7xx_hal_flash_ex.c ****           status = HAL_ERROR;
 235:../../Drivers/STM32H7xx_HAL_Driver/Src/stm32h7xx_hal_flash_ex.c ****         }
 236:../../Drivers/STM32H7xx_HAL_Driver/Src/stm32h7xx_hal_flash_ex.c ****         /* if the erase operation is completed, disable the Bank2 BER Bit */
 237:../../Drivers/STM32H7xx_HAL_Driver/Src/stm32h7xx_hal_flash_ex.c ****         FLASH->CR2 &= (~FLASH_CR_BER);
 238:../../Drivers/STM32H7xx_HAL_Driver/Src/stm32h7xx_hal_flash_ex.c ****       }
 239:../../Drivers/STM32H7xx_HAL_Driver/Src/stm32h7xx_hal_flash_ex.c **** #endif /* DUAL_BANK */
 240:../../Drivers/STM32H7xx_HAL_Driver/Src/stm32h7xx_hal_flash_ex.c ****     }
 241:../../Drivers/STM32H7xx_HAL_Driver/Src/stm32h7xx_hal_flash_ex.c ****     else
 242:../../Drivers/STM32H7xx_HAL_Driver/Src/stm32h7xx_hal_flash_ex.c ****     {
 243:../../Drivers/STM32H7xx_HAL_Driver/Src/stm32h7xx_hal_flash_ex.c ****       /*Initialization of SectorError variable*/
 244:../../Drivers/STM32H7xx_HAL_Driver/Src/stm32h7xx_hal_flash_ex.c ****       *SectorError = 0xFFFFFFFFU;
 245:../../Drivers/STM32H7xx_HAL_Driver/Src/stm32h7xx_hal_flash_ex.c **** 
 246:../../Drivers/STM32H7xx_HAL_Driver/Src/stm32h7xx_hal_flash_ex.c ****       /* Erase by sector by sector to be done*/
 247:../../Drivers/STM32H7xx_HAL_Driver/Src/stm32h7xx_hal_flash_ex.c ****       for(sector_index = pEraseInit->Sector; sector_index < (pEraseInit->NbSectors + pEraseInit->Se
 248:../../Drivers/STM32H7xx_HAL_Driver/Src/stm32h7xx_hal_flash_ex.c ****       {
 249:../../Drivers/STM32H7xx_HAL_Driver/Src/stm32h7xx_hal_flash_ex.c ****         FLASH_Erase_Sector(sector_index, pEraseInit->Banks, pEraseInit->VoltageRange);
 250:../../Drivers/STM32H7xx_HAL_Driver/Src/stm32h7xx_hal_flash_ex.c **** 
 251:../../Drivers/STM32H7xx_HAL_Driver/Src/stm32h7xx_hal_flash_ex.c ****         if((pEraseInit->Banks & FLASH_BANK_1) == FLASH_BANK_1)
 252:../../Drivers/STM32H7xx_HAL_Driver/Src/stm32h7xx_hal_flash_ex.c ****         {
 253:../../Drivers/STM32H7xx_HAL_Driver/Src/stm32h7xx_hal_flash_ex.c ****           /* Wait for last operation to be completed */
 254:../../Drivers/STM32H7xx_HAL_Driver/Src/stm32h7xx_hal_flash_ex.c ****           status = FLASH_WaitForLastOperation((uint32_t)FLASH_TIMEOUT_VALUE, FLASH_BANK_1);
 255:../../Drivers/STM32H7xx_HAL_Driver/Src/stm32h7xx_hal_flash_ex.c **** 
 256:../../Drivers/STM32H7xx_HAL_Driver/Src/stm32h7xx_hal_flash_ex.c ****           /* If the erase operation is completed, disable the SER Bit */
 257:../../Drivers/STM32H7xx_HAL_Driver/Src/stm32h7xx_hal_flash_ex.c ****           FLASH->CR1 &= (~(FLASH_CR_SER | FLASH_CR_SNB));
 258:../../Drivers/STM32H7xx_HAL_Driver/Src/stm32h7xx_hal_flash_ex.c ****         }
 259:../../Drivers/STM32H7xx_HAL_Driver/Src/stm32h7xx_hal_flash_ex.c **** #if defined (DUAL_BANK)
ARM GAS  /tmp/ccS8U376.s 			page 6


 260:../../Drivers/STM32H7xx_HAL_Driver/Src/stm32h7xx_hal_flash_ex.c ****         if((pEraseInit->Banks & FLASH_BANK_2) == FLASH_BANK_2)
 261:../../Drivers/STM32H7xx_HAL_Driver/Src/stm32h7xx_hal_flash_ex.c ****         {
 262:../../Drivers/STM32H7xx_HAL_Driver/Src/stm32h7xx_hal_flash_ex.c ****           /* Wait for last operation to be completed */
 263:../../Drivers/STM32H7xx_HAL_Driver/Src/stm32h7xx_hal_flash_ex.c ****           status = FLASH_WaitForLastOperation((uint32_t)FLASH_TIMEOUT_VALUE, FLASH_BANK_2);
 264:../../Drivers/STM32H7xx_HAL_Driver/Src/stm32h7xx_hal_flash_ex.c **** 
 265:../../Drivers/STM32H7xx_HAL_Driver/Src/stm32h7xx_hal_flash_ex.c ****           /* If the erase operation is completed, disable the SER Bit */
 266:../../Drivers/STM32H7xx_HAL_Driver/Src/stm32h7xx_hal_flash_ex.c ****           FLASH->CR2 &= (~(FLASH_CR_SER | FLASH_CR_SNB));
 267:../../Drivers/STM32H7xx_HAL_Driver/Src/stm32h7xx_hal_flash_ex.c ****         }
 268:../../Drivers/STM32H7xx_HAL_Driver/Src/stm32h7xx_hal_flash_ex.c **** #endif /* DUAL_BANK */
 269:../../Drivers/STM32H7xx_HAL_Driver/Src/stm32h7xx_hal_flash_ex.c **** 
 270:../../Drivers/STM32H7xx_HAL_Driver/Src/stm32h7xx_hal_flash_ex.c ****         if(status != HAL_OK)
 271:../../Drivers/STM32H7xx_HAL_Driver/Src/stm32h7xx_hal_flash_ex.c ****         {
 272:../../Drivers/STM32H7xx_HAL_Driver/Src/stm32h7xx_hal_flash_ex.c ****           /* In case of error, stop erase procedure and return the faulty sector */
 273:../../Drivers/STM32H7xx_HAL_Driver/Src/stm32h7xx_hal_flash_ex.c ****           *SectorError = sector_index;
 274:../../Drivers/STM32H7xx_HAL_Driver/Src/stm32h7xx_hal_flash_ex.c ****           break;
 275:../../Drivers/STM32H7xx_HAL_Driver/Src/stm32h7xx_hal_flash_ex.c ****         }
 276:../../Drivers/STM32H7xx_HAL_Driver/Src/stm32h7xx_hal_flash_ex.c ****       }
 277:../../Drivers/STM32H7xx_HAL_Driver/Src/stm32h7xx_hal_flash_ex.c ****     }
 278:../../Drivers/STM32H7xx_HAL_Driver/Src/stm32h7xx_hal_flash_ex.c ****   }
 279:../../Drivers/STM32H7xx_HAL_Driver/Src/stm32h7xx_hal_flash_ex.c **** 
 280:../../Drivers/STM32H7xx_HAL_Driver/Src/stm32h7xx_hal_flash_ex.c ****   /* Process Unlocked */
 281:../../Drivers/STM32H7xx_HAL_Driver/Src/stm32h7xx_hal_flash_ex.c ****   __HAL_UNLOCK(&pFlash);
 282:../../Drivers/STM32H7xx_HAL_Driver/Src/stm32h7xx_hal_flash_ex.c **** 
 283:../../Drivers/STM32H7xx_HAL_Driver/Src/stm32h7xx_hal_flash_ex.c ****   return status;
 284:../../Drivers/STM32H7xx_HAL_Driver/Src/stm32h7xx_hal_flash_ex.c **** }
 285:../../Drivers/STM32H7xx_HAL_Driver/Src/stm32h7xx_hal_flash_ex.c **** 
 286:../../Drivers/STM32H7xx_HAL_Driver/Src/stm32h7xx_hal_flash_ex.c **** /**
 287:../../Drivers/STM32H7xx_HAL_Driver/Src/stm32h7xx_hal_flash_ex.c ****   * @brief  Perform a mass erase or erase the specified FLASH memory sectors with interrupt enabled
 288:../../Drivers/STM32H7xx_HAL_Driver/Src/stm32h7xx_hal_flash_ex.c ****   * @param  pEraseInit pointer to an FLASH_EraseInitTypeDef structure that
 289:../../Drivers/STM32H7xx_HAL_Driver/Src/stm32h7xx_hal_flash_ex.c ****   *         contains the configuration information for the erasing.
 290:../../Drivers/STM32H7xx_HAL_Driver/Src/stm32h7xx_hal_flash_ex.c ****   *
 291:../../Drivers/STM32H7xx_HAL_Driver/Src/stm32h7xx_hal_flash_ex.c ****   * @retval HAL Status
 292:../../Drivers/STM32H7xx_HAL_Driver/Src/stm32h7xx_hal_flash_ex.c ****   */
 293:../../Drivers/STM32H7xx_HAL_Driver/Src/stm32h7xx_hal_flash_ex.c **** HAL_StatusTypeDef HAL_FLASHEx_Erase_IT(FLASH_EraseInitTypeDef *pEraseInit)
 294:../../Drivers/STM32H7xx_HAL_Driver/Src/stm32h7xx_hal_flash_ex.c **** {
 295:../../Drivers/STM32H7xx_HAL_Driver/Src/stm32h7xx_hal_flash_ex.c ****   HAL_StatusTypeDef status = HAL_OK;
 296:../../Drivers/STM32H7xx_HAL_Driver/Src/stm32h7xx_hal_flash_ex.c **** 
 297:../../Drivers/STM32H7xx_HAL_Driver/Src/stm32h7xx_hal_flash_ex.c ****   /* Check the parameters */
 298:../../Drivers/STM32H7xx_HAL_Driver/Src/stm32h7xx_hal_flash_ex.c ****   assert_param(IS_FLASH_TYPEERASE(pEraseInit->TypeErase));
 299:../../Drivers/STM32H7xx_HAL_Driver/Src/stm32h7xx_hal_flash_ex.c ****   assert_param(IS_FLASH_BANK(pEraseInit->Banks));
 300:../../Drivers/STM32H7xx_HAL_Driver/Src/stm32h7xx_hal_flash_ex.c **** 
 301:../../Drivers/STM32H7xx_HAL_Driver/Src/stm32h7xx_hal_flash_ex.c ****   /* Process Locked */
 302:../../Drivers/STM32H7xx_HAL_Driver/Src/stm32h7xx_hal_flash_ex.c ****   __HAL_LOCK(&pFlash);
 303:../../Drivers/STM32H7xx_HAL_Driver/Src/stm32h7xx_hal_flash_ex.c **** 
 304:../../Drivers/STM32H7xx_HAL_Driver/Src/stm32h7xx_hal_flash_ex.c ****   /* Reset error code */
 305:../../Drivers/STM32H7xx_HAL_Driver/Src/stm32h7xx_hal_flash_ex.c ****   pFlash.ErrorCode = HAL_FLASH_ERROR_NONE;
 306:../../Drivers/STM32H7xx_HAL_Driver/Src/stm32h7xx_hal_flash_ex.c **** 
 307:../../Drivers/STM32H7xx_HAL_Driver/Src/stm32h7xx_hal_flash_ex.c ****   /* Wait for last operation to be completed on Bank 1 */
 308:../../Drivers/STM32H7xx_HAL_Driver/Src/stm32h7xx_hal_flash_ex.c ****   if((pEraseInit->Banks & FLASH_BANK_1) == FLASH_BANK_1)
 309:../../Drivers/STM32H7xx_HAL_Driver/Src/stm32h7xx_hal_flash_ex.c ****   {
 310:../../Drivers/STM32H7xx_HAL_Driver/Src/stm32h7xx_hal_flash_ex.c ****     if(FLASH_WaitForLastOperation((uint32_t)FLASH_TIMEOUT_VALUE, FLASH_BANK_1) != HAL_OK)
 311:../../Drivers/STM32H7xx_HAL_Driver/Src/stm32h7xx_hal_flash_ex.c ****     {
 312:../../Drivers/STM32H7xx_HAL_Driver/Src/stm32h7xx_hal_flash_ex.c ****       status = HAL_ERROR;
 313:../../Drivers/STM32H7xx_HAL_Driver/Src/stm32h7xx_hal_flash_ex.c ****     }
 314:../../Drivers/STM32H7xx_HAL_Driver/Src/stm32h7xx_hal_flash_ex.c ****   }
 315:../../Drivers/STM32H7xx_HAL_Driver/Src/stm32h7xx_hal_flash_ex.c **** 
 316:../../Drivers/STM32H7xx_HAL_Driver/Src/stm32h7xx_hal_flash_ex.c **** #if defined (DUAL_BANK)
ARM GAS  /tmp/ccS8U376.s 			page 7


 317:../../Drivers/STM32H7xx_HAL_Driver/Src/stm32h7xx_hal_flash_ex.c ****   /* Wait for last operation to be completed on Bank 2 */
 318:../../Drivers/STM32H7xx_HAL_Driver/Src/stm32h7xx_hal_flash_ex.c ****   if((pEraseInit->Banks & FLASH_BANK_2) == FLASH_BANK_2)
 319:../../Drivers/STM32H7xx_HAL_Driver/Src/stm32h7xx_hal_flash_ex.c ****   {
 320:../../Drivers/STM32H7xx_HAL_Driver/Src/stm32h7xx_hal_flash_ex.c ****     if(FLASH_WaitForLastOperation((uint32_t)FLASH_TIMEOUT_VALUE, FLASH_BANK_2) != HAL_OK)
 321:../../Drivers/STM32H7xx_HAL_Driver/Src/stm32h7xx_hal_flash_ex.c ****     {
 322:../../Drivers/STM32H7xx_HAL_Driver/Src/stm32h7xx_hal_flash_ex.c ****       status = HAL_ERROR;
 323:../../Drivers/STM32H7xx_HAL_Driver/Src/stm32h7xx_hal_flash_ex.c ****     }
 324:../../Drivers/STM32H7xx_HAL_Driver/Src/stm32h7xx_hal_flash_ex.c ****   }
 325:../../Drivers/STM32H7xx_HAL_Driver/Src/stm32h7xx_hal_flash_ex.c **** #endif /* DUAL_BANK */
 326:../../Drivers/STM32H7xx_HAL_Driver/Src/stm32h7xx_hal_flash_ex.c **** 
 327:../../Drivers/STM32H7xx_HAL_Driver/Src/stm32h7xx_hal_flash_ex.c ****   if (status != HAL_OK)
 328:../../Drivers/STM32H7xx_HAL_Driver/Src/stm32h7xx_hal_flash_ex.c ****   {
 329:../../Drivers/STM32H7xx_HAL_Driver/Src/stm32h7xx_hal_flash_ex.c ****     /* Process Unlocked */
 330:../../Drivers/STM32H7xx_HAL_Driver/Src/stm32h7xx_hal_flash_ex.c ****     __HAL_UNLOCK(&pFlash);
 331:../../Drivers/STM32H7xx_HAL_Driver/Src/stm32h7xx_hal_flash_ex.c ****   }
 332:../../Drivers/STM32H7xx_HAL_Driver/Src/stm32h7xx_hal_flash_ex.c ****   else
 333:../../Drivers/STM32H7xx_HAL_Driver/Src/stm32h7xx_hal_flash_ex.c ****   {
 334:../../Drivers/STM32H7xx_HAL_Driver/Src/stm32h7xx_hal_flash_ex.c ****     if((pEraseInit->Banks & FLASH_BANK_1) == FLASH_BANK_1)
 335:../../Drivers/STM32H7xx_HAL_Driver/Src/stm32h7xx_hal_flash_ex.c ****     {
 336:../../Drivers/STM32H7xx_HAL_Driver/Src/stm32h7xx_hal_flash_ex.c ****       /* Enable End of Operation and Error interrupts for Bank 1 */
 337:../../Drivers/STM32H7xx_HAL_Driver/Src/stm32h7xx_hal_flash_ex.c **** #if defined (FLASH_CR_OPERRIE)
 338:../../Drivers/STM32H7xx_HAL_Driver/Src/stm32h7xx_hal_flash_ex.c ****       __HAL_FLASH_ENABLE_IT_BANK1(FLASH_IT_EOP_BANK1     | FLASH_IT_WRPERR_BANK1 | FLASH_IT_PGSERR_
 339:../../Drivers/STM32H7xx_HAL_Driver/Src/stm32h7xx_hal_flash_ex.c ****                                   FLASH_IT_STRBERR_BANK1 | FLASH_IT_INCERR_BANK1 | FLASH_IT_OPERR_B
 340:../../Drivers/STM32H7xx_HAL_Driver/Src/stm32h7xx_hal_flash_ex.c **** #else
 341:../../Drivers/STM32H7xx_HAL_Driver/Src/stm32h7xx_hal_flash_ex.c ****       __HAL_FLASH_ENABLE_IT_BANK1(FLASH_IT_EOP_BANK1     | FLASH_IT_WRPERR_BANK1 | FLASH_IT_PGSERR_
 342:../../Drivers/STM32H7xx_HAL_Driver/Src/stm32h7xx_hal_flash_ex.c ****                                   FLASH_IT_STRBERR_BANK1 | FLASH_IT_INCERR_BANK1);
 343:../../Drivers/STM32H7xx_HAL_Driver/Src/stm32h7xx_hal_flash_ex.c **** #endif /* FLASH_CR_OPERRIE */
 344:../../Drivers/STM32H7xx_HAL_Driver/Src/stm32h7xx_hal_flash_ex.c ****     }
 345:../../Drivers/STM32H7xx_HAL_Driver/Src/stm32h7xx_hal_flash_ex.c **** #if defined (DUAL_BANK)
 346:../../Drivers/STM32H7xx_HAL_Driver/Src/stm32h7xx_hal_flash_ex.c ****     if((pEraseInit->Banks & FLASH_BANK_2) == FLASH_BANK_2)
 347:../../Drivers/STM32H7xx_HAL_Driver/Src/stm32h7xx_hal_flash_ex.c ****     {
 348:../../Drivers/STM32H7xx_HAL_Driver/Src/stm32h7xx_hal_flash_ex.c ****       /* Enable End of Operation and Error interrupts for Bank 2 */
 349:../../Drivers/STM32H7xx_HAL_Driver/Src/stm32h7xx_hal_flash_ex.c **** #if defined (FLASH_CR_OPERRIE)
 350:../../Drivers/STM32H7xx_HAL_Driver/Src/stm32h7xx_hal_flash_ex.c ****       __HAL_FLASH_ENABLE_IT_BANK2(FLASH_IT_EOP_BANK2     | FLASH_IT_WRPERR_BANK2 | FLASH_IT_PGSERR_
 351:../../Drivers/STM32H7xx_HAL_Driver/Src/stm32h7xx_hal_flash_ex.c ****                                   FLASH_IT_STRBERR_BANK2 | FLASH_IT_INCERR_BANK2 | FLASH_IT_OPERR_B
 352:../../Drivers/STM32H7xx_HAL_Driver/Src/stm32h7xx_hal_flash_ex.c **** #else
 353:../../Drivers/STM32H7xx_HAL_Driver/Src/stm32h7xx_hal_flash_ex.c ****       __HAL_FLASH_ENABLE_IT_BANK2(FLASH_IT_EOP_BANK2     | FLASH_IT_WRPERR_BANK2 | FLASH_IT_PGSERR_
 354:../../Drivers/STM32H7xx_HAL_Driver/Src/stm32h7xx_hal_flash_ex.c ****                                   FLASH_IT_STRBERR_BANK2 | FLASH_IT_INCERR_BANK2);
 355:../../Drivers/STM32H7xx_HAL_Driver/Src/stm32h7xx_hal_flash_ex.c **** #endif /* FLASH_CR_OPERRIE */
 356:../../Drivers/STM32H7xx_HAL_Driver/Src/stm32h7xx_hal_flash_ex.c ****     }
 357:../../Drivers/STM32H7xx_HAL_Driver/Src/stm32h7xx_hal_flash_ex.c **** #endif /* DUAL_BANK */
 358:../../Drivers/STM32H7xx_HAL_Driver/Src/stm32h7xx_hal_flash_ex.c **** 
 359:../../Drivers/STM32H7xx_HAL_Driver/Src/stm32h7xx_hal_flash_ex.c ****     if(pEraseInit->TypeErase == FLASH_TYPEERASE_MASSERASE)
 360:../../Drivers/STM32H7xx_HAL_Driver/Src/stm32h7xx_hal_flash_ex.c ****     {
 361:../../Drivers/STM32H7xx_HAL_Driver/Src/stm32h7xx_hal_flash_ex.c ****       /*Mass erase to be done*/
 362:../../Drivers/STM32H7xx_HAL_Driver/Src/stm32h7xx_hal_flash_ex.c ****       if(pEraseInit->Banks == FLASH_BANK_1)
 363:../../Drivers/STM32H7xx_HAL_Driver/Src/stm32h7xx_hal_flash_ex.c ****       {
 364:../../Drivers/STM32H7xx_HAL_Driver/Src/stm32h7xx_hal_flash_ex.c ****         pFlash.ProcedureOnGoing = FLASH_PROC_MASSERASE_BANK1;
 365:../../Drivers/STM32H7xx_HAL_Driver/Src/stm32h7xx_hal_flash_ex.c ****       }
 366:../../Drivers/STM32H7xx_HAL_Driver/Src/stm32h7xx_hal_flash_ex.c **** #if defined (DUAL_BANK)
 367:../../Drivers/STM32H7xx_HAL_Driver/Src/stm32h7xx_hal_flash_ex.c ****       else if(pEraseInit->Banks == FLASH_BANK_2)
 368:../../Drivers/STM32H7xx_HAL_Driver/Src/stm32h7xx_hal_flash_ex.c ****       {
 369:../../Drivers/STM32H7xx_HAL_Driver/Src/stm32h7xx_hal_flash_ex.c ****         pFlash.ProcedureOnGoing = FLASH_PROC_MASSERASE_BANK2;
 370:../../Drivers/STM32H7xx_HAL_Driver/Src/stm32h7xx_hal_flash_ex.c ****       }
 371:../../Drivers/STM32H7xx_HAL_Driver/Src/stm32h7xx_hal_flash_ex.c **** #endif /* DUAL_BANK */
 372:../../Drivers/STM32H7xx_HAL_Driver/Src/stm32h7xx_hal_flash_ex.c ****       else
 373:../../Drivers/STM32H7xx_HAL_Driver/Src/stm32h7xx_hal_flash_ex.c ****       {
ARM GAS  /tmp/ccS8U376.s 			page 8


 374:../../Drivers/STM32H7xx_HAL_Driver/Src/stm32h7xx_hal_flash_ex.c ****         pFlash.ProcedureOnGoing = FLASH_PROC_ALLBANK_MASSERASE;
 375:../../Drivers/STM32H7xx_HAL_Driver/Src/stm32h7xx_hal_flash_ex.c ****       }
 376:../../Drivers/STM32H7xx_HAL_Driver/Src/stm32h7xx_hal_flash_ex.c **** 
 377:../../Drivers/STM32H7xx_HAL_Driver/Src/stm32h7xx_hal_flash_ex.c ****       FLASH_MassErase(pEraseInit->VoltageRange, pEraseInit->Banks);
 378:../../Drivers/STM32H7xx_HAL_Driver/Src/stm32h7xx_hal_flash_ex.c ****     }
 379:../../Drivers/STM32H7xx_HAL_Driver/Src/stm32h7xx_hal_flash_ex.c ****     else
 380:../../Drivers/STM32H7xx_HAL_Driver/Src/stm32h7xx_hal_flash_ex.c ****     {
 381:../../Drivers/STM32H7xx_HAL_Driver/Src/stm32h7xx_hal_flash_ex.c ****       /* Erase by sector to be done */
 382:../../Drivers/STM32H7xx_HAL_Driver/Src/stm32h7xx_hal_flash_ex.c **** #if defined (DUAL_BANK)
 383:../../Drivers/STM32H7xx_HAL_Driver/Src/stm32h7xx_hal_flash_ex.c ****       if(pEraseInit->Banks == FLASH_BANK_1)
 384:../../Drivers/STM32H7xx_HAL_Driver/Src/stm32h7xx_hal_flash_ex.c ****       {
 385:../../Drivers/STM32H7xx_HAL_Driver/Src/stm32h7xx_hal_flash_ex.c ****         pFlash.ProcedureOnGoing = FLASH_PROC_SECTERASE_BANK1;
 386:../../Drivers/STM32H7xx_HAL_Driver/Src/stm32h7xx_hal_flash_ex.c ****       }
 387:../../Drivers/STM32H7xx_HAL_Driver/Src/stm32h7xx_hal_flash_ex.c ****       else
 388:../../Drivers/STM32H7xx_HAL_Driver/Src/stm32h7xx_hal_flash_ex.c ****       {
 389:../../Drivers/STM32H7xx_HAL_Driver/Src/stm32h7xx_hal_flash_ex.c ****         pFlash.ProcedureOnGoing = FLASH_PROC_SECTERASE_BANK2;
 390:../../Drivers/STM32H7xx_HAL_Driver/Src/stm32h7xx_hal_flash_ex.c ****       }
 391:../../Drivers/STM32H7xx_HAL_Driver/Src/stm32h7xx_hal_flash_ex.c **** #else
 392:../../Drivers/STM32H7xx_HAL_Driver/Src/stm32h7xx_hal_flash_ex.c ****       pFlash.ProcedureOnGoing = FLASH_PROC_SECTERASE_BANK1;
 393:../../Drivers/STM32H7xx_HAL_Driver/Src/stm32h7xx_hal_flash_ex.c **** #endif /* DUAL_BANK */
 394:../../Drivers/STM32H7xx_HAL_Driver/Src/stm32h7xx_hal_flash_ex.c **** 
 395:../../Drivers/STM32H7xx_HAL_Driver/Src/stm32h7xx_hal_flash_ex.c ****       pFlash.NbSectorsToErase = pEraseInit->NbSectors;
 396:../../Drivers/STM32H7xx_HAL_Driver/Src/stm32h7xx_hal_flash_ex.c ****       pFlash.Sector = pEraseInit->Sector;
 397:../../Drivers/STM32H7xx_HAL_Driver/Src/stm32h7xx_hal_flash_ex.c ****       pFlash.VoltageForErase = pEraseInit->VoltageRange;
 398:../../Drivers/STM32H7xx_HAL_Driver/Src/stm32h7xx_hal_flash_ex.c **** 
 399:../../Drivers/STM32H7xx_HAL_Driver/Src/stm32h7xx_hal_flash_ex.c ****       /* Erase first sector and wait for IT */
 400:../../Drivers/STM32H7xx_HAL_Driver/Src/stm32h7xx_hal_flash_ex.c ****       FLASH_Erase_Sector(pEraseInit->Sector, pEraseInit->Banks, pEraseInit->VoltageRange);
 401:../../Drivers/STM32H7xx_HAL_Driver/Src/stm32h7xx_hal_flash_ex.c ****     }
 402:../../Drivers/STM32H7xx_HAL_Driver/Src/stm32h7xx_hal_flash_ex.c ****   }
 403:../../Drivers/STM32H7xx_HAL_Driver/Src/stm32h7xx_hal_flash_ex.c **** 
 404:../../Drivers/STM32H7xx_HAL_Driver/Src/stm32h7xx_hal_flash_ex.c ****   return status;
 405:../../Drivers/STM32H7xx_HAL_Driver/Src/stm32h7xx_hal_flash_ex.c **** }
 406:../../Drivers/STM32H7xx_HAL_Driver/Src/stm32h7xx_hal_flash_ex.c **** 
 407:../../Drivers/STM32H7xx_HAL_Driver/Src/stm32h7xx_hal_flash_ex.c **** /**
 408:../../Drivers/STM32H7xx_HAL_Driver/Src/stm32h7xx_hal_flash_ex.c ****   * @brief  Program option bytes
 409:../../Drivers/STM32H7xx_HAL_Driver/Src/stm32h7xx_hal_flash_ex.c ****   * @param  pOBInit pointer to an FLASH_OBProgramInitTypeDef structure that
 410:../../Drivers/STM32H7xx_HAL_Driver/Src/stm32h7xx_hal_flash_ex.c ****   *         contains the configuration information for the programming.
 411:../../Drivers/STM32H7xx_HAL_Driver/Src/stm32h7xx_hal_flash_ex.c ****   *
 412:../../Drivers/STM32H7xx_HAL_Driver/Src/stm32h7xx_hal_flash_ex.c ****   * @retval HAL Status
 413:../../Drivers/STM32H7xx_HAL_Driver/Src/stm32h7xx_hal_flash_ex.c ****   */
 414:../../Drivers/STM32H7xx_HAL_Driver/Src/stm32h7xx_hal_flash_ex.c **** HAL_StatusTypeDef HAL_FLASHEx_OBProgram(FLASH_OBProgramInitTypeDef *pOBInit)
 415:../../Drivers/STM32H7xx_HAL_Driver/Src/stm32h7xx_hal_flash_ex.c **** {
 416:../../Drivers/STM32H7xx_HAL_Driver/Src/stm32h7xx_hal_flash_ex.c ****   HAL_StatusTypeDef status;
 417:../../Drivers/STM32H7xx_HAL_Driver/Src/stm32h7xx_hal_flash_ex.c **** 
 418:../../Drivers/STM32H7xx_HAL_Driver/Src/stm32h7xx_hal_flash_ex.c ****   /* Check the parameters */
 419:../../Drivers/STM32H7xx_HAL_Driver/Src/stm32h7xx_hal_flash_ex.c ****   assert_param(IS_OPTIONBYTE(pOBInit->OptionType));
 420:../../Drivers/STM32H7xx_HAL_Driver/Src/stm32h7xx_hal_flash_ex.c **** 
 421:../../Drivers/STM32H7xx_HAL_Driver/Src/stm32h7xx_hal_flash_ex.c ****   /* Process Locked */
 422:../../Drivers/STM32H7xx_HAL_Driver/Src/stm32h7xx_hal_flash_ex.c ****   __HAL_LOCK(&pFlash);
 423:../../Drivers/STM32H7xx_HAL_Driver/Src/stm32h7xx_hal_flash_ex.c **** 
 424:../../Drivers/STM32H7xx_HAL_Driver/Src/stm32h7xx_hal_flash_ex.c ****   /* Reset Error Code */
 425:../../Drivers/STM32H7xx_HAL_Driver/Src/stm32h7xx_hal_flash_ex.c ****   pFlash.ErrorCode = HAL_FLASH_ERROR_NONE;
 426:../../Drivers/STM32H7xx_HAL_Driver/Src/stm32h7xx_hal_flash_ex.c **** 
 427:../../Drivers/STM32H7xx_HAL_Driver/Src/stm32h7xx_hal_flash_ex.c ****   /* Wait for last operation to be completed */
 428:../../Drivers/STM32H7xx_HAL_Driver/Src/stm32h7xx_hal_flash_ex.c ****   if(FLASH_WaitForLastOperation((uint32_t)FLASH_TIMEOUT_VALUE, FLASH_BANK_1) != HAL_OK)
 429:../../Drivers/STM32H7xx_HAL_Driver/Src/stm32h7xx_hal_flash_ex.c ****   {
 430:../../Drivers/STM32H7xx_HAL_Driver/Src/stm32h7xx_hal_flash_ex.c ****     status = HAL_ERROR;
ARM GAS  /tmp/ccS8U376.s 			page 9


 431:../../Drivers/STM32H7xx_HAL_Driver/Src/stm32h7xx_hal_flash_ex.c ****   }
 432:../../Drivers/STM32H7xx_HAL_Driver/Src/stm32h7xx_hal_flash_ex.c **** #if defined (DUAL_BANK)
 433:../../Drivers/STM32H7xx_HAL_Driver/Src/stm32h7xx_hal_flash_ex.c ****   else if(FLASH_WaitForLastOperation((uint32_t)FLASH_TIMEOUT_VALUE, FLASH_BANK_2) != HAL_OK)
 434:../../Drivers/STM32H7xx_HAL_Driver/Src/stm32h7xx_hal_flash_ex.c ****   {
 435:../../Drivers/STM32H7xx_HAL_Driver/Src/stm32h7xx_hal_flash_ex.c ****     status = HAL_ERROR;
 436:../../Drivers/STM32H7xx_HAL_Driver/Src/stm32h7xx_hal_flash_ex.c ****   }
 437:../../Drivers/STM32H7xx_HAL_Driver/Src/stm32h7xx_hal_flash_ex.c **** #endif /* DUAL_BANK */
 438:../../Drivers/STM32H7xx_HAL_Driver/Src/stm32h7xx_hal_flash_ex.c ****   else
 439:../../Drivers/STM32H7xx_HAL_Driver/Src/stm32h7xx_hal_flash_ex.c ****   {
 440:../../Drivers/STM32H7xx_HAL_Driver/Src/stm32h7xx_hal_flash_ex.c ****     status = HAL_OK;
 441:../../Drivers/STM32H7xx_HAL_Driver/Src/stm32h7xx_hal_flash_ex.c ****   }
 442:../../Drivers/STM32H7xx_HAL_Driver/Src/stm32h7xx_hal_flash_ex.c **** 
 443:../../Drivers/STM32H7xx_HAL_Driver/Src/stm32h7xx_hal_flash_ex.c ****   if(status == HAL_OK)
 444:../../Drivers/STM32H7xx_HAL_Driver/Src/stm32h7xx_hal_flash_ex.c ****   {
 445:../../Drivers/STM32H7xx_HAL_Driver/Src/stm32h7xx_hal_flash_ex.c ****     /*Write protection configuration*/
 446:../../Drivers/STM32H7xx_HAL_Driver/Src/stm32h7xx_hal_flash_ex.c ****     if((pOBInit->OptionType & OPTIONBYTE_WRP) == OPTIONBYTE_WRP)
 447:../../Drivers/STM32H7xx_HAL_Driver/Src/stm32h7xx_hal_flash_ex.c ****     {
 448:../../Drivers/STM32H7xx_HAL_Driver/Src/stm32h7xx_hal_flash_ex.c ****       assert_param(IS_WRPSTATE(pOBInit->WRPState));
 449:../../Drivers/STM32H7xx_HAL_Driver/Src/stm32h7xx_hal_flash_ex.c **** 
 450:../../Drivers/STM32H7xx_HAL_Driver/Src/stm32h7xx_hal_flash_ex.c ****       if(pOBInit->WRPState == OB_WRPSTATE_ENABLE)
 451:../../Drivers/STM32H7xx_HAL_Driver/Src/stm32h7xx_hal_flash_ex.c ****       {
 452:../../Drivers/STM32H7xx_HAL_Driver/Src/stm32h7xx_hal_flash_ex.c ****         /*Enable of Write protection on the selected Sector*/
 453:../../Drivers/STM32H7xx_HAL_Driver/Src/stm32h7xx_hal_flash_ex.c ****         FLASH_OB_EnableWRP(pOBInit->WRPSector,pOBInit->Banks);
 454:../../Drivers/STM32H7xx_HAL_Driver/Src/stm32h7xx_hal_flash_ex.c ****       }
 455:../../Drivers/STM32H7xx_HAL_Driver/Src/stm32h7xx_hal_flash_ex.c ****       else
 456:../../Drivers/STM32H7xx_HAL_Driver/Src/stm32h7xx_hal_flash_ex.c ****       {
 457:../../Drivers/STM32H7xx_HAL_Driver/Src/stm32h7xx_hal_flash_ex.c ****         /*Disable of Write protection on the selected Sector*/
 458:../../Drivers/STM32H7xx_HAL_Driver/Src/stm32h7xx_hal_flash_ex.c ****         FLASH_OB_DisableWRP(pOBInit->WRPSector, pOBInit->Banks);
 459:../../Drivers/STM32H7xx_HAL_Driver/Src/stm32h7xx_hal_flash_ex.c ****       }
 460:../../Drivers/STM32H7xx_HAL_Driver/Src/stm32h7xx_hal_flash_ex.c ****     }
 461:../../Drivers/STM32H7xx_HAL_Driver/Src/stm32h7xx_hal_flash_ex.c **** 
 462:../../Drivers/STM32H7xx_HAL_Driver/Src/stm32h7xx_hal_flash_ex.c ****     /* Read protection configuration */
 463:../../Drivers/STM32H7xx_HAL_Driver/Src/stm32h7xx_hal_flash_ex.c ****     if((pOBInit->OptionType & OPTIONBYTE_RDP) != 0U)
 464:../../Drivers/STM32H7xx_HAL_Driver/Src/stm32h7xx_hal_flash_ex.c ****     {
 465:../../Drivers/STM32H7xx_HAL_Driver/Src/stm32h7xx_hal_flash_ex.c ****       /* Configure the Read protection level */
 466:../../Drivers/STM32H7xx_HAL_Driver/Src/stm32h7xx_hal_flash_ex.c ****       FLASH_OB_RDPConfig(pOBInit->RDPLevel);
 467:../../Drivers/STM32H7xx_HAL_Driver/Src/stm32h7xx_hal_flash_ex.c ****     }
 468:../../Drivers/STM32H7xx_HAL_Driver/Src/stm32h7xx_hal_flash_ex.c **** 
 469:../../Drivers/STM32H7xx_HAL_Driver/Src/stm32h7xx_hal_flash_ex.c ****     /* User Configuration */
 470:../../Drivers/STM32H7xx_HAL_Driver/Src/stm32h7xx_hal_flash_ex.c ****     if((pOBInit->OptionType & OPTIONBYTE_USER) != 0U)
 471:../../Drivers/STM32H7xx_HAL_Driver/Src/stm32h7xx_hal_flash_ex.c ****     {
 472:../../Drivers/STM32H7xx_HAL_Driver/Src/stm32h7xx_hal_flash_ex.c ****       /* Configure the user option bytes */
 473:../../Drivers/STM32H7xx_HAL_Driver/Src/stm32h7xx_hal_flash_ex.c ****       FLASH_OB_UserConfig(pOBInit->USERType, pOBInit->USERConfig);
 474:../../Drivers/STM32H7xx_HAL_Driver/Src/stm32h7xx_hal_flash_ex.c ****     }
 475:../../Drivers/STM32H7xx_HAL_Driver/Src/stm32h7xx_hal_flash_ex.c **** 
 476:../../Drivers/STM32H7xx_HAL_Driver/Src/stm32h7xx_hal_flash_ex.c ****     /* PCROP Configuration */
 477:../../Drivers/STM32H7xx_HAL_Driver/Src/stm32h7xx_hal_flash_ex.c ****     if((pOBInit->OptionType & OPTIONBYTE_PCROP) != 0U)
 478:../../Drivers/STM32H7xx_HAL_Driver/Src/stm32h7xx_hal_flash_ex.c ****     {
 479:../../Drivers/STM32H7xx_HAL_Driver/Src/stm32h7xx_hal_flash_ex.c ****       assert_param(IS_FLASH_BANK(pOBInit->Banks));
 480:../../Drivers/STM32H7xx_HAL_Driver/Src/stm32h7xx_hal_flash_ex.c **** 
 481:../../Drivers/STM32H7xx_HAL_Driver/Src/stm32h7xx_hal_flash_ex.c ****       /*Configure the Proprietary code readout protection */
 482:../../Drivers/STM32H7xx_HAL_Driver/Src/stm32h7xx_hal_flash_ex.c ****       FLASH_OB_PCROPConfig(pOBInit->PCROPConfig, pOBInit->PCROPStartAddr, pOBInit->PCROPEndAddr, pO
 483:../../Drivers/STM32H7xx_HAL_Driver/Src/stm32h7xx_hal_flash_ex.c ****     }
 484:../../Drivers/STM32H7xx_HAL_Driver/Src/stm32h7xx_hal_flash_ex.c **** 
 485:../../Drivers/STM32H7xx_HAL_Driver/Src/stm32h7xx_hal_flash_ex.c ****     /* BOR Level configuration */
 486:../../Drivers/STM32H7xx_HAL_Driver/Src/stm32h7xx_hal_flash_ex.c ****     if((pOBInit->OptionType & OPTIONBYTE_BOR) == OPTIONBYTE_BOR)
 487:../../Drivers/STM32H7xx_HAL_Driver/Src/stm32h7xx_hal_flash_ex.c ****     {
ARM GAS  /tmp/ccS8U376.s 			page 10


 488:../../Drivers/STM32H7xx_HAL_Driver/Src/stm32h7xx_hal_flash_ex.c ****       FLASH_OB_BOR_LevelConfig(pOBInit->BORLevel);
 489:../../Drivers/STM32H7xx_HAL_Driver/Src/stm32h7xx_hal_flash_ex.c ****     }
 490:../../Drivers/STM32H7xx_HAL_Driver/Src/stm32h7xx_hal_flash_ex.c **** 
 491:../../Drivers/STM32H7xx_HAL_Driver/Src/stm32h7xx_hal_flash_ex.c **** #if defined(DUAL_CORE)
 492:../../Drivers/STM32H7xx_HAL_Driver/Src/stm32h7xx_hal_flash_ex.c ****     /* CM7 Boot Address  configuration */
 493:../../Drivers/STM32H7xx_HAL_Driver/Src/stm32h7xx_hal_flash_ex.c ****     if((pOBInit->OptionType & OPTIONBYTE_CM7_BOOTADD) == OPTIONBYTE_CM7_BOOTADD)
 494:../../Drivers/STM32H7xx_HAL_Driver/Src/stm32h7xx_hal_flash_ex.c ****     {
 495:../../Drivers/STM32H7xx_HAL_Driver/Src/stm32h7xx_hal_flash_ex.c ****       FLASH_OB_BootAddConfig(pOBInit->BootConfig, pOBInit->BootAddr0, pOBInit->BootAddr1);
 496:../../Drivers/STM32H7xx_HAL_Driver/Src/stm32h7xx_hal_flash_ex.c ****     }
 497:../../Drivers/STM32H7xx_HAL_Driver/Src/stm32h7xx_hal_flash_ex.c **** 
 498:../../Drivers/STM32H7xx_HAL_Driver/Src/stm32h7xx_hal_flash_ex.c ****     /* CM4 Boot Address  configuration */
 499:../../Drivers/STM32H7xx_HAL_Driver/Src/stm32h7xx_hal_flash_ex.c ****     if((pOBInit->OptionType & OPTIONBYTE_CM4_BOOTADD) == OPTIONBYTE_CM4_BOOTADD)
 500:../../Drivers/STM32H7xx_HAL_Driver/Src/stm32h7xx_hal_flash_ex.c ****     {
 501:../../Drivers/STM32H7xx_HAL_Driver/Src/stm32h7xx_hal_flash_ex.c ****       FLASH_OB_CM4BootAddConfig(pOBInit->CM4BootConfig, pOBInit->CM4BootAddr0, pOBInit->CM4BootAddr
 502:../../Drivers/STM32H7xx_HAL_Driver/Src/stm32h7xx_hal_flash_ex.c ****     }
 503:../../Drivers/STM32H7xx_HAL_Driver/Src/stm32h7xx_hal_flash_ex.c **** #else /* Single Core*/
 504:../../Drivers/STM32H7xx_HAL_Driver/Src/stm32h7xx_hal_flash_ex.c ****     /* Boot Address  configuration */
 505:../../Drivers/STM32H7xx_HAL_Driver/Src/stm32h7xx_hal_flash_ex.c ****     if((pOBInit->OptionType & OPTIONBYTE_BOOTADD) == OPTIONBYTE_BOOTADD)
 506:../../Drivers/STM32H7xx_HAL_Driver/Src/stm32h7xx_hal_flash_ex.c ****     {
 507:../../Drivers/STM32H7xx_HAL_Driver/Src/stm32h7xx_hal_flash_ex.c ****       FLASH_OB_BootAddConfig(pOBInit->BootConfig, pOBInit->BootAddr0, pOBInit->BootAddr1);
 508:../../Drivers/STM32H7xx_HAL_Driver/Src/stm32h7xx_hal_flash_ex.c ****     }
 509:../../Drivers/STM32H7xx_HAL_Driver/Src/stm32h7xx_hal_flash_ex.c **** #endif /*DUAL_CORE*/
 510:../../Drivers/STM32H7xx_HAL_Driver/Src/stm32h7xx_hal_flash_ex.c **** 
 511:../../Drivers/STM32H7xx_HAL_Driver/Src/stm32h7xx_hal_flash_ex.c ****     /* Secure area configuration */
 512:../../Drivers/STM32H7xx_HAL_Driver/Src/stm32h7xx_hal_flash_ex.c ****     if((pOBInit->OptionType & OPTIONBYTE_SECURE_AREA) == OPTIONBYTE_SECURE_AREA)
 513:../../Drivers/STM32H7xx_HAL_Driver/Src/stm32h7xx_hal_flash_ex.c ****     {
 514:../../Drivers/STM32H7xx_HAL_Driver/Src/stm32h7xx_hal_flash_ex.c ****       FLASH_OB_SecureAreaConfig(pOBInit->SecureAreaConfig, pOBInit->SecureAreaStartAddr, pOBInit->S
 515:../../Drivers/STM32H7xx_HAL_Driver/Src/stm32h7xx_hal_flash_ex.c ****     }
 516:../../Drivers/STM32H7xx_HAL_Driver/Src/stm32h7xx_hal_flash_ex.c **** 
 517:../../Drivers/STM32H7xx_HAL_Driver/Src/stm32h7xx_hal_flash_ex.c **** #if defined(FLASH_OTPBL_LOCKBL)
 518:../../Drivers/STM32H7xx_HAL_Driver/Src/stm32h7xx_hal_flash_ex.c ****     /* OTP Block Lock configuration */
 519:../../Drivers/STM32H7xx_HAL_Driver/Src/stm32h7xx_hal_flash_ex.c ****     if((pOBInit->OptionType & OPTIONBYTE_OTP_LOCK) == OPTIONBYTE_OTP_LOCK)
 520:../../Drivers/STM32H7xx_HAL_Driver/Src/stm32h7xx_hal_flash_ex.c ****     {
 521:../../Drivers/STM32H7xx_HAL_Driver/Src/stm32h7xx_hal_flash_ex.c ****       FLASH_OB_OTP_LockConfig(pOBInit->OTPBlockLock);
 522:../../Drivers/STM32H7xx_HAL_Driver/Src/stm32h7xx_hal_flash_ex.c ****     }
 523:../../Drivers/STM32H7xx_HAL_Driver/Src/stm32h7xx_hal_flash_ex.c **** #endif /* FLASH_OTPBL_LOCKBL */
 524:../../Drivers/STM32H7xx_HAL_Driver/Src/stm32h7xx_hal_flash_ex.c **** 
 525:../../Drivers/STM32H7xx_HAL_Driver/Src/stm32h7xx_hal_flash_ex.c **** #if defined(FLASH_OPTSR2_TCM_AXI_SHARED)
 526:../../Drivers/STM32H7xx_HAL_Driver/Src/stm32h7xx_hal_flash_ex.c ****     /* TCM / AXI Shared RAM configuration */
 527:../../Drivers/STM32H7xx_HAL_Driver/Src/stm32h7xx_hal_flash_ex.c ****     if((pOBInit->OptionType & OPTIONBYTE_SHARED_RAM) == OPTIONBYTE_SHARED_RAM)
 528:../../Drivers/STM32H7xx_HAL_Driver/Src/stm32h7xx_hal_flash_ex.c ****     {
 529:../../Drivers/STM32H7xx_HAL_Driver/Src/stm32h7xx_hal_flash_ex.c ****       FLASH_OB_SharedRAM_Config(pOBInit->SharedRamConfig);
 530:../../Drivers/STM32H7xx_HAL_Driver/Src/stm32h7xx_hal_flash_ex.c ****     }
 531:../../Drivers/STM32H7xx_HAL_Driver/Src/stm32h7xx_hal_flash_ex.c **** #endif /* FLASH_OPTSR2_TCM_AXI_SHARED */
 532:../../Drivers/STM32H7xx_HAL_Driver/Src/stm32h7xx_hal_flash_ex.c **** 
 533:../../Drivers/STM32H7xx_HAL_Driver/Src/stm32h7xx_hal_flash_ex.c **** #if defined(FLASH_OPTSR2_CPUFREQ_BOOST)
 534:../../Drivers/STM32H7xx_HAL_Driver/Src/stm32h7xx_hal_flash_ex.c ****     /* CPU Frequency Boost configuration */
 535:../../Drivers/STM32H7xx_HAL_Driver/Src/stm32h7xx_hal_flash_ex.c ****     if((pOBInit->OptionType & OPTIONBYTE_FREQ_BOOST) == OPTIONBYTE_FREQ_BOOST)
 536:../../Drivers/STM32H7xx_HAL_Driver/Src/stm32h7xx_hal_flash_ex.c ****     {
 537:../../Drivers/STM32H7xx_HAL_Driver/Src/stm32h7xx_hal_flash_ex.c ****       FLASH_OB_CPUFreq_BoostConfig(pOBInit->FreqBoostState);
 538:../../Drivers/STM32H7xx_HAL_Driver/Src/stm32h7xx_hal_flash_ex.c ****     }
 539:../../Drivers/STM32H7xx_HAL_Driver/Src/stm32h7xx_hal_flash_ex.c **** #endif /* FLASH_OPTSR2_CPUFREQ_BOOST */
 540:../../Drivers/STM32H7xx_HAL_Driver/Src/stm32h7xx_hal_flash_ex.c ****   }
 541:../../Drivers/STM32H7xx_HAL_Driver/Src/stm32h7xx_hal_flash_ex.c **** 
 542:../../Drivers/STM32H7xx_HAL_Driver/Src/stm32h7xx_hal_flash_ex.c ****   /* Process Unlocked */
 543:../../Drivers/STM32H7xx_HAL_Driver/Src/stm32h7xx_hal_flash_ex.c ****   __HAL_UNLOCK(&pFlash);
 544:../../Drivers/STM32H7xx_HAL_Driver/Src/stm32h7xx_hal_flash_ex.c **** 
ARM GAS  /tmp/ccS8U376.s 			page 11


 545:../../Drivers/STM32H7xx_HAL_Driver/Src/stm32h7xx_hal_flash_ex.c ****   return status;
 546:../../Drivers/STM32H7xx_HAL_Driver/Src/stm32h7xx_hal_flash_ex.c **** }
 547:../../Drivers/STM32H7xx_HAL_Driver/Src/stm32h7xx_hal_flash_ex.c **** 
 548:../../Drivers/STM32H7xx_HAL_Driver/Src/stm32h7xx_hal_flash_ex.c **** /**
 549:../../Drivers/STM32H7xx_HAL_Driver/Src/stm32h7xx_hal_flash_ex.c ****   * @brief Get the Option byte configuration
 550:../../Drivers/STM32H7xx_HAL_Driver/Src/stm32h7xx_hal_flash_ex.c ****   * @param  pOBInit pointer to an FLASH_OBProgramInitTypeDef structure that
 551:../../Drivers/STM32H7xx_HAL_Driver/Src/stm32h7xx_hal_flash_ex.c ****   *         contains the configuration information for the programming.
 552:../../Drivers/STM32H7xx_HAL_Driver/Src/stm32h7xx_hal_flash_ex.c ****   * @note   The parameter Banks of the pOBInit structure must be set exclusively to FLASH_BANK_1 or
 553:../../Drivers/STM32H7xx_HAL_Driver/Src/stm32h7xx_hal_flash_ex.c ****   *         as this parameter is use to get the given Bank WRP, PCROP and secured area configuratio
 554:../../Drivers/STM32H7xx_HAL_Driver/Src/stm32h7xx_hal_flash_ex.c ****   *
 555:../../Drivers/STM32H7xx_HAL_Driver/Src/stm32h7xx_hal_flash_ex.c ****   * @retval None
 556:../../Drivers/STM32H7xx_HAL_Driver/Src/stm32h7xx_hal_flash_ex.c ****   */
 557:../../Drivers/STM32H7xx_HAL_Driver/Src/stm32h7xx_hal_flash_ex.c **** void HAL_FLASHEx_OBGetConfig(FLASH_OBProgramInitTypeDef *pOBInit)
 558:../../Drivers/STM32H7xx_HAL_Driver/Src/stm32h7xx_hal_flash_ex.c **** {
 559:../../Drivers/STM32H7xx_HAL_Driver/Src/stm32h7xx_hal_flash_ex.c ****   pOBInit->OptionType = (OPTIONBYTE_USER | OPTIONBYTE_RDP | OPTIONBYTE_BOR);
 560:../../Drivers/STM32H7xx_HAL_Driver/Src/stm32h7xx_hal_flash_ex.c **** 
 561:../../Drivers/STM32H7xx_HAL_Driver/Src/stm32h7xx_hal_flash_ex.c ****   /* Get Read protection level */
 562:../../Drivers/STM32H7xx_HAL_Driver/Src/stm32h7xx_hal_flash_ex.c ****   pOBInit->RDPLevel = FLASH_OB_GetRDP();
 563:../../Drivers/STM32H7xx_HAL_Driver/Src/stm32h7xx_hal_flash_ex.c **** 
 564:../../Drivers/STM32H7xx_HAL_Driver/Src/stm32h7xx_hal_flash_ex.c ****   /* Get the user option bytes */
 565:../../Drivers/STM32H7xx_HAL_Driver/Src/stm32h7xx_hal_flash_ex.c ****   pOBInit->USERConfig = FLASH_OB_GetUser();
 566:../../Drivers/STM32H7xx_HAL_Driver/Src/stm32h7xx_hal_flash_ex.c **** 
 567:../../Drivers/STM32H7xx_HAL_Driver/Src/stm32h7xx_hal_flash_ex.c ****   /*Get BOR Level*/
 568:../../Drivers/STM32H7xx_HAL_Driver/Src/stm32h7xx_hal_flash_ex.c ****   pOBInit->BORLevel = FLASH_OB_GetBOR();
 569:../../Drivers/STM32H7xx_HAL_Driver/Src/stm32h7xx_hal_flash_ex.c **** 
 570:../../Drivers/STM32H7xx_HAL_Driver/Src/stm32h7xx_hal_flash_ex.c **** #if defined (DUAL_BANK)
 571:../../Drivers/STM32H7xx_HAL_Driver/Src/stm32h7xx_hal_flash_ex.c ****   if ((pOBInit->Banks == FLASH_BANK_1) || (pOBInit->Banks == FLASH_BANK_2))
 572:../../Drivers/STM32H7xx_HAL_Driver/Src/stm32h7xx_hal_flash_ex.c **** #else
 573:../../Drivers/STM32H7xx_HAL_Driver/Src/stm32h7xx_hal_flash_ex.c ****   if (pOBInit->Banks == FLASH_BANK_1)
 574:../../Drivers/STM32H7xx_HAL_Driver/Src/stm32h7xx_hal_flash_ex.c **** #endif /* DUAL_BANK */
 575:../../Drivers/STM32H7xx_HAL_Driver/Src/stm32h7xx_hal_flash_ex.c ****   {
 576:../../Drivers/STM32H7xx_HAL_Driver/Src/stm32h7xx_hal_flash_ex.c ****     pOBInit->OptionType |= (OPTIONBYTE_WRP | OPTIONBYTE_PCROP | OPTIONBYTE_SECURE_AREA);
 577:../../Drivers/STM32H7xx_HAL_Driver/Src/stm32h7xx_hal_flash_ex.c **** 
 578:../../Drivers/STM32H7xx_HAL_Driver/Src/stm32h7xx_hal_flash_ex.c ****     /* Get write protection on the selected area */
 579:../../Drivers/STM32H7xx_HAL_Driver/Src/stm32h7xx_hal_flash_ex.c ****     FLASH_OB_GetWRP(&(pOBInit->WRPState), &(pOBInit->WRPSector), pOBInit->Banks);
 580:../../Drivers/STM32H7xx_HAL_Driver/Src/stm32h7xx_hal_flash_ex.c **** 
 581:../../Drivers/STM32H7xx_HAL_Driver/Src/stm32h7xx_hal_flash_ex.c ****     /* Get the Proprietary code readout protection */
 582:../../Drivers/STM32H7xx_HAL_Driver/Src/stm32h7xx_hal_flash_ex.c ****     FLASH_OB_GetPCROP(&(pOBInit->PCROPConfig), &(pOBInit->PCROPStartAddr), &(pOBInit->PCROPEndAddr)
 583:../../Drivers/STM32H7xx_HAL_Driver/Src/stm32h7xx_hal_flash_ex.c **** 
 584:../../Drivers/STM32H7xx_HAL_Driver/Src/stm32h7xx_hal_flash_ex.c ****     /*Get Bank Secure area*/
 585:../../Drivers/STM32H7xx_HAL_Driver/Src/stm32h7xx_hal_flash_ex.c ****     FLASH_OB_GetSecureArea(&(pOBInit->SecureAreaConfig), &(pOBInit->SecureAreaStartAddr), &(pOBInit
 586:../../Drivers/STM32H7xx_HAL_Driver/Src/stm32h7xx_hal_flash_ex.c ****   }
 587:../../Drivers/STM32H7xx_HAL_Driver/Src/stm32h7xx_hal_flash_ex.c **** 
 588:../../Drivers/STM32H7xx_HAL_Driver/Src/stm32h7xx_hal_flash_ex.c ****   /*Get Boot Address*/
 589:../../Drivers/STM32H7xx_HAL_Driver/Src/stm32h7xx_hal_flash_ex.c ****   FLASH_OB_GetBootAdd(&(pOBInit->BootAddr0), &(pOBInit->BootAddr1));
 590:../../Drivers/STM32H7xx_HAL_Driver/Src/stm32h7xx_hal_flash_ex.c **** #if defined(DUAL_CORE)
 591:../../Drivers/STM32H7xx_HAL_Driver/Src/stm32h7xx_hal_flash_ex.c ****   pOBInit->OptionType |= OPTIONBYTE_CM7_BOOTADD | OPTIONBYTE_CM4_BOOTADD;
 592:../../Drivers/STM32H7xx_HAL_Driver/Src/stm32h7xx_hal_flash_ex.c **** 
 593:../../Drivers/STM32H7xx_HAL_Driver/Src/stm32h7xx_hal_flash_ex.c ****   /*Get CM4 Boot Address*/
 594:../../Drivers/STM32H7xx_HAL_Driver/Src/stm32h7xx_hal_flash_ex.c ****   FLASH_OB_GetCM4BootAdd(&(pOBInit->CM4BootAddr0), &(pOBInit->CM4BootAddr1));
 595:../../Drivers/STM32H7xx_HAL_Driver/Src/stm32h7xx_hal_flash_ex.c **** #else
 596:../../Drivers/STM32H7xx_HAL_Driver/Src/stm32h7xx_hal_flash_ex.c ****   pOBInit->OptionType |= OPTIONBYTE_BOOTADD;
 597:../../Drivers/STM32H7xx_HAL_Driver/Src/stm32h7xx_hal_flash_ex.c **** #endif /*DUAL_CORE*/
 598:../../Drivers/STM32H7xx_HAL_Driver/Src/stm32h7xx_hal_flash_ex.c **** 
 599:../../Drivers/STM32H7xx_HAL_Driver/Src/stm32h7xx_hal_flash_ex.c **** #if defined (FLASH_OTPBL_LOCKBL)
 600:../../Drivers/STM32H7xx_HAL_Driver/Src/stm32h7xx_hal_flash_ex.c ****   pOBInit->OptionType |= OPTIONBYTE_OTP_LOCK;
 601:../../Drivers/STM32H7xx_HAL_Driver/Src/stm32h7xx_hal_flash_ex.c **** 
ARM GAS  /tmp/ccS8U376.s 			page 12


 602:../../Drivers/STM32H7xx_HAL_Driver/Src/stm32h7xx_hal_flash_ex.c ****   /* Get OTP Block Lock */
 603:../../Drivers/STM32H7xx_HAL_Driver/Src/stm32h7xx_hal_flash_ex.c ****   pOBInit->OTPBlockLock = FLASH_OB_OTP_GetLock();
 604:../../Drivers/STM32H7xx_HAL_Driver/Src/stm32h7xx_hal_flash_ex.c **** #endif /* FLASH_OTPBL_LOCKBL */
 605:../../Drivers/STM32H7xx_HAL_Driver/Src/stm32h7xx_hal_flash_ex.c **** 
 606:../../Drivers/STM32H7xx_HAL_Driver/Src/stm32h7xx_hal_flash_ex.c **** #if defined (FLASH_OPTSR2_TCM_AXI_SHARED)
 607:../../Drivers/STM32H7xx_HAL_Driver/Src/stm32h7xx_hal_flash_ex.c ****   pOBInit->OptionType |= OPTIONBYTE_SHARED_RAM;
 608:../../Drivers/STM32H7xx_HAL_Driver/Src/stm32h7xx_hal_flash_ex.c **** 
 609:../../Drivers/STM32H7xx_HAL_Driver/Src/stm32h7xx_hal_flash_ex.c ****   /* Get TCM / AXI Shared RAM */
 610:../../Drivers/STM32H7xx_HAL_Driver/Src/stm32h7xx_hal_flash_ex.c ****   pOBInit->SharedRamConfig = FLASH_OB_SharedRAM_GetConfig();
 611:../../Drivers/STM32H7xx_HAL_Driver/Src/stm32h7xx_hal_flash_ex.c **** #endif /* FLASH_OPTSR2_TCM_AXI_SHARED */
 612:../../Drivers/STM32H7xx_HAL_Driver/Src/stm32h7xx_hal_flash_ex.c **** 
 613:../../Drivers/STM32H7xx_HAL_Driver/Src/stm32h7xx_hal_flash_ex.c **** #if defined (FLASH_OPTSR2_CPUFREQ_BOOST)
 614:../../Drivers/STM32H7xx_HAL_Driver/Src/stm32h7xx_hal_flash_ex.c ****   pOBInit->OptionType |= OPTIONBYTE_FREQ_BOOST;
 615:../../Drivers/STM32H7xx_HAL_Driver/Src/stm32h7xx_hal_flash_ex.c **** 
 616:../../Drivers/STM32H7xx_HAL_Driver/Src/stm32h7xx_hal_flash_ex.c ****   /* Get CPU Frequency Boost */
 617:../../Drivers/STM32H7xx_HAL_Driver/Src/stm32h7xx_hal_flash_ex.c ****   pOBInit->FreqBoostState = FLASH_OB_CPUFreq_GetBoost();
 618:../../Drivers/STM32H7xx_HAL_Driver/Src/stm32h7xx_hal_flash_ex.c **** #endif /* FLASH_OPTSR2_CPUFREQ_BOOST */
 619:../../Drivers/STM32H7xx_HAL_Driver/Src/stm32h7xx_hal_flash_ex.c **** }
 620:../../Drivers/STM32H7xx_HAL_Driver/Src/stm32h7xx_hal_flash_ex.c **** 
 621:../../Drivers/STM32H7xx_HAL_Driver/Src/stm32h7xx_hal_flash_ex.c **** /**
 622:../../Drivers/STM32H7xx_HAL_Driver/Src/stm32h7xx_hal_flash_ex.c ****   * @brief  Unlock the FLASH Bank1 control registers access
 623:../../Drivers/STM32H7xx_HAL_Driver/Src/stm32h7xx_hal_flash_ex.c ****   * @retval HAL Status
 624:../../Drivers/STM32H7xx_HAL_Driver/Src/stm32h7xx_hal_flash_ex.c ****   */
 625:../../Drivers/STM32H7xx_HAL_Driver/Src/stm32h7xx_hal_flash_ex.c **** HAL_StatusTypeDef HAL_FLASHEx_Unlock_Bank1(void)
 626:../../Drivers/STM32H7xx_HAL_Driver/Src/stm32h7xx_hal_flash_ex.c **** {
 627:../../Drivers/STM32H7xx_HAL_Driver/Src/stm32h7xx_hal_flash_ex.c ****   if(READ_BIT(FLASH->CR1, FLASH_CR_LOCK) != 0U)
 628:../../Drivers/STM32H7xx_HAL_Driver/Src/stm32h7xx_hal_flash_ex.c ****   {
 629:../../Drivers/STM32H7xx_HAL_Driver/Src/stm32h7xx_hal_flash_ex.c ****     /* Authorize the FLASH Bank1 Registers access */
 630:../../Drivers/STM32H7xx_HAL_Driver/Src/stm32h7xx_hal_flash_ex.c ****     WRITE_REG(FLASH->KEYR1, FLASH_KEY1);
 631:../../Drivers/STM32H7xx_HAL_Driver/Src/stm32h7xx_hal_flash_ex.c ****     WRITE_REG(FLASH->KEYR1, FLASH_KEY2);
 632:../../Drivers/STM32H7xx_HAL_Driver/Src/stm32h7xx_hal_flash_ex.c **** 
 633:../../Drivers/STM32H7xx_HAL_Driver/Src/stm32h7xx_hal_flash_ex.c ****     /* Verify Flash Bank1 is unlocked */
 634:../../Drivers/STM32H7xx_HAL_Driver/Src/stm32h7xx_hal_flash_ex.c ****     if (READ_BIT(FLASH->CR1, FLASH_CR_LOCK) != 0U)
 635:../../Drivers/STM32H7xx_HAL_Driver/Src/stm32h7xx_hal_flash_ex.c ****     {
 636:../../Drivers/STM32H7xx_HAL_Driver/Src/stm32h7xx_hal_flash_ex.c ****       return HAL_ERROR;
 637:../../Drivers/STM32H7xx_HAL_Driver/Src/stm32h7xx_hal_flash_ex.c ****     }
 638:../../Drivers/STM32H7xx_HAL_Driver/Src/stm32h7xx_hal_flash_ex.c ****   }
 639:../../Drivers/STM32H7xx_HAL_Driver/Src/stm32h7xx_hal_flash_ex.c **** 
 640:../../Drivers/STM32H7xx_HAL_Driver/Src/stm32h7xx_hal_flash_ex.c ****   return HAL_OK;
 641:../../Drivers/STM32H7xx_HAL_Driver/Src/stm32h7xx_hal_flash_ex.c **** }
 642:../../Drivers/STM32H7xx_HAL_Driver/Src/stm32h7xx_hal_flash_ex.c **** 
 643:../../Drivers/STM32H7xx_HAL_Driver/Src/stm32h7xx_hal_flash_ex.c **** /**
 644:../../Drivers/STM32H7xx_HAL_Driver/Src/stm32h7xx_hal_flash_ex.c ****   * @brief  Locks the FLASH Bank1 control registers access
 645:../../Drivers/STM32H7xx_HAL_Driver/Src/stm32h7xx_hal_flash_ex.c ****   * @retval HAL Status
 646:../../Drivers/STM32H7xx_HAL_Driver/Src/stm32h7xx_hal_flash_ex.c ****   */
 647:../../Drivers/STM32H7xx_HAL_Driver/Src/stm32h7xx_hal_flash_ex.c **** HAL_StatusTypeDef HAL_FLASHEx_Lock_Bank1(void)
 648:../../Drivers/STM32H7xx_HAL_Driver/Src/stm32h7xx_hal_flash_ex.c **** {
 649:../../Drivers/STM32H7xx_HAL_Driver/Src/stm32h7xx_hal_flash_ex.c ****   /* Set the LOCK Bit to lock the FLASH Bank1 Registers access */
 650:../../Drivers/STM32H7xx_HAL_Driver/Src/stm32h7xx_hal_flash_ex.c ****   SET_BIT(FLASH->CR1, FLASH_CR_LOCK);
 651:../../Drivers/STM32H7xx_HAL_Driver/Src/stm32h7xx_hal_flash_ex.c ****   return HAL_OK;
 652:../../Drivers/STM32H7xx_HAL_Driver/Src/stm32h7xx_hal_flash_ex.c **** }
 653:../../Drivers/STM32H7xx_HAL_Driver/Src/stm32h7xx_hal_flash_ex.c **** 
 654:../../Drivers/STM32H7xx_HAL_Driver/Src/stm32h7xx_hal_flash_ex.c **** #if defined (DUAL_BANK)
 655:../../Drivers/STM32H7xx_HAL_Driver/Src/stm32h7xx_hal_flash_ex.c **** /**
 656:../../Drivers/STM32H7xx_HAL_Driver/Src/stm32h7xx_hal_flash_ex.c ****   * @brief  Unlock the FLASH Bank2 control registers access
 657:../../Drivers/STM32H7xx_HAL_Driver/Src/stm32h7xx_hal_flash_ex.c ****   * @retval HAL Status
 658:../../Drivers/STM32H7xx_HAL_Driver/Src/stm32h7xx_hal_flash_ex.c ****   */
ARM GAS  /tmp/ccS8U376.s 			page 13


 659:../../Drivers/STM32H7xx_HAL_Driver/Src/stm32h7xx_hal_flash_ex.c **** HAL_StatusTypeDef HAL_FLASHEx_Unlock_Bank2(void)
 660:../../Drivers/STM32H7xx_HAL_Driver/Src/stm32h7xx_hal_flash_ex.c **** {
 661:../../Drivers/STM32H7xx_HAL_Driver/Src/stm32h7xx_hal_flash_ex.c ****   if(READ_BIT(FLASH->CR2, FLASH_CR_LOCK) != 0U)
 662:../../Drivers/STM32H7xx_HAL_Driver/Src/stm32h7xx_hal_flash_ex.c ****   {
 663:../../Drivers/STM32H7xx_HAL_Driver/Src/stm32h7xx_hal_flash_ex.c ****     /* Authorize the FLASH Bank2 Registers access */
 664:../../Drivers/STM32H7xx_HAL_Driver/Src/stm32h7xx_hal_flash_ex.c ****     WRITE_REG(FLASH->KEYR2, FLASH_KEY1);
 665:../../Drivers/STM32H7xx_HAL_Driver/Src/stm32h7xx_hal_flash_ex.c ****     WRITE_REG(FLASH->KEYR2, FLASH_KEY2);
 666:../../Drivers/STM32H7xx_HAL_Driver/Src/stm32h7xx_hal_flash_ex.c **** 
 667:../../Drivers/STM32H7xx_HAL_Driver/Src/stm32h7xx_hal_flash_ex.c ****     /* Verify Flash Bank1 is unlocked */
 668:../../Drivers/STM32H7xx_HAL_Driver/Src/stm32h7xx_hal_flash_ex.c ****     if (READ_BIT(FLASH->CR2, FLASH_CR_LOCK) != 0U)
 669:../../Drivers/STM32H7xx_HAL_Driver/Src/stm32h7xx_hal_flash_ex.c ****     {
 670:../../Drivers/STM32H7xx_HAL_Driver/Src/stm32h7xx_hal_flash_ex.c ****       return HAL_ERROR;
 671:../../Drivers/STM32H7xx_HAL_Driver/Src/stm32h7xx_hal_flash_ex.c ****     }
 672:../../Drivers/STM32H7xx_HAL_Driver/Src/stm32h7xx_hal_flash_ex.c ****   }
 673:../../Drivers/STM32H7xx_HAL_Driver/Src/stm32h7xx_hal_flash_ex.c **** 
 674:../../Drivers/STM32H7xx_HAL_Driver/Src/stm32h7xx_hal_flash_ex.c ****   return HAL_OK;
 675:../../Drivers/STM32H7xx_HAL_Driver/Src/stm32h7xx_hal_flash_ex.c **** }
 676:../../Drivers/STM32H7xx_HAL_Driver/Src/stm32h7xx_hal_flash_ex.c **** 
 677:../../Drivers/STM32H7xx_HAL_Driver/Src/stm32h7xx_hal_flash_ex.c **** /**
 678:../../Drivers/STM32H7xx_HAL_Driver/Src/stm32h7xx_hal_flash_ex.c ****   * @brief  Locks the FLASH Bank2 control registers access
 679:../../Drivers/STM32H7xx_HAL_Driver/Src/stm32h7xx_hal_flash_ex.c ****   * @retval HAL Status
 680:../../Drivers/STM32H7xx_HAL_Driver/Src/stm32h7xx_hal_flash_ex.c ****   */
 681:../../Drivers/STM32H7xx_HAL_Driver/Src/stm32h7xx_hal_flash_ex.c **** HAL_StatusTypeDef HAL_FLASHEx_Lock_Bank2(void)
 682:../../Drivers/STM32H7xx_HAL_Driver/Src/stm32h7xx_hal_flash_ex.c **** {
 683:../../Drivers/STM32H7xx_HAL_Driver/Src/stm32h7xx_hal_flash_ex.c ****   /* Set the LOCK Bit to lock the FLASH Bank2 Registers access */
 684:../../Drivers/STM32H7xx_HAL_Driver/Src/stm32h7xx_hal_flash_ex.c ****   SET_BIT(FLASH->CR2, FLASH_CR_LOCK);
 685:../../Drivers/STM32H7xx_HAL_Driver/Src/stm32h7xx_hal_flash_ex.c ****   return HAL_OK;
 686:../../Drivers/STM32H7xx_HAL_Driver/Src/stm32h7xx_hal_flash_ex.c **** }
 687:../../Drivers/STM32H7xx_HAL_Driver/Src/stm32h7xx_hal_flash_ex.c **** #endif /* DUAL_BANK */
 688:../../Drivers/STM32H7xx_HAL_Driver/Src/stm32h7xx_hal_flash_ex.c **** 
 689:../../Drivers/STM32H7xx_HAL_Driver/Src/stm32h7xx_hal_flash_ex.c **** /*
 690:../../Drivers/STM32H7xx_HAL_Driver/Src/stm32h7xx_hal_flash_ex.c ****   * @brief  Perform a CRC computation on the specified FLASH memory area
 691:../../Drivers/STM32H7xx_HAL_Driver/Src/stm32h7xx_hal_flash_ex.c ****   * @param  pCRCInit pointer to an FLASH_CRCInitTypeDef structure that
 692:../../Drivers/STM32H7xx_HAL_Driver/Src/stm32h7xx_hal_flash_ex.c ****   *         contains the configuration information for the CRC computation.
 693:../../Drivers/STM32H7xx_HAL_Driver/Src/stm32h7xx_hal_flash_ex.c ****   * @note   CRC computation uses CRC-32 (Ethernet) polynomial 0x4C11DB7
 694:../../Drivers/STM32H7xx_HAL_Driver/Src/stm32h7xx_hal_flash_ex.c ****   * @note   The application should avoid running a CRC on PCROP or secure-only
 695:../../Drivers/STM32H7xx_HAL_Driver/Src/stm32h7xx_hal_flash_ex.c ****   *         user Flash memory area since it may alter the expected CRC value.
 696:../../Drivers/STM32H7xx_HAL_Driver/Src/stm32h7xx_hal_flash_ex.c ****   *         A special error flag (CRC read error: CRCRDERR) can be used to
 697:../../Drivers/STM32H7xx_HAL_Driver/Src/stm32h7xx_hal_flash_ex.c ****   *         detect such a case.
 698:../../Drivers/STM32H7xx_HAL_Driver/Src/stm32h7xx_hal_flash_ex.c ****   * @retval HAL Status
 699:../../Drivers/STM32H7xx_HAL_Driver/Src/stm32h7xx_hal_flash_ex.c **** */
 700:../../Drivers/STM32H7xx_HAL_Driver/Src/stm32h7xx_hal_flash_ex.c **** HAL_StatusTypeDef HAL_FLASHEx_ComputeCRC(FLASH_CRCInitTypeDef *pCRCInit, uint32_t *CRC_Result)
 701:../../Drivers/STM32H7xx_HAL_Driver/Src/stm32h7xx_hal_flash_ex.c **** {
 702:../../Drivers/STM32H7xx_HAL_Driver/Src/stm32h7xx_hal_flash_ex.c ****   HAL_StatusTypeDef status;
 703:../../Drivers/STM32H7xx_HAL_Driver/Src/stm32h7xx_hal_flash_ex.c ****   uint32_t sector_index;
 704:../../Drivers/STM32H7xx_HAL_Driver/Src/stm32h7xx_hal_flash_ex.c **** 
 705:../../Drivers/STM32H7xx_HAL_Driver/Src/stm32h7xx_hal_flash_ex.c ****   /* Check the parameters */
 706:../../Drivers/STM32H7xx_HAL_Driver/Src/stm32h7xx_hal_flash_ex.c ****   assert_param(IS_FLASH_BANK_EXCLUSIVE(pCRCInit->Bank));
 707:../../Drivers/STM32H7xx_HAL_Driver/Src/stm32h7xx_hal_flash_ex.c ****   assert_param(IS_FLASH_TYPECRC(pCRCInit->TypeCRC));
 708:../../Drivers/STM32H7xx_HAL_Driver/Src/stm32h7xx_hal_flash_ex.c **** 
 709:../../Drivers/STM32H7xx_HAL_Driver/Src/stm32h7xx_hal_flash_ex.c ****   /* Wait for OB change operation to be completed */
 710:../../Drivers/STM32H7xx_HAL_Driver/Src/stm32h7xx_hal_flash_ex.c ****   status = FLASH_OB_WaitForLastOperation((uint32_t)FLASH_TIMEOUT_VALUE);
 711:../../Drivers/STM32H7xx_HAL_Driver/Src/stm32h7xx_hal_flash_ex.c **** 
 712:../../Drivers/STM32H7xx_HAL_Driver/Src/stm32h7xx_hal_flash_ex.c ****   if (status == HAL_OK)
 713:../../Drivers/STM32H7xx_HAL_Driver/Src/stm32h7xx_hal_flash_ex.c ****   {
 714:../../Drivers/STM32H7xx_HAL_Driver/Src/stm32h7xx_hal_flash_ex.c ****     if (pCRCInit->Bank == FLASH_BANK_1)
 715:../../Drivers/STM32H7xx_HAL_Driver/Src/stm32h7xx_hal_flash_ex.c ****     {
ARM GAS  /tmp/ccS8U376.s 			page 14


 716:../../Drivers/STM32H7xx_HAL_Driver/Src/stm32h7xx_hal_flash_ex.c ****       /* Enable CRC feature */
 717:../../Drivers/STM32H7xx_HAL_Driver/Src/stm32h7xx_hal_flash_ex.c ****       FLASH->CR1 |= FLASH_CR_CRC_EN;
 718:../../Drivers/STM32H7xx_HAL_Driver/Src/stm32h7xx_hal_flash_ex.c **** 
 719:../../Drivers/STM32H7xx_HAL_Driver/Src/stm32h7xx_hal_flash_ex.c ****       /* Clear CRC flags in Status Register: CRC end of calculation and CRC read error */
 720:../../Drivers/STM32H7xx_HAL_Driver/Src/stm32h7xx_hal_flash_ex.c ****       FLASH->CCR1 |= (FLASH_CCR_CLR_CRCEND | FLASH_CCR_CLR_CRCRDERR);
 721:../../Drivers/STM32H7xx_HAL_Driver/Src/stm32h7xx_hal_flash_ex.c **** 
 722:../../Drivers/STM32H7xx_HAL_Driver/Src/stm32h7xx_hal_flash_ex.c ****       /* Clear current CRC result, program burst size and define memory area on which CRC has to be
 723:../../Drivers/STM32H7xx_HAL_Driver/Src/stm32h7xx_hal_flash_ex.c ****       FLASH->CRCCR1 |= FLASH_CRCCR_CLEAN_CRC | pCRCInit->BurstSize | pCRCInit->TypeCRC;
 724:../../Drivers/STM32H7xx_HAL_Driver/Src/stm32h7xx_hal_flash_ex.c **** 
 725:../../Drivers/STM32H7xx_HAL_Driver/Src/stm32h7xx_hal_flash_ex.c ****       if (pCRCInit->TypeCRC == FLASH_CRC_SECTORS)
 726:../../Drivers/STM32H7xx_HAL_Driver/Src/stm32h7xx_hal_flash_ex.c ****       {
 727:../../Drivers/STM32H7xx_HAL_Driver/Src/stm32h7xx_hal_flash_ex.c ****         /* Clear sectors list */
 728:../../Drivers/STM32H7xx_HAL_Driver/Src/stm32h7xx_hal_flash_ex.c ****         FLASH->CRCCR1 |= FLASH_CRCCR_CLEAN_SECT;
 729:../../Drivers/STM32H7xx_HAL_Driver/Src/stm32h7xx_hal_flash_ex.c **** 
 730:../../Drivers/STM32H7xx_HAL_Driver/Src/stm32h7xx_hal_flash_ex.c ****         /* Select CRC sectors */
 731:../../Drivers/STM32H7xx_HAL_Driver/Src/stm32h7xx_hal_flash_ex.c ****         for(sector_index = pCRCInit->Sector; sector_index < (pCRCInit->NbSectors + pCRCInit->Sector
 732:../../Drivers/STM32H7xx_HAL_Driver/Src/stm32h7xx_hal_flash_ex.c ****         {
 733:../../Drivers/STM32H7xx_HAL_Driver/Src/stm32h7xx_hal_flash_ex.c ****           FLASH_CRC_AddSector(sector_index, FLASH_BANK_1);
 734:../../Drivers/STM32H7xx_HAL_Driver/Src/stm32h7xx_hal_flash_ex.c ****         }
 735:../../Drivers/STM32H7xx_HAL_Driver/Src/stm32h7xx_hal_flash_ex.c ****       }
 736:../../Drivers/STM32H7xx_HAL_Driver/Src/stm32h7xx_hal_flash_ex.c ****       else if (pCRCInit->TypeCRC == FLASH_CRC_BANK)
 737:../../Drivers/STM32H7xx_HAL_Driver/Src/stm32h7xx_hal_flash_ex.c ****       {
 738:../../Drivers/STM32H7xx_HAL_Driver/Src/stm32h7xx_hal_flash_ex.c ****         /* Enable Bank 1 CRC select bit */
 739:../../Drivers/STM32H7xx_HAL_Driver/Src/stm32h7xx_hal_flash_ex.c ****         FLASH->CRCCR1 |= FLASH_CRCCR_ALL_BANK;
 740:../../Drivers/STM32H7xx_HAL_Driver/Src/stm32h7xx_hal_flash_ex.c ****       }
 741:../../Drivers/STM32H7xx_HAL_Driver/Src/stm32h7xx_hal_flash_ex.c ****       else
 742:../../Drivers/STM32H7xx_HAL_Driver/Src/stm32h7xx_hal_flash_ex.c ****       {
 743:../../Drivers/STM32H7xx_HAL_Driver/Src/stm32h7xx_hal_flash_ex.c ****         /* Select CRC start and end addresses */
 744:../../Drivers/STM32H7xx_HAL_Driver/Src/stm32h7xx_hal_flash_ex.c ****         FLASH_CRC_SelectAddress(pCRCInit->CRCStartAddr, pCRCInit->CRCEndAddr, FLASH_BANK_1);
 745:../../Drivers/STM32H7xx_HAL_Driver/Src/stm32h7xx_hal_flash_ex.c ****       }
 746:../../Drivers/STM32H7xx_HAL_Driver/Src/stm32h7xx_hal_flash_ex.c **** 
 747:../../Drivers/STM32H7xx_HAL_Driver/Src/stm32h7xx_hal_flash_ex.c ****       /* Start the CRC calculation */
 748:../../Drivers/STM32H7xx_HAL_Driver/Src/stm32h7xx_hal_flash_ex.c ****       FLASH->CRCCR1 |= FLASH_CRCCR_START_CRC;
 749:../../Drivers/STM32H7xx_HAL_Driver/Src/stm32h7xx_hal_flash_ex.c **** 
 750:../../Drivers/STM32H7xx_HAL_Driver/Src/stm32h7xx_hal_flash_ex.c ****       /* Wait on CRC busy flag */
 751:../../Drivers/STM32H7xx_HAL_Driver/Src/stm32h7xx_hal_flash_ex.c ****       status = FLASH_CRC_WaitForLastOperation((uint32_t)FLASH_TIMEOUT_VALUE, FLASH_BANK_1);
 752:../../Drivers/STM32H7xx_HAL_Driver/Src/stm32h7xx_hal_flash_ex.c **** 
 753:../../Drivers/STM32H7xx_HAL_Driver/Src/stm32h7xx_hal_flash_ex.c ****       /* Return CRC result */
 754:../../Drivers/STM32H7xx_HAL_Driver/Src/stm32h7xx_hal_flash_ex.c ****       (*CRC_Result) = FLASH->CRCDATA;
 755:../../Drivers/STM32H7xx_HAL_Driver/Src/stm32h7xx_hal_flash_ex.c **** 
 756:../../Drivers/STM32H7xx_HAL_Driver/Src/stm32h7xx_hal_flash_ex.c ****       /* Disable CRC feature */
 757:../../Drivers/STM32H7xx_HAL_Driver/Src/stm32h7xx_hal_flash_ex.c ****       FLASH->CR1 &= (~FLASH_CR_CRC_EN);
 758:../../Drivers/STM32H7xx_HAL_Driver/Src/stm32h7xx_hal_flash_ex.c **** 
 759:../../Drivers/STM32H7xx_HAL_Driver/Src/stm32h7xx_hal_flash_ex.c ****       /* Clear CRC flags */
 760:../../Drivers/STM32H7xx_HAL_Driver/Src/stm32h7xx_hal_flash_ex.c ****       __HAL_FLASH_CLEAR_FLAG_BANK1(FLASH_FLAG_CRCEND_BANK1 | FLASH_FLAG_CRCRDERR_BANK1);
 761:../../Drivers/STM32H7xx_HAL_Driver/Src/stm32h7xx_hal_flash_ex.c ****     }
 762:../../Drivers/STM32H7xx_HAL_Driver/Src/stm32h7xx_hal_flash_ex.c **** #if defined (DUAL_BANK)
 763:../../Drivers/STM32H7xx_HAL_Driver/Src/stm32h7xx_hal_flash_ex.c ****     else
 764:../../Drivers/STM32H7xx_HAL_Driver/Src/stm32h7xx_hal_flash_ex.c ****     {
 765:../../Drivers/STM32H7xx_HAL_Driver/Src/stm32h7xx_hal_flash_ex.c ****       /* Enable CRC feature */
 766:../../Drivers/STM32H7xx_HAL_Driver/Src/stm32h7xx_hal_flash_ex.c ****       FLASH->CR2 |= FLASH_CR_CRC_EN;
 767:../../Drivers/STM32H7xx_HAL_Driver/Src/stm32h7xx_hal_flash_ex.c **** 
 768:../../Drivers/STM32H7xx_HAL_Driver/Src/stm32h7xx_hal_flash_ex.c ****       /* Clear CRC flags in Status Register: CRC end of calculation and CRC read error */
 769:../../Drivers/STM32H7xx_HAL_Driver/Src/stm32h7xx_hal_flash_ex.c ****       FLASH->CCR2 |= (FLASH_CCR_CLR_CRCEND | FLASH_CCR_CLR_CRCRDERR);
 770:../../Drivers/STM32H7xx_HAL_Driver/Src/stm32h7xx_hal_flash_ex.c **** 
 771:../../Drivers/STM32H7xx_HAL_Driver/Src/stm32h7xx_hal_flash_ex.c ****       /* Clear current CRC result, program burst size and define memory area on which CRC has to be
 772:../../Drivers/STM32H7xx_HAL_Driver/Src/stm32h7xx_hal_flash_ex.c ****       FLASH->CRCCR2 |= FLASH_CRCCR_CLEAN_CRC | pCRCInit->BurstSize | pCRCInit->TypeCRC;
ARM GAS  /tmp/ccS8U376.s 			page 15


 773:../../Drivers/STM32H7xx_HAL_Driver/Src/stm32h7xx_hal_flash_ex.c **** 
 774:../../Drivers/STM32H7xx_HAL_Driver/Src/stm32h7xx_hal_flash_ex.c ****       if (pCRCInit->TypeCRC == FLASH_CRC_SECTORS)
 775:../../Drivers/STM32H7xx_HAL_Driver/Src/stm32h7xx_hal_flash_ex.c ****       {
 776:../../Drivers/STM32H7xx_HAL_Driver/Src/stm32h7xx_hal_flash_ex.c ****         /* Clear sectors list */
 777:../../Drivers/STM32H7xx_HAL_Driver/Src/stm32h7xx_hal_flash_ex.c ****         FLASH->CRCCR2 |= FLASH_CRCCR_CLEAN_SECT;
 778:../../Drivers/STM32H7xx_HAL_Driver/Src/stm32h7xx_hal_flash_ex.c **** 
 779:../../Drivers/STM32H7xx_HAL_Driver/Src/stm32h7xx_hal_flash_ex.c ****         /* Add CRC sectors */
 780:../../Drivers/STM32H7xx_HAL_Driver/Src/stm32h7xx_hal_flash_ex.c ****         for(sector_index = pCRCInit->Sector; sector_index < (pCRCInit->NbSectors + pCRCInit->Sector
 781:../../Drivers/STM32H7xx_HAL_Driver/Src/stm32h7xx_hal_flash_ex.c ****         {
 782:../../Drivers/STM32H7xx_HAL_Driver/Src/stm32h7xx_hal_flash_ex.c ****           FLASH_CRC_AddSector(sector_index, FLASH_BANK_2);
 783:../../Drivers/STM32H7xx_HAL_Driver/Src/stm32h7xx_hal_flash_ex.c ****         }
 784:../../Drivers/STM32H7xx_HAL_Driver/Src/stm32h7xx_hal_flash_ex.c ****       }
 785:../../Drivers/STM32H7xx_HAL_Driver/Src/stm32h7xx_hal_flash_ex.c ****       else if (pCRCInit->TypeCRC == FLASH_CRC_BANK)
 786:../../Drivers/STM32H7xx_HAL_Driver/Src/stm32h7xx_hal_flash_ex.c ****       {
 787:../../Drivers/STM32H7xx_HAL_Driver/Src/stm32h7xx_hal_flash_ex.c ****         /* Enable Bank 2 CRC select bit */
 788:../../Drivers/STM32H7xx_HAL_Driver/Src/stm32h7xx_hal_flash_ex.c ****         FLASH->CRCCR2 |= FLASH_CRCCR_ALL_BANK;
 789:../../Drivers/STM32H7xx_HAL_Driver/Src/stm32h7xx_hal_flash_ex.c ****       }
 790:../../Drivers/STM32H7xx_HAL_Driver/Src/stm32h7xx_hal_flash_ex.c ****       else
 791:../../Drivers/STM32H7xx_HAL_Driver/Src/stm32h7xx_hal_flash_ex.c ****       {
 792:../../Drivers/STM32H7xx_HAL_Driver/Src/stm32h7xx_hal_flash_ex.c ****         /* Select CRC start and end addresses */
 793:../../Drivers/STM32H7xx_HAL_Driver/Src/stm32h7xx_hal_flash_ex.c ****         FLASH_CRC_SelectAddress(pCRCInit->CRCStartAddr, pCRCInit->CRCEndAddr, FLASH_BANK_2);
 794:../../Drivers/STM32H7xx_HAL_Driver/Src/stm32h7xx_hal_flash_ex.c ****       }
 795:../../Drivers/STM32H7xx_HAL_Driver/Src/stm32h7xx_hal_flash_ex.c **** 
 796:../../Drivers/STM32H7xx_HAL_Driver/Src/stm32h7xx_hal_flash_ex.c ****       /* Start the CRC calculation */
 797:../../Drivers/STM32H7xx_HAL_Driver/Src/stm32h7xx_hal_flash_ex.c ****       FLASH->CRCCR2 |= FLASH_CRCCR_START_CRC;
 798:../../Drivers/STM32H7xx_HAL_Driver/Src/stm32h7xx_hal_flash_ex.c **** 
 799:../../Drivers/STM32H7xx_HAL_Driver/Src/stm32h7xx_hal_flash_ex.c ****       /* Wait on CRC busy flag */
 800:../../Drivers/STM32H7xx_HAL_Driver/Src/stm32h7xx_hal_flash_ex.c ****       status = FLASH_CRC_WaitForLastOperation((uint32_t)FLASH_TIMEOUT_VALUE, FLASH_BANK_2);
 801:../../Drivers/STM32H7xx_HAL_Driver/Src/stm32h7xx_hal_flash_ex.c **** 
 802:../../Drivers/STM32H7xx_HAL_Driver/Src/stm32h7xx_hal_flash_ex.c ****       /* Return CRC result */
 803:../../Drivers/STM32H7xx_HAL_Driver/Src/stm32h7xx_hal_flash_ex.c ****       (*CRC_Result) = FLASH->CRCDATA;
 804:../../Drivers/STM32H7xx_HAL_Driver/Src/stm32h7xx_hal_flash_ex.c **** 
 805:../../Drivers/STM32H7xx_HAL_Driver/Src/stm32h7xx_hal_flash_ex.c ****       /* Disable CRC feature */
 806:../../Drivers/STM32H7xx_HAL_Driver/Src/stm32h7xx_hal_flash_ex.c ****       FLASH->CR2 &= (~FLASH_CR_CRC_EN);
 807:../../Drivers/STM32H7xx_HAL_Driver/Src/stm32h7xx_hal_flash_ex.c **** 
 808:../../Drivers/STM32H7xx_HAL_Driver/Src/stm32h7xx_hal_flash_ex.c ****       /* Clear CRC flags */
 809:../../Drivers/STM32H7xx_HAL_Driver/Src/stm32h7xx_hal_flash_ex.c ****       __HAL_FLASH_CLEAR_FLAG_BANK2(FLASH_FLAG_CRCEND_BANK2 | FLASH_FLAG_CRCRDERR_BANK2);
 810:../../Drivers/STM32H7xx_HAL_Driver/Src/stm32h7xx_hal_flash_ex.c ****     }
 811:../../Drivers/STM32H7xx_HAL_Driver/Src/stm32h7xx_hal_flash_ex.c **** #endif /* DUAL_BANK */
 812:../../Drivers/STM32H7xx_HAL_Driver/Src/stm32h7xx_hal_flash_ex.c ****   }
 813:../../Drivers/STM32H7xx_HAL_Driver/Src/stm32h7xx_hal_flash_ex.c **** 
 814:../../Drivers/STM32H7xx_HAL_Driver/Src/stm32h7xx_hal_flash_ex.c ****   return status;
 815:../../Drivers/STM32H7xx_HAL_Driver/Src/stm32h7xx_hal_flash_ex.c **** }
 816:../../Drivers/STM32H7xx_HAL_Driver/Src/stm32h7xx_hal_flash_ex.c **** 
 817:../../Drivers/STM32H7xx_HAL_Driver/Src/stm32h7xx_hal_flash_ex.c **** /**
 818:../../Drivers/STM32H7xx_HAL_Driver/Src/stm32h7xx_hal_flash_ex.c ****   * @}
 819:../../Drivers/STM32H7xx_HAL_Driver/Src/stm32h7xx_hal_flash_ex.c ****   */
 820:../../Drivers/STM32H7xx_HAL_Driver/Src/stm32h7xx_hal_flash_ex.c **** 
 821:../../Drivers/STM32H7xx_HAL_Driver/Src/stm32h7xx_hal_flash_ex.c **** /**
 822:../../Drivers/STM32H7xx_HAL_Driver/Src/stm32h7xx_hal_flash_ex.c ****   * @}
 823:../../Drivers/STM32H7xx_HAL_Driver/Src/stm32h7xx_hal_flash_ex.c ****   */
 824:../../Drivers/STM32H7xx_HAL_Driver/Src/stm32h7xx_hal_flash_ex.c **** 
 825:../../Drivers/STM32H7xx_HAL_Driver/Src/stm32h7xx_hal_flash_ex.c **** /* Private functions ---------------------------------------------------------*/
 826:../../Drivers/STM32H7xx_HAL_Driver/Src/stm32h7xx_hal_flash_ex.c **** 
 827:../../Drivers/STM32H7xx_HAL_Driver/Src/stm32h7xx_hal_flash_ex.c **** /** @addtogroup FLASHEx_Private_Functions
 828:../../Drivers/STM32H7xx_HAL_Driver/Src/stm32h7xx_hal_flash_ex.c ****   * @{
 829:../../Drivers/STM32H7xx_HAL_Driver/Src/stm32h7xx_hal_flash_ex.c ****   */
ARM GAS  /tmp/ccS8U376.s 			page 16


 830:../../Drivers/STM32H7xx_HAL_Driver/Src/stm32h7xx_hal_flash_ex.c **** 
 831:../../Drivers/STM32H7xx_HAL_Driver/Src/stm32h7xx_hal_flash_ex.c **** /**
 832:../../Drivers/STM32H7xx_HAL_Driver/Src/stm32h7xx_hal_flash_ex.c ****   * @brief  Mass erase of FLASH memory
 833:../../Drivers/STM32H7xx_HAL_Driver/Src/stm32h7xx_hal_flash_ex.c ****   * @param  VoltageRange The device program/erase parallelism.
 834:../../Drivers/STM32H7xx_HAL_Driver/Src/stm32h7xx_hal_flash_ex.c ****   *          This parameter can be one of the following values:
 835:../../Drivers/STM32H7xx_HAL_Driver/Src/stm32h7xx_hal_flash_ex.c ****   *            @arg FLASH_VOLTAGE_RANGE_1 : Flash program/erase by 8 bits
 836:../../Drivers/STM32H7xx_HAL_Driver/Src/stm32h7xx_hal_flash_ex.c ****   *            @arg FLASH_VOLTAGE_RANGE_2 : Flash program/erase by 16 bits
 837:../../Drivers/STM32H7xx_HAL_Driver/Src/stm32h7xx_hal_flash_ex.c ****   *            @arg FLASH_VOLTAGE_RANGE_3 : Flash program/erase by 32 bits
 838:../../Drivers/STM32H7xx_HAL_Driver/Src/stm32h7xx_hal_flash_ex.c ****   *            @arg FLASH_VOLTAGE_RANGE_4 : Flash program/erase by 64 bits
 839:../../Drivers/STM32H7xx_HAL_Driver/Src/stm32h7xx_hal_flash_ex.c ****   *
 840:../../Drivers/STM32H7xx_HAL_Driver/Src/stm32h7xx_hal_flash_ex.c ****   * @param  Banks Banks to be erased
 841:../../Drivers/STM32H7xx_HAL_Driver/Src/stm32h7xx_hal_flash_ex.c ****   *          This parameter can be one of the following values:
 842:../../Drivers/STM32H7xx_HAL_Driver/Src/stm32h7xx_hal_flash_ex.c ****   *            @arg FLASH_BANK_1: Bank1 to be erased
 843:../../Drivers/STM32H7xx_HAL_Driver/Src/stm32h7xx_hal_flash_ex.c ****   *            @arg FLASH_BANK_2: Bank2 to be erased
 844:../../Drivers/STM32H7xx_HAL_Driver/Src/stm32h7xx_hal_flash_ex.c ****   *            @arg FLASH_BANK_BOTH: Bank1 and Bank2 to be erased
 845:../../Drivers/STM32H7xx_HAL_Driver/Src/stm32h7xx_hal_flash_ex.c ****   *
 846:../../Drivers/STM32H7xx_HAL_Driver/Src/stm32h7xx_hal_flash_ex.c ****   * @retval HAL Status
 847:../../Drivers/STM32H7xx_HAL_Driver/Src/stm32h7xx_hal_flash_ex.c ****   */
 848:../../Drivers/STM32H7xx_HAL_Driver/Src/stm32h7xx_hal_flash_ex.c **** static void FLASH_MassErase(uint32_t VoltageRange, uint32_t Banks)
 849:../../Drivers/STM32H7xx_HAL_Driver/Src/stm32h7xx_hal_flash_ex.c **** {
  28              		.loc 1 849 1 view -0
  29              		.cfi_startproc
  30              		@ args = 0, pretend = 0, frame = 0
  31              		@ frame_needed = 0, uses_anonymous_args = 0
  32              		@ link register save eliminated.
 850:../../Drivers/STM32H7xx_HAL_Driver/Src/stm32h7xx_hal_flash_ex.c ****   /* Check the parameters */
 851:../../Drivers/STM32H7xx_HAL_Driver/Src/stm32h7xx_hal_flash_ex.c **** #if defined (FLASH_CR_PSIZE)
 852:../../Drivers/STM32H7xx_HAL_Driver/Src/stm32h7xx_hal_flash_ex.c ****   assert_param(IS_VOLTAGERANGE(VoltageRange));
  33              		.loc 1 852 3 view .LVU1
 853:../../Drivers/STM32H7xx_HAL_Driver/Src/stm32h7xx_hal_flash_ex.c **** #else
 854:../../Drivers/STM32H7xx_HAL_Driver/Src/stm32h7xx_hal_flash_ex.c ****   UNUSED(VoltageRange);
 855:../../Drivers/STM32H7xx_HAL_Driver/Src/stm32h7xx_hal_flash_ex.c **** #endif /* FLASH_CR_PSIZE */
 856:../../Drivers/STM32H7xx_HAL_Driver/Src/stm32h7xx_hal_flash_ex.c ****   assert_param(IS_FLASH_BANK(Banks));
  34              		.loc 1 856 3 view .LVU2
 857:../../Drivers/STM32H7xx_HAL_Driver/Src/stm32h7xx_hal_flash_ex.c **** 
 858:../../Drivers/STM32H7xx_HAL_Driver/Src/stm32h7xx_hal_flash_ex.c **** #if defined (DUAL_BANK)
 859:../../Drivers/STM32H7xx_HAL_Driver/Src/stm32h7xx_hal_flash_ex.c ****   /* Flash Mass Erase */
 860:../../Drivers/STM32H7xx_HAL_Driver/Src/stm32h7xx_hal_flash_ex.c ****   if((Banks & FLASH_BANK_BOTH) == FLASH_BANK_BOTH)
  35              		.loc 1 860 3 view .LVU3
  36              		.loc 1 860 13 is_stmt 0 view .LVU4
  37 0000 01F00303 		and	r3, r1, #3
  38              		.loc 1 860 5 view .LVU5
  39 0004 032B     		cmp	r3, #3
  40 0006 24D0     		beq	.L5
 861:../../Drivers/STM32H7xx_HAL_Driver/Src/stm32h7xx_hal_flash_ex.c ****   {
 862:../../Drivers/STM32H7xx_HAL_Driver/Src/stm32h7xx_hal_flash_ex.c **** #if defined (FLASH_CR_PSIZE)
 863:../../Drivers/STM32H7xx_HAL_Driver/Src/stm32h7xx_hal_flash_ex.c ****     /* Reset Program/erase VoltageRange for Bank1 and Bank2 */
 864:../../Drivers/STM32H7xx_HAL_Driver/Src/stm32h7xx_hal_flash_ex.c ****     FLASH->CR1 &= (~FLASH_CR_PSIZE);
 865:../../Drivers/STM32H7xx_HAL_Driver/Src/stm32h7xx_hal_flash_ex.c ****     FLASH->CR2 &= (~FLASH_CR_PSIZE);
 866:../../Drivers/STM32H7xx_HAL_Driver/Src/stm32h7xx_hal_flash_ex.c **** 
 867:../../Drivers/STM32H7xx_HAL_Driver/Src/stm32h7xx_hal_flash_ex.c ****     /* Set voltage range */
 868:../../Drivers/STM32H7xx_HAL_Driver/Src/stm32h7xx_hal_flash_ex.c ****     FLASH->CR1 |= VoltageRange;
 869:../../Drivers/STM32H7xx_HAL_Driver/Src/stm32h7xx_hal_flash_ex.c ****     FLASH->CR2 |= VoltageRange;
 870:../../Drivers/STM32H7xx_HAL_Driver/Src/stm32h7xx_hal_flash_ex.c **** #endif /* FLASH_CR_PSIZE */
 871:../../Drivers/STM32H7xx_HAL_Driver/Src/stm32h7xx_hal_flash_ex.c **** 
 872:../../Drivers/STM32H7xx_HAL_Driver/Src/stm32h7xx_hal_flash_ex.c ****     /* Set Mass Erase Bit */
 873:../../Drivers/STM32H7xx_HAL_Driver/Src/stm32h7xx_hal_flash_ex.c ****     FLASH->OPTCR |= FLASH_OPTCR_MER;
ARM GAS  /tmp/ccS8U376.s 			page 17


 874:../../Drivers/STM32H7xx_HAL_Driver/Src/stm32h7xx_hal_flash_ex.c ****   }
 875:../../Drivers/STM32H7xx_HAL_Driver/Src/stm32h7xx_hal_flash_ex.c ****   else
 876:../../Drivers/STM32H7xx_HAL_Driver/Src/stm32h7xx_hal_flash_ex.c **** #endif /* DUAL_BANK */
 877:../../Drivers/STM32H7xx_HAL_Driver/Src/stm32h7xx_hal_flash_ex.c ****   {
 878:../../Drivers/STM32H7xx_HAL_Driver/Src/stm32h7xx_hal_flash_ex.c ****     /* Proceed to erase Flash Bank  */
 879:../../Drivers/STM32H7xx_HAL_Driver/Src/stm32h7xx_hal_flash_ex.c ****     if((Banks & FLASH_BANK_1) == FLASH_BANK_1)
  41              		.loc 1 879 5 is_stmt 1 view .LVU6
  42              		.loc 1 879 7 is_stmt 0 view .LVU7
  43 0008 11F0010F 		tst	r1, #1
  44 000c 0BD0     		beq	.L4
 880:../../Drivers/STM32H7xx_HAL_Driver/Src/stm32h7xx_hal_flash_ex.c ****     {
 881:../../Drivers/STM32H7xx_HAL_Driver/Src/stm32h7xx_hal_flash_ex.c **** #if defined (FLASH_CR_PSIZE)
 882:../../Drivers/STM32H7xx_HAL_Driver/Src/stm32h7xx_hal_flash_ex.c ****       /* Set Program/erase VoltageRange for Bank1 */
 883:../../Drivers/STM32H7xx_HAL_Driver/Src/stm32h7xx_hal_flash_ex.c ****       FLASH->CR1 &= (~FLASH_CR_PSIZE);
  45              		.loc 1 883 7 is_stmt 1 view .LVU8
  46              		.loc 1 883 18 is_stmt 0 view .LVU9
  47 000e 1D4B     		ldr	r3, .L6
  48 0010 DA68     		ldr	r2, [r3, #12]
  49 0012 22F03002 		bic	r2, r2, #48
  50 0016 DA60     		str	r2, [r3, #12]
 884:../../Drivers/STM32H7xx_HAL_Driver/Src/stm32h7xx_hal_flash_ex.c ****       FLASH->CR1 |=  VoltageRange;
  51              		.loc 1 884 7 is_stmt 1 view .LVU10
  52              		.loc 1 884 18 is_stmt 0 view .LVU11
  53 0018 DA68     		ldr	r2, [r3, #12]
  54 001a 0243     		orrs	r2, r2, r0
  55 001c DA60     		str	r2, [r3, #12]
 885:../../Drivers/STM32H7xx_HAL_Driver/Src/stm32h7xx_hal_flash_ex.c **** #endif /* FLASH_CR_PSIZE */
 886:../../Drivers/STM32H7xx_HAL_Driver/Src/stm32h7xx_hal_flash_ex.c **** 
 887:../../Drivers/STM32H7xx_HAL_Driver/Src/stm32h7xx_hal_flash_ex.c ****       /* Erase Bank1 */
 888:../../Drivers/STM32H7xx_HAL_Driver/Src/stm32h7xx_hal_flash_ex.c ****       FLASH->CR1 |= (FLASH_CR_BER | FLASH_CR_START);
  56              		.loc 1 888 7 is_stmt 1 view .LVU12
  57              		.loc 1 888 18 is_stmt 0 view .LVU13
  58 001e DA68     		ldr	r2, [r3, #12]
  59 0020 42F08802 		orr	r2, r2, #136
  60 0024 DA60     		str	r2, [r3, #12]
  61              	.L4:
 889:../../Drivers/STM32H7xx_HAL_Driver/Src/stm32h7xx_hal_flash_ex.c ****     }
 890:../../Drivers/STM32H7xx_HAL_Driver/Src/stm32h7xx_hal_flash_ex.c **** 
 891:../../Drivers/STM32H7xx_HAL_Driver/Src/stm32h7xx_hal_flash_ex.c **** #if defined (DUAL_BANK)
 892:../../Drivers/STM32H7xx_HAL_Driver/Src/stm32h7xx_hal_flash_ex.c ****     if((Banks & FLASH_BANK_2) == FLASH_BANK_2)
  62              		.loc 1 892 5 is_stmt 1 view .LVU14
  63              		.loc 1 892 7 is_stmt 0 view .LVU15
  64 0026 11F0020F 		tst	r1, #2
  65 002a 11D0     		beq	.L1
 893:../../Drivers/STM32H7xx_HAL_Driver/Src/stm32h7xx_hal_flash_ex.c ****     {
 894:../../Drivers/STM32H7xx_HAL_Driver/Src/stm32h7xx_hal_flash_ex.c **** #if defined (FLASH_CR_PSIZE)
 895:../../Drivers/STM32H7xx_HAL_Driver/Src/stm32h7xx_hal_flash_ex.c ****       /* Set Program/erase VoltageRange for Bank2 */
 896:../../Drivers/STM32H7xx_HAL_Driver/Src/stm32h7xx_hal_flash_ex.c ****       FLASH->CR2 &= (~FLASH_CR_PSIZE);
  66              		.loc 1 896 7 is_stmt 1 view .LVU16
  67              		.loc 1 896 18 is_stmt 0 view .LVU17
  68 002c 154B     		ldr	r3, .L6
  69 002e D3F80C21 		ldr	r2, [r3, #268]
  70 0032 22F03002 		bic	r2, r2, #48
  71 0036 C3F80C21 		str	r2, [r3, #268]
 897:../../Drivers/STM32H7xx_HAL_Driver/Src/stm32h7xx_hal_flash_ex.c ****       FLASH->CR2 |= VoltageRange;
  72              		.loc 1 897 7 is_stmt 1 view .LVU18
  73              		.loc 1 897 18 is_stmt 0 view .LVU19
ARM GAS  /tmp/ccS8U376.s 			page 18


  74 003a D3F80C21 		ldr	r2, [r3, #268]
  75 003e 1043     		orrs	r0, r0, r2
  76              	.LVL1:
  77              		.loc 1 897 18 view .LVU20
  78 0040 C3F80C01 		str	r0, [r3, #268]
 898:../../Drivers/STM32H7xx_HAL_Driver/Src/stm32h7xx_hal_flash_ex.c **** #endif /* FLASH_CR_PSIZE */
 899:../../Drivers/STM32H7xx_HAL_Driver/Src/stm32h7xx_hal_flash_ex.c **** 
 900:../../Drivers/STM32H7xx_HAL_Driver/Src/stm32h7xx_hal_flash_ex.c ****       /* Erase Bank2 */
 901:../../Drivers/STM32H7xx_HAL_Driver/Src/stm32h7xx_hal_flash_ex.c ****       FLASH->CR2 |= (FLASH_CR_BER | FLASH_CR_START);
  79              		.loc 1 901 7 is_stmt 1 view .LVU21
  80              		.loc 1 901 18 is_stmt 0 view .LVU22
  81 0044 D3F80C21 		ldr	r2, [r3, #268]
  82 0048 42F08802 		orr	r2, r2, #136
  83 004c C3F80C21 		str	r2, [r3, #268]
  84              	.L1:
 902:../../Drivers/STM32H7xx_HAL_Driver/Src/stm32h7xx_hal_flash_ex.c ****     }
 903:../../Drivers/STM32H7xx_HAL_Driver/Src/stm32h7xx_hal_flash_ex.c **** #endif /* DUAL_BANK */
 904:../../Drivers/STM32H7xx_HAL_Driver/Src/stm32h7xx_hal_flash_ex.c ****   }
 905:../../Drivers/STM32H7xx_HAL_Driver/Src/stm32h7xx_hal_flash_ex.c **** }
  85              		.loc 1 905 1 view .LVU23
  86 0050 7047     		bx	lr
  87              	.LVL2:
  88              	.L5:
 864:../../Drivers/STM32H7xx_HAL_Driver/Src/stm32h7xx_hal_flash_ex.c ****     FLASH->CR2 &= (~FLASH_CR_PSIZE);
  89              		.loc 1 864 5 is_stmt 1 view .LVU24
 864:../../Drivers/STM32H7xx_HAL_Driver/Src/stm32h7xx_hal_flash_ex.c ****     FLASH->CR2 &= (~FLASH_CR_PSIZE);
  90              		.loc 1 864 16 is_stmt 0 view .LVU25
  91 0052 0C4B     		ldr	r3, .L6
  92 0054 DA68     		ldr	r2, [r3, #12]
  93 0056 22F03002 		bic	r2, r2, #48
  94 005a DA60     		str	r2, [r3, #12]
 865:../../Drivers/STM32H7xx_HAL_Driver/Src/stm32h7xx_hal_flash_ex.c **** 
  95              		.loc 1 865 5 is_stmt 1 view .LVU26
 865:../../Drivers/STM32H7xx_HAL_Driver/Src/stm32h7xx_hal_flash_ex.c **** 
  96              		.loc 1 865 16 is_stmt 0 view .LVU27
  97 005c D3F80C21 		ldr	r2, [r3, #268]
  98 0060 22F03002 		bic	r2, r2, #48
  99 0064 C3F80C21 		str	r2, [r3, #268]
 868:../../Drivers/STM32H7xx_HAL_Driver/Src/stm32h7xx_hal_flash_ex.c ****     FLASH->CR2 |= VoltageRange;
 100              		.loc 1 868 5 is_stmt 1 view .LVU28
 868:../../Drivers/STM32H7xx_HAL_Driver/Src/stm32h7xx_hal_flash_ex.c ****     FLASH->CR2 |= VoltageRange;
 101              		.loc 1 868 16 is_stmt 0 view .LVU29
 102 0068 DA68     		ldr	r2, [r3, #12]
 103 006a 0243     		orrs	r2, r2, r0
 104 006c DA60     		str	r2, [r3, #12]
 869:../../Drivers/STM32H7xx_HAL_Driver/Src/stm32h7xx_hal_flash_ex.c **** #endif /* FLASH_CR_PSIZE */
 105              		.loc 1 869 5 is_stmt 1 view .LVU30
 869:../../Drivers/STM32H7xx_HAL_Driver/Src/stm32h7xx_hal_flash_ex.c **** #endif /* FLASH_CR_PSIZE */
 106              		.loc 1 869 16 is_stmt 0 view .LVU31
 107 006e D3F80C21 		ldr	r2, [r3, #268]
 108 0072 1043     		orrs	r0, r0, r2
 109              	.LVL3:
 869:../../Drivers/STM32H7xx_HAL_Driver/Src/stm32h7xx_hal_flash_ex.c **** #endif /* FLASH_CR_PSIZE */
 110              		.loc 1 869 16 view .LVU32
 111 0074 C3F80C01 		str	r0, [r3, #268]
 873:../../Drivers/STM32H7xx_HAL_Driver/Src/stm32h7xx_hal_flash_ex.c ****   }
 112              		.loc 1 873 5 is_stmt 1 view .LVU33
ARM GAS  /tmp/ccS8U376.s 			page 19


 873:../../Drivers/STM32H7xx_HAL_Driver/Src/stm32h7xx_hal_flash_ex.c ****   }
 113              		.loc 1 873 18 is_stmt 0 view .LVU34
 114 0078 9A69     		ldr	r2, [r3, #24]
 115 007a 42F01002 		orr	r2, r2, #16
 116 007e 9A61     		str	r2, [r3, #24]
 117 0080 7047     		bx	lr
 118              	.L7:
 119 0082 00BF     		.align	2
 120              	.L6:
 121 0084 00200052 		.word	1375739904
 122              		.cfi_endproc
 123              	.LFE153:
 125              		.section	.text.FLASH_OB_EnableWRP,"ax",%progbits
 126              		.align	1
 127              		.syntax unified
 128              		.thumb
 129              		.thumb_func
 130              		.fpu fpv5-d16
 132              	FLASH_OB_EnableWRP:
 133              	.LVL4:
 134              	.LFB155:
 906:../../Drivers/STM32H7xx_HAL_Driver/Src/stm32h7xx_hal_flash_ex.c **** 
 907:../../Drivers/STM32H7xx_HAL_Driver/Src/stm32h7xx_hal_flash_ex.c **** /**
 908:../../Drivers/STM32H7xx_HAL_Driver/Src/stm32h7xx_hal_flash_ex.c ****   * @brief  Erase the specified FLASH memory sector
 909:../../Drivers/STM32H7xx_HAL_Driver/Src/stm32h7xx_hal_flash_ex.c ****   * @param  Sector FLASH sector to erase
 910:../../Drivers/STM32H7xx_HAL_Driver/Src/stm32h7xx_hal_flash_ex.c ****   *          This parameter can be a value of @ref FLASH_Sectors
 911:../../Drivers/STM32H7xx_HAL_Driver/Src/stm32h7xx_hal_flash_ex.c ****   * @param  Banks Banks to be erased
 912:../../Drivers/STM32H7xx_HAL_Driver/Src/stm32h7xx_hal_flash_ex.c ****   *          This parameter can be one of the following values:
 913:../../Drivers/STM32H7xx_HAL_Driver/Src/stm32h7xx_hal_flash_ex.c ****   *            @arg FLASH_BANK_1: Bank1 to be erased
 914:../../Drivers/STM32H7xx_HAL_Driver/Src/stm32h7xx_hal_flash_ex.c ****   *            @arg FLASH_BANK_2: Bank2 to be erased
 915:../../Drivers/STM32H7xx_HAL_Driver/Src/stm32h7xx_hal_flash_ex.c ****   *            @arg FLASH_BANK_BOTH: Bank1 and Bank2 to be erased
 916:../../Drivers/STM32H7xx_HAL_Driver/Src/stm32h7xx_hal_flash_ex.c ****   * @param  VoltageRange The device program/erase parallelism.
 917:../../Drivers/STM32H7xx_HAL_Driver/Src/stm32h7xx_hal_flash_ex.c ****   *          This parameter can be one of the following values:
 918:../../Drivers/STM32H7xx_HAL_Driver/Src/stm32h7xx_hal_flash_ex.c ****   *            @arg FLASH_VOLTAGE_RANGE_1 : Flash program/erase by 8 bits
 919:../../Drivers/STM32H7xx_HAL_Driver/Src/stm32h7xx_hal_flash_ex.c ****   *            @arg FLASH_VOLTAGE_RANGE_2 : Flash program/erase by 16 bits
 920:../../Drivers/STM32H7xx_HAL_Driver/Src/stm32h7xx_hal_flash_ex.c ****   *            @arg FLASH_VOLTAGE_RANGE_3 : Flash program/erase by 32 bits
 921:../../Drivers/STM32H7xx_HAL_Driver/Src/stm32h7xx_hal_flash_ex.c ****   *            @arg FLASH_VOLTAGE_RANGE_4 : Flash program/erase by 64 bits
 922:../../Drivers/STM32H7xx_HAL_Driver/Src/stm32h7xx_hal_flash_ex.c ****   *
 923:../../Drivers/STM32H7xx_HAL_Driver/Src/stm32h7xx_hal_flash_ex.c ****   * @retval None
 924:../../Drivers/STM32H7xx_HAL_Driver/Src/stm32h7xx_hal_flash_ex.c ****   */
 925:../../Drivers/STM32H7xx_HAL_Driver/Src/stm32h7xx_hal_flash_ex.c **** void FLASH_Erase_Sector(uint32_t Sector, uint32_t Banks, uint32_t VoltageRange)
 926:../../Drivers/STM32H7xx_HAL_Driver/Src/stm32h7xx_hal_flash_ex.c **** {
 927:../../Drivers/STM32H7xx_HAL_Driver/Src/stm32h7xx_hal_flash_ex.c ****   assert_param(IS_FLASH_SECTOR(Sector));
 928:../../Drivers/STM32H7xx_HAL_Driver/Src/stm32h7xx_hal_flash_ex.c ****   assert_param(IS_FLASH_BANK_EXCLUSIVE(Banks));
 929:../../Drivers/STM32H7xx_HAL_Driver/Src/stm32h7xx_hal_flash_ex.c **** #if defined (FLASH_CR_PSIZE)
 930:../../Drivers/STM32H7xx_HAL_Driver/Src/stm32h7xx_hal_flash_ex.c ****   assert_param(IS_VOLTAGERANGE(VoltageRange));
 931:../../Drivers/STM32H7xx_HAL_Driver/Src/stm32h7xx_hal_flash_ex.c **** #else
 932:../../Drivers/STM32H7xx_HAL_Driver/Src/stm32h7xx_hal_flash_ex.c ****   UNUSED(VoltageRange);
 933:../../Drivers/STM32H7xx_HAL_Driver/Src/stm32h7xx_hal_flash_ex.c **** #endif /* FLASH_CR_PSIZE */
 934:../../Drivers/STM32H7xx_HAL_Driver/Src/stm32h7xx_hal_flash_ex.c **** 
 935:../../Drivers/STM32H7xx_HAL_Driver/Src/stm32h7xx_hal_flash_ex.c ****   if((Banks & FLASH_BANK_1) == FLASH_BANK_1)
 936:../../Drivers/STM32H7xx_HAL_Driver/Src/stm32h7xx_hal_flash_ex.c ****   {
 937:../../Drivers/STM32H7xx_HAL_Driver/Src/stm32h7xx_hal_flash_ex.c **** #if defined (FLASH_CR_PSIZE)
 938:../../Drivers/STM32H7xx_HAL_Driver/Src/stm32h7xx_hal_flash_ex.c ****     /* Reset Program/erase VoltageRange and Sector Number for Bank1 */
 939:../../Drivers/STM32H7xx_HAL_Driver/Src/stm32h7xx_hal_flash_ex.c ****     FLASH->CR1 &= ~(FLASH_CR_PSIZE | FLASH_CR_SNB);
 940:../../Drivers/STM32H7xx_HAL_Driver/Src/stm32h7xx_hal_flash_ex.c **** 
 941:../../Drivers/STM32H7xx_HAL_Driver/Src/stm32h7xx_hal_flash_ex.c ****     FLASH->CR1 |= (FLASH_CR_SER | VoltageRange | (Sector << FLASH_CR_SNB_Pos) | FLASH_CR_START);
ARM GAS  /tmp/ccS8U376.s 			page 20


 942:../../Drivers/STM32H7xx_HAL_Driver/Src/stm32h7xx_hal_flash_ex.c **** #else
 943:../../Drivers/STM32H7xx_HAL_Driver/Src/stm32h7xx_hal_flash_ex.c ****     /* Reset Sector Number for Bank1 */
 944:../../Drivers/STM32H7xx_HAL_Driver/Src/stm32h7xx_hal_flash_ex.c ****     FLASH->CR1 &= ~(FLASH_CR_SNB);
 945:../../Drivers/STM32H7xx_HAL_Driver/Src/stm32h7xx_hal_flash_ex.c **** 
 946:../../Drivers/STM32H7xx_HAL_Driver/Src/stm32h7xx_hal_flash_ex.c ****     FLASH->CR1 |= (FLASH_CR_SER | (Sector << FLASH_CR_SNB_Pos) | FLASH_CR_START);
 947:../../Drivers/STM32H7xx_HAL_Driver/Src/stm32h7xx_hal_flash_ex.c **** #endif /* FLASH_CR_PSIZE */
 948:../../Drivers/STM32H7xx_HAL_Driver/Src/stm32h7xx_hal_flash_ex.c ****   }
 949:../../Drivers/STM32H7xx_HAL_Driver/Src/stm32h7xx_hal_flash_ex.c **** 
 950:../../Drivers/STM32H7xx_HAL_Driver/Src/stm32h7xx_hal_flash_ex.c **** #if defined (DUAL_BANK)
 951:../../Drivers/STM32H7xx_HAL_Driver/Src/stm32h7xx_hal_flash_ex.c ****   if((Banks & FLASH_BANK_2) == FLASH_BANK_2)
 952:../../Drivers/STM32H7xx_HAL_Driver/Src/stm32h7xx_hal_flash_ex.c ****   {
 953:../../Drivers/STM32H7xx_HAL_Driver/Src/stm32h7xx_hal_flash_ex.c **** #if defined (FLASH_CR_PSIZE)
 954:../../Drivers/STM32H7xx_HAL_Driver/Src/stm32h7xx_hal_flash_ex.c ****     /* Reset Program/erase VoltageRange and Sector Number for Bank2 */
 955:../../Drivers/STM32H7xx_HAL_Driver/Src/stm32h7xx_hal_flash_ex.c ****     FLASH->CR2 &= ~(FLASH_CR_PSIZE | FLASH_CR_SNB);
 956:../../Drivers/STM32H7xx_HAL_Driver/Src/stm32h7xx_hal_flash_ex.c **** 
 957:../../Drivers/STM32H7xx_HAL_Driver/Src/stm32h7xx_hal_flash_ex.c ****     FLASH->CR2 |= (FLASH_CR_SER | VoltageRange  | (Sector << FLASH_CR_SNB_Pos) | FLASH_CR_START);
 958:../../Drivers/STM32H7xx_HAL_Driver/Src/stm32h7xx_hal_flash_ex.c **** #else
 959:../../Drivers/STM32H7xx_HAL_Driver/Src/stm32h7xx_hal_flash_ex.c ****     /* Reset Sector Number for Bank2 */
 960:../../Drivers/STM32H7xx_HAL_Driver/Src/stm32h7xx_hal_flash_ex.c ****     FLASH->CR2 &= ~(FLASH_CR_SNB);
 961:../../Drivers/STM32H7xx_HAL_Driver/Src/stm32h7xx_hal_flash_ex.c **** 
 962:../../Drivers/STM32H7xx_HAL_Driver/Src/stm32h7xx_hal_flash_ex.c ****     FLASH->CR2 |= (FLASH_CR_SER | (Sector << FLASH_CR_SNB_Pos) | FLASH_CR_START);
 963:../../Drivers/STM32H7xx_HAL_Driver/Src/stm32h7xx_hal_flash_ex.c **** #endif /* FLASH_CR_PSIZE */
 964:../../Drivers/STM32H7xx_HAL_Driver/Src/stm32h7xx_hal_flash_ex.c ****   }
 965:../../Drivers/STM32H7xx_HAL_Driver/Src/stm32h7xx_hal_flash_ex.c **** #endif /* DUAL_BANK */
 966:../../Drivers/STM32H7xx_HAL_Driver/Src/stm32h7xx_hal_flash_ex.c **** }
 967:../../Drivers/STM32H7xx_HAL_Driver/Src/stm32h7xx_hal_flash_ex.c **** 
 968:../../Drivers/STM32H7xx_HAL_Driver/Src/stm32h7xx_hal_flash_ex.c **** /**
 969:../../Drivers/STM32H7xx_HAL_Driver/Src/stm32h7xx_hal_flash_ex.c ****   * @brief  Enable the write protection of the desired bank1 or bank 2 sectors
 970:../../Drivers/STM32H7xx_HAL_Driver/Src/stm32h7xx_hal_flash_ex.c ****   * @param  WRPSector specifies the sector(s) to be write protected.
 971:../../Drivers/STM32H7xx_HAL_Driver/Src/stm32h7xx_hal_flash_ex.c ****   *          This parameter can be one of the following values:
 972:../../Drivers/STM32H7xx_HAL_Driver/Src/stm32h7xx_hal_flash_ex.c ****   *            @arg WRPSector:  A combination of OB_WRP_SECTOR_0 to OB_WRP_SECTOR_7 or OB_WRP_SECTO
 973:../../Drivers/STM32H7xx_HAL_Driver/Src/stm32h7xx_hal_flash_ex.c ****   *
 974:../../Drivers/STM32H7xx_HAL_Driver/Src/stm32h7xx_hal_flash_ex.c ****   * @param  Banks the specific bank to apply WRP sectors
 975:../../Drivers/STM32H7xx_HAL_Driver/Src/stm32h7xx_hal_flash_ex.c ****   *          This parameter can be one of the following values:
 976:../../Drivers/STM32H7xx_HAL_Driver/Src/stm32h7xx_hal_flash_ex.c ****   *            @arg FLASH_BANK_1: enable WRP on specified bank1 sectors
 977:../../Drivers/STM32H7xx_HAL_Driver/Src/stm32h7xx_hal_flash_ex.c ****   *            @arg FLASH_BANK_2: enable WRP on specified bank2 sectors
 978:../../Drivers/STM32H7xx_HAL_Driver/Src/stm32h7xx_hal_flash_ex.c ****   *            @arg FLASH_BANK_BOTH: enable WRP on both bank1 and bank2 specified sectors
 979:../../Drivers/STM32H7xx_HAL_Driver/Src/stm32h7xx_hal_flash_ex.c ****   *
 980:../../Drivers/STM32H7xx_HAL_Driver/Src/stm32h7xx_hal_flash_ex.c ****   * @retval HAL FLASH State
 981:../../Drivers/STM32H7xx_HAL_Driver/Src/stm32h7xx_hal_flash_ex.c ****   */
 982:../../Drivers/STM32H7xx_HAL_Driver/Src/stm32h7xx_hal_flash_ex.c **** static void FLASH_OB_EnableWRP(uint32_t WRPSector, uint32_t Banks)
 983:../../Drivers/STM32H7xx_HAL_Driver/Src/stm32h7xx_hal_flash_ex.c **** {
 135              		.loc 1 983 1 is_stmt 1 view -0
 136              		.cfi_startproc
 137              		@ args = 0, pretend = 0, frame = 0
 138              		@ frame_needed = 0, uses_anonymous_args = 0
 139              		@ link register save eliminated.
 140              		.loc 1 983 1 is_stmt 0 view .LVU36
 141 0000 10B4     		push	{r4}
 142              	.LCFI0:
 143              		.cfi_def_cfa_offset 4
 144              		.cfi_offset 4, -4
 984:../../Drivers/STM32H7xx_HAL_Driver/Src/stm32h7xx_hal_flash_ex.c ****   /* Check the parameters */
 985:../../Drivers/STM32H7xx_HAL_Driver/Src/stm32h7xx_hal_flash_ex.c ****   assert_param(IS_OB_WRP_SECTOR(WRPSector));
 145              		.loc 1 985 3 is_stmt 1 view .LVU37
 986:../../Drivers/STM32H7xx_HAL_Driver/Src/stm32h7xx_hal_flash_ex.c ****   assert_param(IS_FLASH_BANK(Banks));
 146              		.loc 1 986 3 view .LVU38
ARM GAS  /tmp/ccS8U376.s 			page 21


 987:../../Drivers/STM32H7xx_HAL_Driver/Src/stm32h7xx_hal_flash_ex.c **** 
 988:../../Drivers/STM32H7xx_HAL_Driver/Src/stm32h7xx_hal_flash_ex.c ****   if((Banks & FLASH_BANK_1) == FLASH_BANK_1)
 147              		.loc 1 988 3 view .LVU39
 148              		.loc 1 988 5 is_stmt 0 view .LVU40
 149 0002 11F0010F 		tst	r1, #1
 150 0006 05D0     		beq	.L9
 989:../../Drivers/STM32H7xx_HAL_Driver/Src/stm32h7xx_hal_flash_ex.c ****   {
 990:../../Drivers/STM32H7xx_HAL_Driver/Src/stm32h7xx_hal_flash_ex.c ****     /* Enable Write Protection for bank 1 */
 991:../../Drivers/STM32H7xx_HAL_Driver/Src/stm32h7xx_hal_flash_ex.c ****     FLASH->WPSN_PRG1 &= (~(WRPSector & FLASH_WPSN_WRPSN));
 151              		.loc 1 991 5 is_stmt 1 view .LVU41
 152              		.loc 1 991 22 is_stmt 0 view .LVU42
 153 0008 094A     		ldr	r2, .L12
 154 000a D36B     		ldr	r3, [r2, #60]
 155              		.loc 1 991 38 view .LVU43
 156 000c C4B2     		uxtb	r4, r0
 157              		.loc 1 991 22 view .LVU44
 158 000e 23EA0403 		bic	r3, r3, r4
 159 0012 D363     		str	r3, [r2, #60]
 160              	.L9:
 992:../../Drivers/STM32H7xx_HAL_Driver/Src/stm32h7xx_hal_flash_ex.c ****   }
 993:../../Drivers/STM32H7xx_HAL_Driver/Src/stm32h7xx_hal_flash_ex.c **** 
 994:../../Drivers/STM32H7xx_HAL_Driver/Src/stm32h7xx_hal_flash_ex.c **** #if defined (DUAL_BANK)
 995:../../Drivers/STM32H7xx_HAL_Driver/Src/stm32h7xx_hal_flash_ex.c ****   if((Banks & FLASH_BANK_2) == FLASH_BANK_2)
 161              		.loc 1 995 3 is_stmt 1 view .LVU45
 162              		.loc 1 995 5 is_stmt 0 view .LVU46
 163 0014 11F0020F 		tst	r1, #2
 164 0018 07D0     		beq	.L8
 996:../../Drivers/STM32H7xx_HAL_Driver/Src/stm32h7xx_hal_flash_ex.c ****   {
 997:../../Drivers/STM32H7xx_HAL_Driver/Src/stm32h7xx_hal_flash_ex.c ****     /* Enable Write Protection for bank 2 */
 998:../../Drivers/STM32H7xx_HAL_Driver/Src/stm32h7xx_hal_flash_ex.c ****     FLASH->WPSN_PRG2 &= (~(WRPSector & FLASH_WPSN_WRPSN));
 165              		.loc 1 998 5 is_stmt 1 view .LVU47
 166              		.loc 1 998 22 is_stmt 0 view .LVU48
 167 001a 054A     		ldr	r2, .L12
 168 001c D2F83C31 		ldr	r3, [r2, #316]
 169              		.loc 1 998 38 view .LVU49
 170 0020 C0B2     		uxtb	r0, r0
 171              	.LVL5:
 172              		.loc 1 998 22 view .LVU50
 173 0022 23EA0000 		bic	r0, r3, r0
 174 0026 C2F83C01 		str	r0, [r2, #316]
 175              	.L8:
 999:../../Drivers/STM32H7xx_HAL_Driver/Src/stm32h7xx_hal_flash_ex.c ****   }
1000:../../Drivers/STM32H7xx_HAL_Driver/Src/stm32h7xx_hal_flash_ex.c **** #endif /* DUAL_BANK */
1001:../../Drivers/STM32H7xx_HAL_Driver/Src/stm32h7xx_hal_flash_ex.c **** }
 176              		.loc 1 1001 1 view .LVU51
 177 002a 5DF8044B 		ldr	r4, [sp], #4
 178              	.LCFI1:
 179              		.cfi_restore 4
 180              		.cfi_def_cfa_offset 0
 181 002e 7047     		bx	lr
 182              	.L13:
 183              		.align	2
 184              	.L12:
 185 0030 00200052 		.word	1375739904
 186              		.cfi_endproc
 187              	.LFE155:
 189              		.section	.text.FLASH_OB_DisableWRP,"ax",%progbits
ARM GAS  /tmp/ccS8U376.s 			page 22


 190              		.align	1
 191              		.syntax unified
 192              		.thumb
 193              		.thumb_func
 194              		.fpu fpv5-d16
 196              	FLASH_OB_DisableWRP:
 197              	.LVL6:
 198              	.LFB156:
1002:../../Drivers/STM32H7xx_HAL_Driver/Src/stm32h7xx_hal_flash_ex.c **** 
1003:../../Drivers/STM32H7xx_HAL_Driver/Src/stm32h7xx_hal_flash_ex.c **** /**
1004:../../Drivers/STM32H7xx_HAL_Driver/Src/stm32h7xx_hal_flash_ex.c ****   * @brief  Disable the write protection of the desired bank1 or bank 2 sectors
1005:../../Drivers/STM32H7xx_HAL_Driver/Src/stm32h7xx_hal_flash_ex.c ****   * @param  WRPSector specifies the sector(s) to disable write protection.
1006:../../Drivers/STM32H7xx_HAL_Driver/Src/stm32h7xx_hal_flash_ex.c ****   *          This parameter can be one of the following values:
1007:../../Drivers/STM32H7xx_HAL_Driver/Src/stm32h7xx_hal_flash_ex.c ****   *            @arg WRPSector:  A combination of FLASH_OB_WRP_SECTOR_0 to FLASH_OB_WRP_SECTOR_7 or 
1008:../../Drivers/STM32H7xx_HAL_Driver/Src/stm32h7xx_hal_flash_ex.c ****   *
1009:../../Drivers/STM32H7xx_HAL_Driver/Src/stm32h7xx_hal_flash_ex.c ****   * @param  Banks the specific bank to apply WRP sectors
1010:../../Drivers/STM32H7xx_HAL_Driver/Src/stm32h7xx_hal_flash_ex.c ****   *          This parameter can be one of the following values:
1011:../../Drivers/STM32H7xx_HAL_Driver/Src/stm32h7xx_hal_flash_ex.c ****   *            @arg FLASH_BANK_1: disable WRP on specified bank1 sectors
1012:../../Drivers/STM32H7xx_HAL_Driver/Src/stm32h7xx_hal_flash_ex.c ****   *            @arg FLASH_BANK_2: disable WRP on specified bank2 sectors
1013:../../Drivers/STM32H7xx_HAL_Driver/Src/stm32h7xx_hal_flash_ex.c ****   *            @arg FLASH_BANK_BOTH: disable WRP on both bank1 and bank2 specified sectors
1014:../../Drivers/STM32H7xx_HAL_Driver/Src/stm32h7xx_hal_flash_ex.c ****   *
1015:../../Drivers/STM32H7xx_HAL_Driver/Src/stm32h7xx_hal_flash_ex.c ****   * @retval HAL FLASH State
1016:../../Drivers/STM32H7xx_HAL_Driver/Src/stm32h7xx_hal_flash_ex.c ****   */
1017:../../Drivers/STM32H7xx_HAL_Driver/Src/stm32h7xx_hal_flash_ex.c **** static void FLASH_OB_DisableWRP(uint32_t WRPSector, uint32_t Banks)
1018:../../Drivers/STM32H7xx_HAL_Driver/Src/stm32h7xx_hal_flash_ex.c **** {
 199              		.loc 1 1018 1 is_stmt 1 view -0
 200              		.cfi_startproc
 201              		@ args = 0, pretend = 0, frame = 0
 202              		@ frame_needed = 0, uses_anonymous_args = 0
 203              		@ link register save eliminated.
 204              		.loc 1 1018 1 is_stmt 0 view .LVU53
 205 0000 10B4     		push	{r4}
 206              	.LCFI2:
 207              		.cfi_def_cfa_offset 4
 208              		.cfi_offset 4, -4
1019:../../Drivers/STM32H7xx_HAL_Driver/Src/stm32h7xx_hal_flash_ex.c ****   /* Check the parameters */
1020:../../Drivers/STM32H7xx_HAL_Driver/Src/stm32h7xx_hal_flash_ex.c ****   assert_param(IS_OB_WRP_SECTOR(WRPSector));
 209              		.loc 1 1020 3 is_stmt 1 view .LVU54
1021:../../Drivers/STM32H7xx_HAL_Driver/Src/stm32h7xx_hal_flash_ex.c ****   assert_param(IS_FLASH_BANK(Banks));
 210              		.loc 1 1021 3 view .LVU55
1022:../../Drivers/STM32H7xx_HAL_Driver/Src/stm32h7xx_hal_flash_ex.c **** 
1023:../../Drivers/STM32H7xx_HAL_Driver/Src/stm32h7xx_hal_flash_ex.c ****   if((Banks & FLASH_BANK_1) == FLASH_BANK_1)
 211              		.loc 1 1023 3 view .LVU56
 212              		.loc 1 1023 5 is_stmt 0 view .LVU57
 213 0002 11F0010F 		tst	r1, #1
 214 0006 04D0     		beq	.L15
1024:../../Drivers/STM32H7xx_HAL_Driver/Src/stm32h7xx_hal_flash_ex.c ****   {
1025:../../Drivers/STM32H7xx_HAL_Driver/Src/stm32h7xx_hal_flash_ex.c ****     /* Disable Write Protection for bank 1 */
1026:../../Drivers/STM32H7xx_HAL_Driver/Src/stm32h7xx_hal_flash_ex.c ****     FLASH->WPSN_PRG1 |= (WRPSector & FLASH_WPSN_WRPSN);
 215              		.loc 1 1026 5 is_stmt 1 view .LVU58
 216              		.loc 1 1026 22 is_stmt 0 view .LVU59
 217 0008 084A     		ldr	r2, .L18
 218 000a D36B     		ldr	r3, [r2, #60]
 219              		.loc 1 1026 36 view .LVU60
 220 000c C4B2     		uxtb	r4, r0
 221              		.loc 1 1026 22 view .LVU61
 222 000e 2343     		orrs	r3, r3, r4
ARM GAS  /tmp/ccS8U376.s 			page 23


 223 0010 D363     		str	r3, [r2, #60]
 224              	.L15:
1027:../../Drivers/STM32H7xx_HAL_Driver/Src/stm32h7xx_hal_flash_ex.c ****   }
1028:../../Drivers/STM32H7xx_HAL_Driver/Src/stm32h7xx_hal_flash_ex.c **** 
1029:../../Drivers/STM32H7xx_HAL_Driver/Src/stm32h7xx_hal_flash_ex.c **** #if defined (DUAL_BANK)
1030:../../Drivers/STM32H7xx_HAL_Driver/Src/stm32h7xx_hal_flash_ex.c ****   if((Banks & FLASH_BANK_2) == FLASH_BANK_2)
 225              		.loc 1 1030 3 is_stmt 1 view .LVU62
 226              		.loc 1 1030 5 is_stmt 0 view .LVU63
 227 0012 11F0020F 		tst	r1, #2
 228 0016 06D0     		beq	.L14
1031:../../Drivers/STM32H7xx_HAL_Driver/Src/stm32h7xx_hal_flash_ex.c ****   {
1032:../../Drivers/STM32H7xx_HAL_Driver/Src/stm32h7xx_hal_flash_ex.c ****     /* Disable Write Protection for bank 2 */
1033:../../Drivers/STM32H7xx_HAL_Driver/Src/stm32h7xx_hal_flash_ex.c ****     FLASH->WPSN_PRG2 |= (WRPSector & FLASH_WPSN_WRPSN);
 229              		.loc 1 1033 5 is_stmt 1 view .LVU64
 230              		.loc 1 1033 22 is_stmt 0 view .LVU65
 231 0018 044A     		ldr	r2, .L18
 232 001a D2F83C31 		ldr	r3, [r2, #316]
 233              		.loc 1 1033 36 view .LVU66
 234 001e C0B2     		uxtb	r0, r0
 235              	.LVL7:
 236              		.loc 1 1033 22 view .LVU67
 237 0020 1843     		orrs	r0, r0, r3
 238 0022 C2F83C01 		str	r0, [r2, #316]
 239              	.L14:
1034:../../Drivers/STM32H7xx_HAL_Driver/Src/stm32h7xx_hal_flash_ex.c ****   }
1035:../../Drivers/STM32H7xx_HAL_Driver/Src/stm32h7xx_hal_flash_ex.c **** #endif /* DUAL_BANK */
1036:../../Drivers/STM32H7xx_HAL_Driver/Src/stm32h7xx_hal_flash_ex.c **** }
 240              		.loc 1 1036 1 view .LVU68
 241 0026 5DF8044B 		ldr	r4, [sp], #4
 242              	.LCFI3:
 243              		.cfi_restore 4
 244              		.cfi_def_cfa_offset 0
 245 002a 7047     		bx	lr
 246              	.L19:
 247              		.align	2
 248              	.L18:
 249 002c 00200052 		.word	1375739904
 250              		.cfi_endproc
 251              	.LFE156:
 253              		.section	.text.FLASH_OB_GetWRP,"ax",%progbits
 254              		.align	1
 255              		.syntax unified
 256              		.thumb
 257              		.thumb_func
 258              		.fpu fpv5-d16
 260              	FLASH_OB_GetWRP:
 261              	.LVL8:
 262              	.LFB157:
1037:../../Drivers/STM32H7xx_HAL_Driver/Src/stm32h7xx_hal_flash_ex.c **** 
1038:../../Drivers/STM32H7xx_HAL_Driver/Src/stm32h7xx_hal_flash_ex.c **** /**
1039:../../Drivers/STM32H7xx_HAL_Driver/Src/stm32h7xx_hal_flash_ex.c ****   * @brief  Get the write protection of the given bank 1 or bank 2 sectors
1040:../../Drivers/STM32H7xx_HAL_Driver/Src/stm32h7xx_hal_flash_ex.c ****   * @param  WRPState gives the write protection state on the given bank.
1041:../../Drivers/STM32H7xx_HAL_Driver/Src/stm32h7xx_hal_flash_ex.c ****   *          This parameter can be one of the following values:
1042:../../Drivers/STM32H7xx_HAL_Driver/Src/stm32h7xx_hal_flash_ex.c ****   *          @arg WRPState: OB_WRPSTATE_DISABLE or OB_WRPSTATE_ENABLE
1043:../../Drivers/STM32H7xx_HAL_Driver/Src/stm32h7xx_hal_flash_ex.c **** 
1044:../../Drivers/STM32H7xx_HAL_Driver/Src/stm32h7xx_hal_flash_ex.c ****   * @param  WRPSector gives the write protected sector(s) on the given bank .
1045:../../Drivers/STM32H7xx_HAL_Driver/Src/stm32h7xx_hal_flash_ex.c ****   *          This parameter can be one of the following values:
ARM GAS  /tmp/ccS8U376.s 			page 24


1046:../../Drivers/STM32H7xx_HAL_Driver/Src/stm32h7xx_hal_flash_ex.c ****   *          @arg WRPSector: A combination of FLASH_OB_WRP_SECTOR_0 to FLASH_OB_WRP_SECTOR_7 or FLA
1047:../../Drivers/STM32H7xx_HAL_Driver/Src/stm32h7xx_hal_flash_ex.c ****   *
1048:../../Drivers/STM32H7xx_HAL_Driver/Src/stm32h7xx_hal_flash_ex.c ****   * @param  Bank the specific bank to apply WRP sectors
1049:../../Drivers/STM32H7xx_HAL_Driver/Src/stm32h7xx_hal_flash_ex.c ****   *          This parameter can be exclusively one of the following values:
1050:../../Drivers/STM32H7xx_HAL_Driver/Src/stm32h7xx_hal_flash_ex.c ****   *            @arg FLASH_BANK_1: Get bank1 WRP sectors
1051:../../Drivers/STM32H7xx_HAL_Driver/Src/stm32h7xx_hal_flash_ex.c ****   *            @arg FLASH_BANK_2: Get bank2 WRP sectors
1052:../../Drivers/STM32H7xx_HAL_Driver/Src/stm32h7xx_hal_flash_ex.c ****   *            @arg FLASH_BANK_BOTH: note allowed in this functions
1053:../../Drivers/STM32H7xx_HAL_Driver/Src/stm32h7xx_hal_flash_ex.c ****   *
1054:../../Drivers/STM32H7xx_HAL_Driver/Src/stm32h7xx_hal_flash_ex.c ****   * @retval HAL FLASH State
1055:../../Drivers/STM32H7xx_HAL_Driver/Src/stm32h7xx_hal_flash_ex.c ****   */
1056:../../Drivers/STM32H7xx_HAL_Driver/Src/stm32h7xx_hal_flash_ex.c **** static void FLASH_OB_GetWRP(uint32_t *WRPState, uint32_t *WRPSector, uint32_t Bank)
1057:../../Drivers/STM32H7xx_HAL_Driver/Src/stm32h7xx_hal_flash_ex.c **** {
 263              		.loc 1 1057 1 is_stmt 1 view -0
 264              		.cfi_startproc
 265              		@ args = 0, pretend = 0, frame = 0
 266              		@ frame_needed = 0, uses_anonymous_args = 0
 267              		@ link register save eliminated.
1058:../../Drivers/STM32H7xx_HAL_Driver/Src/stm32h7xx_hal_flash_ex.c ****   uint32_t regvalue = 0U;
 268              		.loc 1 1058 3 view .LVU70
1059:../../Drivers/STM32H7xx_HAL_Driver/Src/stm32h7xx_hal_flash_ex.c **** 
1060:../../Drivers/STM32H7xx_HAL_Driver/Src/stm32h7xx_hal_flash_ex.c ****   if(Bank == FLASH_BANK_1)
 269              		.loc 1 1060 3 view .LVU71
 270              		.loc 1 1060 5 is_stmt 0 view .LVU72
 271 0000 012A     		cmp	r2, #1
 272 0002 08D0     		beq	.L26
1058:../../Drivers/STM32H7xx_HAL_Driver/Src/stm32h7xx_hal_flash_ex.c ****   uint32_t regvalue = 0U;
 273              		.loc 1 1058 12 view .LVU73
 274 0004 0023     		movs	r3, #0
 275              	.LVL9:
 276              	.L21:
1061:../../Drivers/STM32H7xx_HAL_Driver/Src/stm32h7xx_hal_flash_ex.c ****   {
1062:../../Drivers/STM32H7xx_HAL_Driver/Src/stm32h7xx_hal_flash_ex.c ****     regvalue = FLASH->WPSN_CUR1;
1063:../../Drivers/STM32H7xx_HAL_Driver/Src/stm32h7xx_hal_flash_ex.c ****   }
1064:../../Drivers/STM32H7xx_HAL_Driver/Src/stm32h7xx_hal_flash_ex.c **** 
1065:../../Drivers/STM32H7xx_HAL_Driver/Src/stm32h7xx_hal_flash_ex.c **** #if defined (DUAL_BANK)
1066:../../Drivers/STM32H7xx_HAL_Driver/Src/stm32h7xx_hal_flash_ex.c ****   if(Bank == FLASH_BANK_2)
 277              		.loc 1 1066 3 is_stmt 1 view .LVU74
 278              		.loc 1 1066 5 is_stmt 0 view .LVU75
 279 0006 022A     		cmp	r2, #2
 280 0008 08D0     		beq	.L27
 281              	.L22:
1067:../../Drivers/STM32H7xx_HAL_Driver/Src/stm32h7xx_hal_flash_ex.c ****   {
1068:../../Drivers/STM32H7xx_HAL_Driver/Src/stm32h7xx_hal_flash_ex.c ****     regvalue = FLASH->WPSN_CUR2;
1069:../../Drivers/STM32H7xx_HAL_Driver/Src/stm32h7xx_hal_flash_ex.c ****   }
1070:../../Drivers/STM32H7xx_HAL_Driver/Src/stm32h7xx_hal_flash_ex.c **** #endif /* DUAL_BANK */
1071:../../Drivers/STM32H7xx_HAL_Driver/Src/stm32h7xx_hal_flash_ex.c **** 
1072:../../Drivers/STM32H7xx_HAL_Driver/Src/stm32h7xx_hal_flash_ex.c ****   (*WRPSector) = (~regvalue) & FLASH_WPSN_WRPSN;
 282              		.loc 1 1072 3 is_stmt 1 view .LVU76
 283              		.loc 1 1072 19 is_stmt 0 view .LVU77
 284 000a DB43     		mvns	r3, r3
 285              	.LVL10:
 286              		.loc 1 1072 30 view .LVU78
 287 000c DBB2     		uxtb	r3, r3
 288              	.LVL11:
 289              		.loc 1 1072 16 view .LVU79
 290 000e 0B60     		str	r3, [r1]
1073:../../Drivers/STM32H7xx_HAL_Driver/Src/stm32h7xx_hal_flash_ex.c **** 
ARM GAS  /tmp/ccS8U376.s 			page 25


1074:../../Drivers/STM32H7xx_HAL_Driver/Src/stm32h7xx_hal_flash_ex.c ****   if(*WRPSector == 0U)
 291              		.loc 1 1074 3 is_stmt 1 view .LVU80
 292              		.loc 1 1074 5 is_stmt 0 view .LVU81
 293 0010 43B9     		cbnz	r3, .L23
1075:../../Drivers/STM32H7xx_HAL_Driver/Src/stm32h7xx_hal_flash_ex.c ****   {
1076:../../Drivers/STM32H7xx_HAL_Driver/Src/stm32h7xx_hal_flash_ex.c ****     (*WRPState) = OB_WRPSTATE_DISABLE;
 294              		.loc 1 1076 5 is_stmt 1 view .LVU82
 295              		.loc 1 1076 17 is_stmt 0 view .LVU83
 296 0012 0360     		str	r3, [r0]
 297 0014 7047     		bx	lr
 298              	.LVL12:
 299              	.L26:
1062:../../Drivers/STM32H7xx_HAL_Driver/Src/stm32h7xx_hal_flash_ex.c ****   }
 300              		.loc 1 1062 5 is_stmt 1 view .LVU84
1062:../../Drivers/STM32H7xx_HAL_Driver/Src/stm32h7xx_hal_flash_ex.c ****   }
 301              		.loc 1 1062 14 is_stmt 0 view .LVU85
 302 0016 054B     		ldr	r3, .L28
 303 0018 9B6B     		ldr	r3, [r3, #56]
 304              	.LVL13:
1062:../../Drivers/STM32H7xx_HAL_Driver/Src/stm32h7xx_hal_flash_ex.c ****   }
 305              		.loc 1 1062 14 view .LVU86
 306 001a F4E7     		b	.L21
 307              	.L27:
1068:../../Drivers/STM32H7xx_HAL_Driver/Src/stm32h7xx_hal_flash_ex.c ****   }
 308              		.loc 1 1068 5 is_stmt 1 view .LVU87
1068:../../Drivers/STM32H7xx_HAL_Driver/Src/stm32h7xx_hal_flash_ex.c ****   }
 309              		.loc 1 1068 14 is_stmt 0 view .LVU88
 310 001c 034B     		ldr	r3, .L28
 311              	.LVL14:
1068:../../Drivers/STM32H7xx_HAL_Driver/Src/stm32h7xx_hal_flash_ex.c ****   }
 312              		.loc 1 1068 14 view .LVU89
 313 001e D3F83831 		ldr	r3, [r3, #312]
 314              	.LVL15:
1068:../../Drivers/STM32H7xx_HAL_Driver/Src/stm32h7xx_hal_flash_ex.c ****   }
 315              		.loc 1 1068 14 view .LVU90
 316 0022 F2E7     		b	.L22
 317              	.LVL16:
 318              	.L23:
1077:../../Drivers/STM32H7xx_HAL_Driver/Src/stm32h7xx_hal_flash_ex.c ****   }
1078:../../Drivers/STM32H7xx_HAL_Driver/Src/stm32h7xx_hal_flash_ex.c ****   else
1079:../../Drivers/STM32H7xx_HAL_Driver/Src/stm32h7xx_hal_flash_ex.c ****   {
1080:../../Drivers/STM32H7xx_HAL_Driver/Src/stm32h7xx_hal_flash_ex.c ****     (*WRPState) = OB_WRPSTATE_ENABLE;
 319              		.loc 1 1080 5 is_stmt 1 view .LVU91
 320              		.loc 1 1080 17 is_stmt 0 view .LVU92
 321 0024 0123     		movs	r3, #1
 322 0026 0360     		str	r3, [r0]
1081:../../Drivers/STM32H7xx_HAL_Driver/Src/stm32h7xx_hal_flash_ex.c ****   }
1082:../../Drivers/STM32H7xx_HAL_Driver/Src/stm32h7xx_hal_flash_ex.c **** }
 323              		.loc 1 1082 1 view .LVU93
 324 0028 7047     		bx	lr
 325              	.L29:
 326 002a 00BF     		.align	2
 327              	.L28:
 328 002c 00200052 		.word	1375739904
 329              		.cfi_endproc
 330              	.LFE157:
 332              		.section	.text.FLASH_OB_RDPConfig,"ax",%progbits
ARM GAS  /tmp/ccS8U376.s 			page 26


 333              		.align	1
 334              		.syntax unified
 335              		.thumb
 336              		.thumb_func
 337              		.fpu fpv5-d16
 339              	FLASH_OB_RDPConfig:
 340              	.LVL17:
 341              	.LFB158:
1083:../../Drivers/STM32H7xx_HAL_Driver/Src/stm32h7xx_hal_flash_ex.c **** 
1084:../../Drivers/STM32H7xx_HAL_Driver/Src/stm32h7xx_hal_flash_ex.c **** /**
1085:../../Drivers/STM32H7xx_HAL_Driver/Src/stm32h7xx_hal_flash_ex.c ****   * @brief  Set the read protection level.
1086:../../Drivers/STM32H7xx_HAL_Driver/Src/stm32h7xx_hal_flash_ex.c ****   *
1087:../../Drivers/STM32H7xx_HAL_Driver/Src/stm32h7xx_hal_flash_ex.c ****   * @note   To configure the RDP level, the option lock bit OPTLOCK must be
1088:../../Drivers/STM32H7xx_HAL_Driver/Src/stm32h7xx_hal_flash_ex.c ****   *         cleared with the call of the HAL_FLASH_OB_Unlock() function.
1089:../../Drivers/STM32H7xx_HAL_Driver/Src/stm32h7xx_hal_flash_ex.c ****   * @note   To validate the RDP level, the option bytes must be reloaded
1090:../../Drivers/STM32H7xx_HAL_Driver/Src/stm32h7xx_hal_flash_ex.c ****   *         through the call of the HAL_FLASH_OB_Launch() function.
1091:../../Drivers/STM32H7xx_HAL_Driver/Src/stm32h7xx_hal_flash_ex.c ****   * @note   !!! Warning : When enabling OB_RDP level 2 it's no more possible
1092:../../Drivers/STM32H7xx_HAL_Driver/Src/stm32h7xx_hal_flash_ex.c ****   *         to go back to level 1 or 0 !!!
1093:../../Drivers/STM32H7xx_HAL_Driver/Src/stm32h7xx_hal_flash_ex.c ****   *
1094:../../Drivers/STM32H7xx_HAL_Driver/Src/stm32h7xx_hal_flash_ex.c ****   * @param  RDPLevel specifies the read protection level.
1095:../../Drivers/STM32H7xx_HAL_Driver/Src/stm32h7xx_hal_flash_ex.c ****   *         This parameter can be one of the following values:
1096:../../Drivers/STM32H7xx_HAL_Driver/Src/stm32h7xx_hal_flash_ex.c ****   *            @arg OB_RDP_LEVEL_0: No protection
1097:../../Drivers/STM32H7xx_HAL_Driver/Src/stm32h7xx_hal_flash_ex.c ****   *            @arg OB_RDP_LEVEL_1: Read protection of the memory
1098:../../Drivers/STM32H7xx_HAL_Driver/Src/stm32h7xx_hal_flash_ex.c ****   *            @arg OB_RDP_LEVEL_2: Full chip protection
1099:../../Drivers/STM32H7xx_HAL_Driver/Src/stm32h7xx_hal_flash_ex.c ****   *
1100:../../Drivers/STM32H7xx_HAL_Driver/Src/stm32h7xx_hal_flash_ex.c ****   * @retval HAL status
1101:../../Drivers/STM32H7xx_HAL_Driver/Src/stm32h7xx_hal_flash_ex.c ****   */
1102:../../Drivers/STM32H7xx_HAL_Driver/Src/stm32h7xx_hal_flash_ex.c **** static void FLASH_OB_RDPConfig(uint32_t RDPLevel)
1103:../../Drivers/STM32H7xx_HAL_Driver/Src/stm32h7xx_hal_flash_ex.c **** {
 342              		.loc 1 1103 1 is_stmt 1 view -0
 343              		.cfi_startproc
 344              		@ args = 0, pretend = 0, frame = 0
 345              		@ frame_needed = 0, uses_anonymous_args = 0
 346              		@ link register save eliminated.
1104:../../Drivers/STM32H7xx_HAL_Driver/Src/stm32h7xx_hal_flash_ex.c ****   /* Check the parameters */
1105:../../Drivers/STM32H7xx_HAL_Driver/Src/stm32h7xx_hal_flash_ex.c ****   assert_param(IS_OB_RDP_LEVEL(RDPLevel));
 347              		.loc 1 1105 3 view .LVU95
1106:../../Drivers/STM32H7xx_HAL_Driver/Src/stm32h7xx_hal_flash_ex.c **** 
1107:../../Drivers/STM32H7xx_HAL_Driver/Src/stm32h7xx_hal_flash_ex.c ****   /* Configure the RDP level in the option bytes register */
1108:../../Drivers/STM32H7xx_HAL_Driver/Src/stm32h7xx_hal_flash_ex.c ****   MODIFY_REG(FLASH->OPTSR_PRG, FLASH_OPTSR_RDP, RDPLevel);
 348              		.loc 1 1108 3 view .LVU96
 349 0000 034A     		ldr	r2, .L31
 350 0002 136A     		ldr	r3, [r2, #32]
 351 0004 23F47F43 		bic	r3, r3, #65280
 352 0008 0343     		orrs	r3, r3, r0
 353 000a 1362     		str	r3, [r2, #32]
1109:../../Drivers/STM32H7xx_HAL_Driver/Src/stm32h7xx_hal_flash_ex.c **** }
 354              		.loc 1 1109 1 is_stmt 0 view .LVU97
 355 000c 7047     		bx	lr
 356              	.L32:
 357 000e 00BF     		.align	2
 358              	.L31:
 359 0010 00200052 		.word	1375739904
 360              		.cfi_endproc
 361              	.LFE158:
 363              		.section	.text.FLASH_OB_GetRDP,"ax",%progbits
 364              		.align	1
ARM GAS  /tmp/ccS8U376.s 			page 27


 365              		.syntax unified
 366              		.thumb
 367              		.thumb_func
 368              		.fpu fpv5-d16
 370              	FLASH_OB_GetRDP:
 371              	.LFB159:
1110:../../Drivers/STM32H7xx_HAL_Driver/Src/stm32h7xx_hal_flash_ex.c **** 
1111:../../Drivers/STM32H7xx_HAL_Driver/Src/stm32h7xx_hal_flash_ex.c **** /**
1112:../../Drivers/STM32H7xx_HAL_Driver/Src/stm32h7xx_hal_flash_ex.c ****   * @brief  Get the read protection level.
1113:../../Drivers/STM32H7xx_HAL_Driver/Src/stm32h7xx_hal_flash_ex.c ****   * @retval RDPLevel specifies the read protection level.
1114:../../Drivers/STM32H7xx_HAL_Driver/Src/stm32h7xx_hal_flash_ex.c ****   *         This return value can be one of the following values:
1115:../../Drivers/STM32H7xx_HAL_Driver/Src/stm32h7xx_hal_flash_ex.c ****   *            @arg OB_RDP_LEVEL_0: No protection
1116:../../Drivers/STM32H7xx_HAL_Driver/Src/stm32h7xx_hal_flash_ex.c ****   *            @arg OB_RDP_LEVEL_1: Read protection of the memory
1117:../../Drivers/STM32H7xx_HAL_Driver/Src/stm32h7xx_hal_flash_ex.c ****   *            @arg OB_RDP_LEVEL_2: Full chip protection
1118:../../Drivers/STM32H7xx_HAL_Driver/Src/stm32h7xx_hal_flash_ex.c ****   */
1119:../../Drivers/STM32H7xx_HAL_Driver/Src/stm32h7xx_hal_flash_ex.c **** static uint32_t FLASH_OB_GetRDP(void)
1120:../../Drivers/STM32H7xx_HAL_Driver/Src/stm32h7xx_hal_flash_ex.c **** {
 372              		.loc 1 1120 1 is_stmt 1 view -0
 373              		.cfi_startproc
 374              		@ args = 0, pretend = 0, frame = 0
 375              		@ frame_needed = 0, uses_anonymous_args = 0
 376              		@ link register save eliminated.
1121:../../Drivers/STM32H7xx_HAL_Driver/Src/stm32h7xx_hal_flash_ex.c ****   uint32_t rdp_level = READ_BIT(FLASH->OPTSR_CUR, FLASH_OPTSR_RDP);
 377              		.loc 1 1121 3 view .LVU99
 378              		.loc 1 1121 24 is_stmt 0 view .LVU100
 379 0000 064B     		ldr	r3, .L36
 380 0002 D869     		ldr	r0, [r3, #28]
 381              		.loc 1 1121 12 view .LVU101
 382 0004 00F47F40 		and	r0, r0, #65280
 383              	.LVL18:
1122:../../Drivers/STM32H7xx_HAL_Driver/Src/stm32h7xx_hal_flash_ex.c ****   
1123:../../Drivers/STM32H7xx_HAL_Driver/Src/stm32h7xx_hal_flash_ex.c ****   if ((rdp_level != OB_RDP_LEVEL_0) && (rdp_level != OB_RDP_LEVEL_2))
 384              		.loc 1 1123 3 is_stmt 1 view .LVU102
 385              		.loc 1 1123 6 is_stmt 0 view .LVU103
 386 0008 B0F52A4F 		cmp	r0, #43520
 387 000c 18BF     		it	ne
 388 000e B0F54C4F 		cmpne	r0, #52224
 389 0012 00D1     		bne	.L35
 390              	.LVL19:
 391              	.L33:
1124:../../Drivers/STM32H7xx_HAL_Driver/Src/stm32h7xx_hal_flash_ex.c ****   {
1125:../../Drivers/STM32H7xx_HAL_Driver/Src/stm32h7xx_hal_flash_ex.c ****     return (OB_RDP_LEVEL_1);
1126:../../Drivers/STM32H7xx_HAL_Driver/Src/stm32h7xx_hal_flash_ex.c ****   }
1127:../../Drivers/STM32H7xx_HAL_Driver/Src/stm32h7xx_hal_flash_ex.c ****   else
1128:../../Drivers/STM32H7xx_HAL_Driver/Src/stm32h7xx_hal_flash_ex.c ****   {
1129:../../Drivers/STM32H7xx_HAL_Driver/Src/stm32h7xx_hal_flash_ex.c ****     return rdp_level;
1130:../../Drivers/STM32H7xx_HAL_Driver/Src/stm32h7xx_hal_flash_ex.c ****   }
1131:../../Drivers/STM32H7xx_HAL_Driver/Src/stm32h7xx_hal_flash_ex.c **** }
 392              		.loc 1 1131 1 view .LVU104
 393 0014 7047     		bx	lr
 394              	.LVL20:
 395              	.L35:
1125:../../Drivers/STM32H7xx_HAL_Driver/Src/stm32h7xx_hal_flash_ex.c ****   }
 396              		.loc 1 1125 12 view .LVU105
 397 0016 4FF4AA40 		mov	r0, #21760
 398              	.LVL21:
1125:../../Drivers/STM32H7xx_HAL_Driver/Src/stm32h7xx_hal_flash_ex.c ****   }
ARM GAS  /tmp/ccS8U376.s 			page 28


 399              		.loc 1 1125 12 view .LVU106
 400 001a FBE7     		b	.L33
 401              	.L37:
 402              		.align	2
 403              	.L36:
 404 001c 00200052 		.word	1375739904
 405              		.cfi_endproc
 406              	.LFE159:
 408              		.section	.text.FLASH_OB_UserConfig,"ax",%progbits
 409              		.align	1
 410              		.syntax unified
 411              		.thumb
 412              		.thumb_func
 413              		.fpu fpv5-d16
 415              	FLASH_OB_UserConfig:
 416              	.LVL22:
 417              	.LFB160:
1132:../../Drivers/STM32H7xx_HAL_Driver/Src/stm32h7xx_hal_flash_ex.c **** 
1133:../../Drivers/STM32H7xx_HAL_Driver/Src/stm32h7xx_hal_flash_ex.c **** #if defined(DUAL_CORE)
1134:../../Drivers/STM32H7xx_HAL_Driver/Src/stm32h7xx_hal_flash_ex.c **** /**
1135:../../Drivers/STM32H7xx_HAL_Driver/Src/stm32h7xx_hal_flash_ex.c ****   * @brief  Program the FLASH User Option Byte.
1136:../../Drivers/STM32H7xx_HAL_Driver/Src/stm32h7xx_hal_flash_ex.c ****   *
1137:../../Drivers/STM32H7xx_HAL_Driver/Src/stm32h7xx_hal_flash_ex.c ****   * @note   To configure the user option bytes, the option lock bit OPTLOCK must
1138:../../Drivers/STM32H7xx_HAL_Driver/Src/stm32h7xx_hal_flash_ex.c ****   *         be cleared with the call of the HAL_FLASH_OB_Unlock() function.
1139:../../Drivers/STM32H7xx_HAL_Driver/Src/stm32h7xx_hal_flash_ex.c ****   *
1140:../../Drivers/STM32H7xx_HAL_Driver/Src/stm32h7xx_hal_flash_ex.c ****   * @note   To validate the user option bytes, the option bytes must be reloaded
1141:../../Drivers/STM32H7xx_HAL_Driver/Src/stm32h7xx_hal_flash_ex.c ****   *         through the call of the HAL_FLASH_OB_Launch() function.
1142:../../Drivers/STM32H7xx_HAL_Driver/Src/stm32h7xx_hal_flash_ex.c ****   *
1143:../../Drivers/STM32H7xx_HAL_Driver/Src/stm32h7xx_hal_flash_ex.c ****   * @param  UserType The FLASH User Option Bytes to be modified :
1144:../../Drivers/STM32H7xx_HAL_Driver/Src/stm32h7xx_hal_flash_ex.c ****   *                   a combination of @ref FLASHEx_OB_USER_Type
1145:../../Drivers/STM32H7xx_HAL_Driver/Src/stm32h7xx_hal_flash_ex.c ****   *
1146:../../Drivers/STM32H7xx_HAL_Driver/Src/stm32h7xx_hal_flash_ex.c ****   * @param  UserConfig The FLASH User Option Bytes values:
1147:../../Drivers/STM32H7xx_HAL_Driver/Src/stm32h7xx_hal_flash_ex.c ****   *         IWDG1_SW(Bit4), IWDG2_SW(Bit 5), nRST_STOP_D1(Bit 6), nRST_STDY_D1(Bit 7),
1148:../../Drivers/STM32H7xx_HAL_Driver/Src/stm32h7xx_hal_flash_ex.c ****   *         FZ_IWDG_STOP(Bit 17), FZ_IWDG_SDBY(Bit 18), ST_RAM_SIZE(Bit[19:20]),
1149:../../Drivers/STM32H7xx_HAL_Driver/Src/stm32h7xx_hal_flash_ex.c ****   *         SECURITY(Bit 21), BCM4(Bit 22), BCM7(Bit 23), nRST_STOP_D2(Bit 24),
1150:../../Drivers/STM32H7xx_HAL_Driver/Src/stm32h7xx_hal_flash_ex.c ****   *         nRST_STDY_D2(Bit 25), IO_HSLV (Bit 29) and SWAP_BANK_OPT(Bit 31).
1151:../../Drivers/STM32H7xx_HAL_Driver/Src/stm32h7xx_hal_flash_ex.c ****   *
1152:../../Drivers/STM32H7xx_HAL_Driver/Src/stm32h7xx_hal_flash_ex.c ****   * @retval HAL status
1153:../../Drivers/STM32H7xx_HAL_Driver/Src/stm32h7xx_hal_flash_ex.c ****   */
1154:../../Drivers/STM32H7xx_HAL_Driver/Src/stm32h7xx_hal_flash_ex.c **** #else
1155:../../Drivers/STM32H7xx_HAL_Driver/Src/stm32h7xx_hal_flash_ex.c **** /**
1156:../../Drivers/STM32H7xx_HAL_Driver/Src/stm32h7xx_hal_flash_ex.c ****   * @brief  Program the FLASH User Option Byte.
1157:../../Drivers/STM32H7xx_HAL_Driver/Src/stm32h7xx_hal_flash_ex.c ****   *
1158:../../Drivers/STM32H7xx_HAL_Driver/Src/stm32h7xx_hal_flash_ex.c ****   * @note   To configure the user option bytes, the option lock bit OPTLOCK must
1159:../../Drivers/STM32H7xx_HAL_Driver/Src/stm32h7xx_hal_flash_ex.c ****   *         be cleared with the call of the HAL_FLASH_OB_Unlock() function.
1160:../../Drivers/STM32H7xx_HAL_Driver/Src/stm32h7xx_hal_flash_ex.c ****   *
1161:../../Drivers/STM32H7xx_HAL_Driver/Src/stm32h7xx_hal_flash_ex.c ****   * @note   To validate the user option bytes, the option bytes must be reloaded
1162:../../Drivers/STM32H7xx_HAL_Driver/Src/stm32h7xx_hal_flash_ex.c ****   *         through the call of the HAL_FLASH_OB_Launch() function.
1163:../../Drivers/STM32H7xx_HAL_Driver/Src/stm32h7xx_hal_flash_ex.c ****   *
1164:../../Drivers/STM32H7xx_HAL_Driver/Src/stm32h7xx_hal_flash_ex.c ****   * @param  UserType The FLASH User Option Bytes to be modified :
1165:../../Drivers/STM32H7xx_HAL_Driver/Src/stm32h7xx_hal_flash_ex.c ****   *                   a combination of @arg FLASHEx_OB_USER_Type
1166:../../Drivers/STM32H7xx_HAL_Driver/Src/stm32h7xx_hal_flash_ex.c ****   *
1167:../../Drivers/STM32H7xx_HAL_Driver/Src/stm32h7xx_hal_flash_ex.c ****   * @param  UserConfig The FLASH User Option Bytes values:
1168:../../Drivers/STM32H7xx_HAL_Driver/Src/stm32h7xx_hal_flash_ex.c ****   *         IWDG_SW(Bit4), nRST_STOP_D1(Bit 6), nRST_STDY_D1(Bit 7),
1169:../../Drivers/STM32H7xx_HAL_Driver/Src/stm32h7xx_hal_flash_ex.c ****   *         FZ_IWDG_STOP(Bit 17), FZ_IWDG_SDBY(Bit 18), ST_RAM_SIZE(Bit[19:20]),
1170:../../Drivers/STM32H7xx_HAL_Driver/Src/stm32h7xx_hal_flash_ex.c ****   *         SECURITY(Bit 21), IO_HSLV (Bit 29) and SWAP_BANK_OPT(Bit 31).
1171:../../Drivers/STM32H7xx_HAL_Driver/Src/stm32h7xx_hal_flash_ex.c ****   *
ARM GAS  /tmp/ccS8U376.s 			page 29


1172:../../Drivers/STM32H7xx_HAL_Driver/Src/stm32h7xx_hal_flash_ex.c ****   * @retval HAL status
1173:../../Drivers/STM32H7xx_HAL_Driver/Src/stm32h7xx_hal_flash_ex.c ****   */
1174:../../Drivers/STM32H7xx_HAL_Driver/Src/stm32h7xx_hal_flash_ex.c **** #endif /*DUAL_CORE*/
1175:../../Drivers/STM32H7xx_HAL_Driver/Src/stm32h7xx_hal_flash_ex.c **** static void FLASH_OB_UserConfig(uint32_t UserType, uint32_t UserConfig)
1176:../../Drivers/STM32H7xx_HAL_Driver/Src/stm32h7xx_hal_flash_ex.c **** {
 418              		.loc 1 1176 1 is_stmt 1 view -0
 419              		.cfi_startproc
 420              		@ args = 0, pretend = 0, frame = 0
 421              		@ frame_needed = 0, uses_anonymous_args = 0
 422              		@ link register save eliminated.
 423              		.loc 1 1176 1 is_stmt 0 view .LVU108
 424 0000 30B4     		push	{r4, r5}
 425              	.LCFI4:
 426              		.cfi_def_cfa_offset 8
 427              		.cfi_offset 4, -8
 428              		.cfi_offset 5, -4
1177:../../Drivers/STM32H7xx_HAL_Driver/Src/stm32h7xx_hal_flash_ex.c ****   uint32_t optr_reg_val = 0;
 429              		.loc 1 1177 3 is_stmt 1 view .LVU109
 430              	.LVL23:
1178:../../Drivers/STM32H7xx_HAL_Driver/Src/stm32h7xx_hal_flash_ex.c ****   uint32_t optr_reg_mask = 0;
 431              		.loc 1 1178 3 view .LVU110
1179:../../Drivers/STM32H7xx_HAL_Driver/Src/stm32h7xx_hal_flash_ex.c **** 
1180:../../Drivers/STM32H7xx_HAL_Driver/Src/stm32h7xx_hal_flash_ex.c ****   /* Check the parameters */
1181:../../Drivers/STM32H7xx_HAL_Driver/Src/stm32h7xx_hal_flash_ex.c ****   assert_param(IS_OB_USER_TYPE(UserType));
 432              		.loc 1 1181 3 view .LVU111
1182:../../Drivers/STM32H7xx_HAL_Driver/Src/stm32h7xx_hal_flash_ex.c **** 
1183:../../Drivers/STM32H7xx_HAL_Driver/Src/stm32h7xx_hal_flash_ex.c ****   if((UserType & OB_USER_IWDG1_SW) != 0U)
 433              		.loc 1 1183 3 view .LVU112
 434              		.loc 1 1183 5 is_stmt 0 view .LVU113
 435 0002 10F00104 		ands	r4, r0, #1
 436 0006 72D0     		beq	.L53
1184:../../Drivers/STM32H7xx_HAL_Driver/Src/stm32h7xx_hal_flash_ex.c ****   {
1185:../../Drivers/STM32H7xx_HAL_Driver/Src/stm32h7xx_hal_flash_ex.c ****     /* IWDG_HW option byte should be modified */
1186:../../Drivers/STM32H7xx_HAL_Driver/Src/stm32h7xx_hal_flash_ex.c ****     assert_param(IS_OB_IWDG1_SOURCE(UserConfig & FLASH_OPTSR_IWDG1_SW));
 437              		.loc 1 1186 5 is_stmt 1 view .LVU114
1187:../../Drivers/STM32H7xx_HAL_Driver/Src/stm32h7xx_hal_flash_ex.c **** 
1188:../../Drivers/STM32H7xx_HAL_Driver/Src/stm32h7xx_hal_flash_ex.c ****     /* Set value and mask for IWDG_HW option byte */
1189:../../Drivers/STM32H7xx_HAL_Driver/Src/stm32h7xx_hal_flash_ex.c ****     optr_reg_val |= (UserConfig & FLASH_OPTSR_IWDG1_SW);
 438              		.loc 1 1189 5 view .LVU115
 439              		.loc 1 1189 33 is_stmt 0 view .LVU116
 440 0008 01F01004 		and	r4, r1, #16
 441              	.LVL24:
1190:../../Drivers/STM32H7xx_HAL_Driver/Src/stm32h7xx_hal_flash_ex.c ****     optr_reg_mask |= FLASH_OPTSR_IWDG1_SW;
 442              		.loc 1 1190 5 is_stmt 1 view .LVU117
 443              		.loc 1 1190 19 is_stmt 0 view .LVU118
 444 000c 1025     		movs	r5, #16
 445              	.LVL25:
 446              	.L39:
1191:../../Drivers/STM32H7xx_HAL_Driver/Src/stm32h7xx_hal_flash_ex.c ****   }
1192:../../Drivers/STM32H7xx_HAL_Driver/Src/stm32h7xx_hal_flash_ex.c **** #if defined(DUAL_CORE)
1193:../../Drivers/STM32H7xx_HAL_Driver/Src/stm32h7xx_hal_flash_ex.c ****   if((UserType & OB_USER_IWDG2_SW) != 0U)
 447              		.loc 1 1193 3 is_stmt 1 view .LVU119
 448              		.loc 1 1193 5 is_stmt 0 view .LVU120
 449 000e 10F4007F 		tst	r0, #512
 450 0012 04D0     		beq	.L40
1194:../../Drivers/STM32H7xx_HAL_Driver/Src/stm32h7xx_hal_flash_ex.c ****   {
1195:../../Drivers/STM32H7xx_HAL_Driver/Src/stm32h7xx_hal_flash_ex.c ****     /* IWDG2_SW option byte should be modified */
ARM GAS  /tmp/ccS8U376.s 			page 30


1196:../../Drivers/STM32H7xx_HAL_Driver/Src/stm32h7xx_hal_flash_ex.c ****     assert_param(IS_OB_IWDG2_SOURCE(UserConfig & FLASH_OPTSR_IWDG2_SW));
 451              		.loc 1 1196 5 is_stmt 1 view .LVU121
1197:../../Drivers/STM32H7xx_HAL_Driver/Src/stm32h7xx_hal_flash_ex.c **** 
1198:../../Drivers/STM32H7xx_HAL_Driver/Src/stm32h7xx_hal_flash_ex.c ****     /* Set value and mask for IWDG2_SW option byte */
1199:../../Drivers/STM32H7xx_HAL_Driver/Src/stm32h7xx_hal_flash_ex.c ****     optr_reg_val |= (UserConfig & FLASH_OPTSR_IWDG2_SW);
 452              		.loc 1 1199 5 view .LVU122
 453              		.loc 1 1199 33 is_stmt 0 view .LVU123
 454 0014 01F02003 		and	r3, r1, #32
 455              		.loc 1 1199 18 view .LVU124
 456 0018 1C43     		orrs	r4, r4, r3
 457              	.LVL26:
1200:../../Drivers/STM32H7xx_HAL_Driver/Src/stm32h7xx_hal_flash_ex.c ****     optr_reg_mask |= FLASH_OPTSR_IWDG2_SW;
 458              		.loc 1 1200 5 is_stmt 1 view .LVU125
 459              		.loc 1 1200 19 is_stmt 0 view .LVU126
 460 001a 45F02005 		orr	r5, r5, #32
 461              	.LVL27:
 462              	.L40:
1201:../../Drivers/STM32H7xx_HAL_Driver/Src/stm32h7xx_hal_flash_ex.c ****   }
1202:../../Drivers/STM32H7xx_HAL_Driver/Src/stm32h7xx_hal_flash_ex.c **** #endif /*DUAL_CORE*/
1203:../../Drivers/STM32H7xx_HAL_Driver/Src/stm32h7xx_hal_flash_ex.c ****   if((UserType & OB_USER_NRST_STOP_D1) != 0U)
 463              		.loc 1 1203 3 is_stmt 1 view .LVU127
 464              		.loc 1 1203 5 is_stmt 0 view .LVU128
 465 001e 10F0020F 		tst	r0, #2
 466 0022 04D0     		beq	.L41
1204:../../Drivers/STM32H7xx_HAL_Driver/Src/stm32h7xx_hal_flash_ex.c ****   {
1205:../../Drivers/STM32H7xx_HAL_Driver/Src/stm32h7xx_hal_flash_ex.c ****     /* NRST_STOP option byte should be modified */
1206:../../Drivers/STM32H7xx_HAL_Driver/Src/stm32h7xx_hal_flash_ex.c ****     assert_param(IS_OB_STOP_D1_RESET(UserConfig & FLASH_OPTSR_NRST_STOP_D1));
 467              		.loc 1 1206 5 is_stmt 1 view .LVU129
1207:../../Drivers/STM32H7xx_HAL_Driver/Src/stm32h7xx_hal_flash_ex.c **** 
1208:../../Drivers/STM32H7xx_HAL_Driver/Src/stm32h7xx_hal_flash_ex.c ****     /* Set value and mask for NRST_STOP option byte */
1209:../../Drivers/STM32H7xx_HAL_Driver/Src/stm32h7xx_hal_flash_ex.c ****     optr_reg_val |= (UserConfig & FLASH_OPTSR_NRST_STOP_D1);
 468              		.loc 1 1209 5 view .LVU130
 469              		.loc 1 1209 33 is_stmt 0 view .LVU131
 470 0024 01F04003 		and	r3, r1, #64
 471              		.loc 1 1209 18 view .LVU132
 472 0028 1C43     		orrs	r4, r4, r3
 473              	.LVL28:
1210:../../Drivers/STM32H7xx_HAL_Driver/Src/stm32h7xx_hal_flash_ex.c ****     optr_reg_mask |= FLASH_OPTSR_NRST_STOP_D1;
 474              		.loc 1 1210 5 is_stmt 1 view .LVU133
 475              		.loc 1 1210 19 is_stmt 0 view .LVU134
 476 002a 45F04005 		orr	r5, r5, #64
 477              	.LVL29:
 478              	.L41:
1211:../../Drivers/STM32H7xx_HAL_Driver/Src/stm32h7xx_hal_flash_ex.c ****   }
1212:../../Drivers/STM32H7xx_HAL_Driver/Src/stm32h7xx_hal_flash_ex.c **** 
1213:../../Drivers/STM32H7xx_HAL_Driver/Src/stm32h7xx_hal_flash_ex.c ****   if((UserType & OB_USER_NRST_STDBY_D1) != 0U)
 479              		.loc 1 1213 3 is_stmt 1 view .LVU135
 480              		.loc 1 1213 5 is_stmt 0 view .LVU136
 481 002e 10F0040F 		tst	r0, #4
 482 0032 04D0     		beq	.L42
1214:../../Drivers/STM32H7xx_HAL_Driver/Src/stm32h7xx_hal_flash_ex.c ****   {
1215:../../Drivers/STM32H7xx_HAL_Driver/Src/stm32h7xx_hal_flash_ex.c ****     /* NRST_STDBY option byte should be modified */
1216:../../Drivers/STM32H7xx_HAL_Driver/Src/stm32h7xx_hal_flash_ex.c ****     assert_param(IS_OB_STDBY_D1_RESET(UserConfig & FLASH_OPTSR_NRST_STBY_D1));
 483              		.loc 1 1216 5 is_stmt 1 view .LVU137
1217:../../Drivers/STM32H7xx_HAL_Driver/Src/stm32h7xx_hal_flash_ex.c **** 
1218:../../Drivers/STM32H7xx_HAL_Driver/Src/stm32h7xx_hal_flash_ex.c ****     /* Set value and mask for NRST_STDBY option byte */
1219:../../Drivers/STM32H7xx_HAL_Driver/Src/stm32h7xx_hal_flash_ex.c ****     optr_reg_val |= (UserConfig & FLASH_OPTSR_NRST_STBY_D1);
ARM GAS  /tmp/ccS8U376.s 			page 31


 484              		.loc 1 1219 5 view .LVU138
 485              		.loc 1 1219 33 is_stmt 0 view .LVU139
 486 0034 01F08003 		and	r3, r1, #128
 487              		.loc 1 1219 18 view .LVU140
 488 0038 1C43     		orrs	r4, r4, r3
 489              	.LVL30:
1220:../../Drivers/STM32H7xx_HAL_Driver/Src/stm32h7xx_hal_flash_ex.c ****     optr_reg_mask |= FLASH_OPTSR_NRST_STBY_D1;
 490              		.loc 1 1220 5 is_stmt 1 view .LVU141
 491              		.loc 1 1220 19 is_stmt 0 view .LVU142
 492 003a 45F08005 		orr	r5, r5, #128
 493              	.LVL31:
 494              	.L42:
1221:../../Drivers/STM32H7xx_HAL_Driver/Src/stm32h7xx_hal_flash_ex.c ****   }
1222:../../Drivers/STM32H7xx_HAL_Driver/Src/stm32h7xx_hal_flash_ex.c **** 
1223:../../Drivers/STM32H7xx_HAL_Driver/Src/stm32h7xx_hal_flash_ex.c ****   if((UserType & OB_USER_IWDG_STOP) != 0U)
 495              		.loc 1 1223 3 is_stmt 1 view .LVU143
 496              		.loc 1 1223 5 is_stmt 0 view .LVU144
 497 003e 10F0080F 		tst	r0, #8
 498 0042 04D0     		beq	.L43
1224:../../Drivers/STM32H7xx_HAL_Driver/Src/stm32h7xx_hal_flash_ex.c ****   {
1225:../../Drivers/STM32H7xx_HAL_Driver/Src/stm32h7xx_hal_flash_ex.c ****     /* IWDG_STOP option byte should be modified */
1226:../../Drivers/STM32H7xx_HAL_Driver/Src/stm32h7xx_hal_flash_ex.c ****     assert_param(IS_OB_USER_IWDG_STOP(UserConfig & FLASH_OPTSR_FZ_IWDG_STOP));
 499              		.loc 1 1226 5 is_stmt 1 view .LVU145
1227:../../Drivers/STM32H7xx_HAL_Driver/Src/stm32h7xx_hal_flash_ex.c **** 
1228:../../Drivers/STM32H7xx_HAL_Driver/Src/stm32h7xx_hal_flash_ex.c ****     /* Set value and mask for IWDG_STOP option byte */
1229:../../Drivers/STM32H7xx_HAL_Driver/Src/stm32h7xx_hal_flash_ex.c ****     optr_reg_val |= (UserConfig & FLASH_OPTSR_FZ_IWDG_STOP);
 500              		.loc 1 1229 5 view .LVU146
 501              		.loc 1 1229 33 is_stmt 0 view .LVU147
 502 0044 01F40033 		and	r3, r1, #131072
 503              		.loc 1 1229 18 view .LVU148
 504 0048 1C43     		orrs	r4, r4, r3
 505              	.LVL32:
1230:../../Drivers/STM32H7xx_HAL_Driver/Src/stm32h7xx_hal_flash_ex.c ****     optr_reg_mask |= FLASH_OPTSR_FZ_IWDG_STOP;
 506              		.loc 1 1230 5 is_stmt 1 view .LVU149
 507              		.loc 1 1230 19 is_stmt 0 view .LVU150
 508 004a 45F40035 		orr	r5, r5, #131072
 509              	.LVL33:
 510              	.L43:
1231:../../Drivers/STM32H7xx_HAL_Driver/Src/stm32h7xx_hal_flash_ex.c ****   }
1232:../../Drivers/STM32H7xx_HAL_Driver/Src/stm32h7xx_hal_flash_ex.c **** 
1233:../../Drivers/STM32H7xx_HAL_Driver/Src/stm32h7xx_hal_flash_ex.c ****   if((UserType & OB_USER_IWDG_STDBY) != 0U)
 511              		.loc 1 1233 3 is_stmt 1 view .LVU151
 512              		.loc 1 1233 5 is_stmt 0 view .LVU152
 513 004e 10F0100F 		tst	r0, #16
 514 0052 04D0     		beq	.L44
1234:../../Drivers/STM32H7xx_HAL_Driver/Src/stm32h7xx_hal_flash_ex.c ****   {
1235:../../Drivers/STM32H7xx_HAL_Driver/Src/stm32h7xx_hal_flash_ex.c ****     /* IWDG_STDBY option byte should be modified */
1236:../../Drivers/STM32H7xx_HAL_Driver/Src/stm32h7xx_hal_flash_ex.c ****     assert_param(IS_OB_USER_IWDG_STDBY(UserConfig & FLASH_OPTSR_FZ_IWDG_SDBY));
 515              		.loc 1 1236 5 is_stmt 1 view .LVU153
1237:../../Drivers/STM32H7xx_HAL_Driver/Src/stm32h7xx_hal_flash_ex.c **** 
1238:../../Drivers/STM32H7xx_HAL_Driver/Src/stm32h7xx_hal_flash_ex.c ****     /* Set value and mask for IWDG_STDBY option byte */
1239:../../Drivers/STM32H7xx_HAL_Driver/Src/stm32h7xx_hal_flash_ex.c ****     optr_reg_val |= (UserConfig & FLASH_OPTSR_FZ_IWDG_SDBY);
 516              		.loc 1 1239 5 view .LVU154
 517              		.loc 1 1239 33 is_stmt 0 view .LVU155
 518 0054 01F48023 		and	r3, r1, #262144
 519              		.loc 1 1239 18 view .LVU156
 520 0058 1C43     		orrs	r4, r4, r3
ARM GAS  /tmp/ccS8U376.s 			page 32


 521              	.LVL34:
1240:../../Drivers/STM32H7xx_HAL_Driver/Src/stm32h7xx_hal_flash_ex.c ****     optr_reg_mask |= FLASH_OPTSR_FZ_IWDG_SDBY;
 522              		.loc 1 1240 5 is_stmt 1 view .LVU157
 523              		.loc 1 1240 19 is_stmt 0 view .LVU158
 524 005a 45F48025 		orr	r5, r5, #262144
 525              	.LVL35:
 526              	.L44:
1241:../../Drivers/STM32H7xx_HAL_Driver/Src/stm32h7xx_hal_flash_ex.c ****   }
1242:../../Drivers/STM32H7xx_HAL_Driver/Src/stm32h7xx_hal_flash_ex.c **** 
1243:../../Drivers/STM32H7xx_HAL_Driver/Src/stm32h7xx_hal_flash_ex.c ****   if((UserType & OB_USER_ST_RAM_SIZE) != 0U)
 527              		.loc 1 1243 3 is_stmt 1 view .LVU159
 528              		.loc 1 1243 5 is_stmt 0 view .LVU160
 529 005e 10F0200F 		tst	r0, #32
 530 0062 04D0     		beq	.L45
1244:../../Drivers/STM32H7xx_HAL_Driver/Src/stm32h7xx_hal_flash_ex.c ****   {
1245:../../Drivers/STM32H7xx_HAL_Driver/Src/stm32h7xx_hal_flash_ex.c ****     /* ST_RAM_SIZE option byte should be modified */
1246:../../Drivers/STM32H7xx_HAL_Driver/Src/stm32h7xx_hal_flash_ex.c ****     assert_param(IS_OB_USER_ST_RAM_SIZE(UserConfig & FLASH_OPTSR_ST_RAM_SIZE));
 531              		.loc 1 1246 5 is_stmt 1 view .LVU161
1247:../../Drivers/STM32H7xx_HAL_Driver/Src/stm32h7xx_hal_flash_ex.c **** 
1248:../../Drivers/STM32H7xx_HAL_Driver/Src/stm32h7xx_hal_flash_ex.c ****     /* Set value and mask for ST_RAM_SIZE option byte */
1249:../../Drivers/STM32H7xx_HAL_Driver/Src/stm32h7xx_hal_flash_ex.c ****     optr_reg_val |= (UserConfig & FLASH_OPTSR_ST_RAM_SIZE);
 532              		.loc 1 1249 5 view .LVU162
 533              		.loc 1 1249 33 is_stmt 0 view .LVU163
 534 0064 01F4C013 		and	r3, r1, #1572864
 535              		.loc 1 1249 18 view .LVU164
 536 0068 1C43     		orrs	r4, r4, r3
 537              	.LVL36:
1250:../../Drivers/STM32H7xx_HAL_Driver/Src/stm32h7xx_hal_flash_ex.c ****     optr_reg_mask |= FLASH_OPTSR_ST_RAM_SIZE;
 538              		.loc 1 1250 5 is_stmt 1 view .LVU165
 539              		.loc 1 1250 19 is_stmt 0 view .LVU166
 540 006a 45F4C015 		orr	r5, r5, #1572864
 541              	.LVL37:
 542              	.L45:
1251:../../Drivers/STM32H7xx_HAL_Driver/Src/stm32h7xx_hal_flash_ex.c ****   }
1252:../../Drivers/STM32H7xx_HAL_Driver/Src/stm32h7xx_hal_flash_ex.c **** 
1253:../../Drivers/STM32H7xx_HAL_Driver/Src/stm32h7xx_hal_flash_ex.c ****   if((UserType & OB_USER_SECURITY) != 0U)
 543              		.loc 1 1253 3 is_stmt 1 view .LVU167
 544              		.loc 1 1253 5 is_stmt 0 view .LVU168
 545 006e 10F0400F 		tst	r0, #64
 546 0072 04D0     		beq	.L46
1254:../../Drivers/STM32H7xx_HAL_Driver/Src/stm32h7xx_hal_flash_ex.c ****   {
1255:../../Drivers/STM32H7xx_HAL_Driver/Src/stm32h7xx_hal_flash_ex.c ****     /* SECURITY option byte should be modified */
1256:../../Drivers/STM32H7xx_HAL_Driver/Src/stm32h7xx_hal_flash_ex.c ****     assert_param(IS_OB_USER_SECURITY(UserConfig & FLASH_OPTSR_SECURITY));
 547              		.loc 1 1256 5 is_stmt 1 view .LVU169
1257:../../Drivers/STM32H7xx_HAL_Driver/Src/stm32h7xx_hal_flash_ex.c **** 
1258:../../Drivers/STM32H7xx_HAL_Driver/Src/stm32h7xx_hal_flash_ex.c ****     /* Set value and mask for SECURITY option byte */
1259:../../Drivers/STM32H7xx_HAL_Driver/Src/stm32h7xx_hal_flash_ex.c ****     optr_reg_val |= (UserConfig & FLASH_OPTSR_SECURITY);
 548              		.loc 1 1259 5 view .LVU170
 549              		.loc 1 1259 33 is_stmt 0 view .LVU171
 550 0074 01F40013 		and	r3, r1, #2097152
 551              		.loc 1 1259 18 view .LVU172
 552 0078 1C43     		orrs	r4, r4, r3
 553              	.LVL38:
1260:../../Drivers/STM32H7xx_HAL_Driver/Src/stm32h7xx_hal_flash_ex.c ****     optr_reg_mask |= FLASH_OPTSR_SECURITY;
 554              		.loc 1 1260 5 is_stmt 1 view .LVU173
 555              		.loc 1 1260 19 is_stmt 0 view .LVU174
 556 007a 45F40015 		orr	r5, r5, #2097152
ARM GAS  /tmp/ccS8U376.s 			page 33


 557              	.LVL39:
 558              	.L46:
1261:../../Drivers/STM32H7xx_HAL_Driver/Src/stm32h7xx_hal_flash_ex.c ****   }
1262:../../Drivers/STM32H7xx_HAL_Driver/Src/stm32h7xx_hal_flash_ex.c **** 
1263:../../Drivers/STM32H7xx_HAL_Driver/Src/stm32h7xx_hal_flash_ex.c **** #if defined(DUAL_CORE)
1264:../../Drivers/STM32H7xx_HAL_Driver/Src/stm32h7xx_hal_flash_ex.c ****   if((UserType & OB_USER_BCM4) != 0U)
 559              		.loc 1 1264 3 is_stmt 1 view .LVU175
 560              		.loc 1 1264 5 is_stmt 0 view .LVU176
 561 007e 10F4806F 		tst	r0, #1024
 562 0082 04D0     		beq	.L47
1265:../../Drivers/STM32H7xx_HAL_Driver/Src/stm32h7xx_hal_flash_ex.c ****   {
1266:../../Drivers/STM32H7xx_HAL_Driver/Src/stm32h7xx_hal_flash_ex.c ****     /* BCM4 option byte should be modified */
1267:../../Drivers/STM32H7xx_HAL_Driver/Src/stm32h7xx_hal_flash_ex.c ****     assert_param(IS_OB_USER_BCM4(UserConfig & FLASH_OPTSR_BCM4));
 563              		.loc 1 1267 5 is_stmt 1 view .LVU177
1268:../../Drivers/STM32H7xx_HAL_Driver/Src/stm32h7xx_hal_flash_ex.c **** 
1269:../../Drivers/STM32H7xx_HAL_Driver/Src/stm32h7xx_hal_flash_ex.c ****     /* Set value and mask for BCM4 option byte */
1270:../../Drivers/STM32H7xx_HAL_Driver/Src/stm32h7xx_hal_flash_ex.c ****     optr_reg_val |= (UserConfig & FLASH_OPTSR_BCM4);
 564              		.loc 1 1270 5 view .LVU178
 565              		.loc 1 1270 33 is_stmt 0 view .LVU179
 566 0084 01F48003 		and	r3, r1, #4194304
 567              		.loc 1 1270 18 view .LVU180
 568 0088 1C43     		orrs	r4, r4, r3
 569              	.LVL40:
1271:../../Drivers/STM32H7xx_HAL_Driver/Src/stm32h7xx_hal_flash_ex.c ****     optr_reg_mask |= FLASH_OPTSR_BCM4;
 570              		.loc 1 1271 5 is_stmt 1 view .LVU181
 571              		.loc 1 1271 19 is_stmt 0 view .LVU182
 572 008a 45F48005 		orr	r5, r5, #4194304
 573              	.LVL41:
 574              	.L47:
1272:../../Drivers/STM32H7xx_HAL_Driver/Src/stm32h7xx_hal_flash_ex.c ****   }
1273:../../Drivers/STM32H7xx_HAL_Driver/Src/stm32h7xx_hal_flash_ex.c **** 
1274:../../Drivers/STM32H7xx_HAL_Driver/Src/stm32h7xx_hal_flash_ex.c ****   if((UserType & OB_USER_BCM7) != 0U)
 575              		.loc 1 1274 3 is_stmt 1 view .LVU183
 576              		.loc 1 1274 5 is_stmt 0 view .LVU184
 577 008e 10F4006F 		tst	r0, #2048
 578 0092 04D0     		beq	.L48
1275:../../Drivers/STM32H7xx_HAL_Driver/Src/stm32h7xx_hal_flash_ex.c ****   {
1276:../../Drivers/STM32H7xx_HAL_Driver/Src/stm32h7xx_hal_flash_ex.c ****     /* BCM7 option byte should be modified */
1277:../../Drivers/STM32H7xx_HAL_Driver/Src/stm32h7xx_hal_flash_ex.c ****     assert_param(IS_OB_USER_BCM7(UserConfig & FLASH_OPTSR_BCM7));
 579              		.loc 1 1277 5 is_stmt 1 view .LVU185
1278:../../Drivers/STM32H7xx_HAL_Driver/Src/stm32h7xx_hal_flash_ex.c **** 
1279:../../Drivers/STM32H7xx_HAL_Driver/Src/stm32h7xx_hal_flash_ex.c ****     /* Set value and mask for BCM7 option byte */
1280:../../Drivers/STM32H7xx_HAL_Driver/Src/stm32h7xx_hal_flash_ex.c ****     optr_reg_val |= (UserConfig & FLASH_OPTSR_BCM7);
 580              		.loc 1 1280 5 view .LVU186
 581              		.loc 1 1280 33 is_stmt 0 view .LVU187
 582 0094 01F40003 		and	r3, r1, #8388608
 583              		.loc 1 1280 18 view .LVU188
 584 0098 1C43     		orrs	r4, r4, r3
 585              	.LVL42:
1281:../../Drivers/STM32H7xx_HAL_Driver/Src/stm32h7xx_hal_flash_ex.c ****     optr_reg_mask |= FLASH_OPTSR_BCM7;
 586              		.loc 1 1281 5 is_stmt 1 view .LVU189
 587              		.loc 1 1281 19 is_stmt 0 view .LVU190
 588 009a 45F40005 		orr	r5, r5, #8388608
 589              	.LVL43:
 590              	.L48:
1282:../../Drivers/STM32H7xx_HAL_Driver/Src/stm32h7xx_hal_flash_ex.c ****   }
1283:../../Drivers/STM32H7xx_HAL_Driver/Src/stm32h7xx_hal_flash_ex.c **** #endif /* DUAL_CORE */
ARM GAS  /tmp/ccS8U376.s 			page 34


1284:../../Drivers/STM32H7xx_HAL_Driver/Src/stm32h7xx_hal_flash_ex.c **** 
1285:../../Drivers/STM32H7xx_HAL_Driver/Src/stm32h7xx_hal_flash_ex.c **** #if defined (FLASH_OPTSR_NRST_STOP_D2)
1286:../../Drivers/STM32H7xx_HAL_Driver/Src/stm32h7xx_hal_flash_ex.c ****   if((UserType & OB_USER_NRST_STOP_D2) != 0U)
 591              		.loc 1 1286 3 is_stmt 1 view .LVU191
 592              		.loc 1 1286 5 is_stmt 0 view .LVU192
 593 009e 10F4805F 		tst	r0, #4096
 594 00a2 04D0     		beq	.L49
1287:../../Drivers/STM32H7xx_HAL_Driver/Src/stm32h7xx_hal_flash_ex.c ****   {
1288:../../Drivers/STM32H7xx_HAL_Driver/Src/stm32h7xx_hal_flash_ex.c ****     /* NRST_STOP option byte should be modified */
1289:../../Drivers/STM32H7xx_HAL_Driver/Src/stm32h7xx_hal_flash_ex.c ****     assert_param(IS_OB_STOP_D2_RESET(UserConfig & FLASH_OPTSR_NRST_STOP_D2));
 595              		.loc 1 1289 5 is_stmt 1 view .LVU193
1290:../../Drivers/STM32H7xx_HAL_Driver/Src/stm32h7xx_hal_flash_ex.c **** 
1291:../../Drivers/STM32H7xx_HAL_Driver/Src/stm32h7xx_hal_flash_ex.c ****     /* Set value and mask for NRST_STOP option byte */
1292:../../Drivers/STM32H7xx_HAL_Driver/Src/stm32h7xx_hal_flash_ex.c ****     optr_reg_val |= (UserConfig & FLASH_OPTSR_NRST_STOP_D2);
 596              		.loc 1 1292 5 view .LVU194
 597              		.loc 1 1292 33 is_stmt 0 view .LVU195
 598 00a4 01F08073 		and	r3, r1, #16777216
 599              		.loc 1 1292 18 view .LVU196
 600 00a8 1C43     		orrs	r4, r4, r3
 601              	.LVL44:
1293:../../Drivers/STM32H7xx_HAL_Driver/Src/stm32h7xx_hal_flash_ex.c ****     optr_reg_mask |= FLASH_OPTSR_NRST_STOP_D2;
 602              		.loc 1 1293 5 is_stmt 1 view .LVU197
 603              		.loc 1 1293 19 is_stmt 0 view .LVU198
 604 00aa 45F08075 		orr	r5, r5, #16777216
 605              	.LVL45:
 606              	.L49:
1294:../../Drivers/STM32H7xx_HAL_Driver/Src/stm32h7xx_hal_flash_ex.c ****   }
1295:../../Drivers/STM32H7xx_HAL_Driver/Src/stm32h7xx_hal_flash_ex.c **** 
1296:../../Drivers/STM32H7xx_HAL_Driver/Src/stm32h7xx_hal_flash_ex.c ****   if((UserType & OB_USER_NRST_STDBY_D2) != 0U)
 607              		.loc 1 1296 3 is_stmt 1 view .LVU199
 608              		.loc 1 1296 5 is_stmt 0 view .LVU200
 609 00ae 10F4005F 		tst	r0, #8192
 610 00b2 04D0     		beq	.L50
1297:../../Drivers/STM32H7xx_HAL_Driver/Src/stm32h7xx_hal_flash_ex.c ****   {
1298:../../Drivers/STM32H7xx_HAL_Driver/Src/stm32h7xx_hal_flash_ex.c ****     /* NRST_STDBY option byte should be modified */
1299:../../Drivers/STM32H7xx_HAL_Driver/Src/stm32h7xx_hal_flash_ex.c ****     assert_param(IS_OB_STDBY_D2_RESET(UserConfig & FLASH_OPTSR_NRST_STBY_D2));
 611              		.loc 1 1299 5 is_stmt 1 view .LVU201
1300:../../Drivers/STM32H7xx_HAL_Driver/Src/stm32h7xx_hal_flash_ex.c **** 
1301:../../Drivers/STM32H7xx_HAL_Driver/Src/stm32h7xx_hal_flash_ex.c ****     /* Set value and mask for NRST_STDBY option byte */
1302:../../Drivers/STM32H7xx_HAL_Driver/Src/stm32h7xx_hal_flash_ex.c ****     optr_reg_val |= (UserConfig & FLASH_OPTSR_NRST_STBY_D2);
 612              		.loc 1 1302 5 view .LVU202
 613              		.loc 1 1302 33 is_stmt 0 view .LVU203
 614 00b4 01F00073 		and	r3, r1, #33554432
 615              		.loc 1 1302 18 view .LVU204
 616 00b8 1C43     		orrs	r4, r4, r3
 617              	.LVL46:
1303:../../Drivers/STM32H7xx_HAL_Driver/Src/stm32h7xx_hal_flash_ex.c ****     optr_reg_mask |= FLASH_OPTSR_NRST_STBY_D2;
 618              		.loc 1 1303 5 is_stmt 1 view .LVU205
 619              		.loc 1 1303 19 is_stmt 0 view .LVU206
 620 00ba 45F00075 		orr	r5, r5, #33554432
 621              	.LVL47:
 622              	.L50:
1304:../../Drivers/STM32H7xx_HAL_Driver/Src/stm32h7xx_hal_flash_ex.c ****   }
1305:../../Drivers/STM32H7xx_HAL_Driver/Src/stm32h7xx_hal_flash_ex.c **** #endif /* FLASH_OPTSR_NRST_STOP_D2 */
1306:../../Drivers/STM32H7xx_HAL_Driver/Src/stm32h7xx_hal_flash_ex.c **** 
1307:../../Drivers/STM32H7xx_HAL_Driver/Src/stm32h7xx_hal_flash_ex.c **** #if defined (DUAL_BANK)
1308:../../Drivers/STM32H7xx_HAL_Driver/Src/stm32h7xx_hal_flash_ex.c ****   if((UserType & OB_USER_SWAP_BANK) != 0U)
ARM GAS  /tmp/ccS8U376.s 			page 35


 623              		.loc 1 1308 3 is_stmt 1 view .LVU207
 624              		.loc 1 1308 5 is_stmt 0 view .LVU208
 625 00be 10F4807F 		tst	r0, #256
 626 00c2 04D0     		beq	.L51
1309:../../Drivers/STM32H7xx_HAL_Driver/Src/stm32h7xx_hal_flash_ex.c ****   {
1310:../../Drivers/STM32H7xx_HAL_Driver/Src/stm32h7xx_hal_flash_ex.c ****     /* SWAP_BANK_OPT option byte should be modified */
1311:../../Drivers/STM32H7xx_HAL_Driver/Src/stm32h7xx_hal_flash_ex.c ****     assert_param(IS_OB_USER_SWAP_BANK(UserConfig & FLASH_OPTSR_SWAP_BANK_OPT));
 627              		.loc 1 1311 5 is_stmt 1 view .LVU209
1312:../../Drivers/STM32H7xx_HAL_Driver/Src/stm32h7xx_hal_flash_ex.c **** 
1313:../../Drivers/STM32H7xx_HAL_Driver/Src/stm32h7xx_hal_flash_ex.c ****     /* Set value and mask for SWAP_BANK_OPT option byte */
1314:../../Drivers/STM32H7xx_HAL_Driver/Src/stm32h7xx_hal_flash_ex.c ****     optr_reg_val |= (UserConfig & FLASH_OPTSR_SWAP_BANK_OPT);
 628              		.loc 1 1314 5 view .LVU210
 629              		.loc 1 1314 33 is_stmt 0 view .LVU211
 630 00c4 01F00043 		and	r3, r1, #-2147483648
 631              		.loc 1 1314 18 view .LVU212
 632 00c8 1C43     		orrs	r4, r4, r3
 633              	.LVL48:
1315:../../Drivers/STM32H7xx_HAL_Driver/Src/stm32h7xx_hal_flash_ex.c ****     optr_reg_mask |= FLASH_OPTSR_SWAP_BANK_OPT;
 634              		.loc 1 1315 5 is_stmt 1 view .LVU213
 635              		.loc 1 1315 19 is_stmt 0 view .LVU214
 636 00ca 45F00045 		orr	r5, r5, #-2147483648
 637              	.LVL49:
 638              	.L51:
1316:../../Drivers/STM32H7xx_HAL_Driver/Src/stm32h7xx_hal_flash_ex.c ****   }
1317:../../Drivers/STM32H7xx_HAL_Driver/Src/stm32h7xx_hal_flash_ex.c **** #endif /* DUAL_BANK */
1318:../../Drivers/STM32H7xx_HAL_Driver/Src/stm32h7xx_hal_flash_ex.c **** 
1319:../../Drivers/STM32H7xx_HAL_Driver/Src/stm32h7xx_hal_flash_ex.c ****   if((UserType & OB_USER_IOHSLV) != 0U)
 639              		.loc 1 1319 3 is_stmt 1 view .LVU215
 640              		.loc 1 1319 5 is_stmt 0 view .LVU216
 641 00ce 10F0800F 		tst	r0, #128
 642 00d2 04D0     		beq	.L52
1320:../../Drivers/STM32H7xx_HAL_Driver/Src/stm32h7xx_hal_flash_ex.c ****   {
1321:../../Drivers/STM32H7xx_HAL_Driver/Src/stm32h7xx_hal_flash_ex.c ****     /* IOHSLV_OPT option byte should be modified */
1322:../../Drivers/STM32H7xx_HAL_Driver/Src/stm32h7xx_hal_flash_ex.c ****     assert_param(IS_OB_USER_IOHSLV(UserConfig & FLASH_OPTSR_IO_HSLV));
 643              		.loc 1 1322 5 is_stmt 1 view .LVU217
1323:../../Drivers/STM32H7xx_HAL_Driver/Src/stm32h7xx_hal_flash_ex.c **** 
1324:../../Drivers/STM32H7xx_HAL_Driver/Src/stm32h7xx_hal_flash_ex.c ****     /* Set value and mask for IOHSLV_OPT option byte */
1325:../../Drivers/STM32H7xx_HAL_Driver/Src/stm32h7xx_hal_flash_ex.c ****     optr_reg_val |= (UserConfig & FLASH_OPTSR_IO_HSLV);
 644              		.loc 1 1325 5 view .LVU218
 645              		.loc 1 1325 33 is_stmt 0 view .LVU219
 646 00d4 01F00051 		and	r1, r1, #536870912
 647              	.LVL50:
 648              		.loc 1 1325 18 view .LVU220
 649 00d8 0C43     		orrs	r4, r4, r1
 650              	.LVL51:
1326:../../Drivers/STM32H7xx_HAL_Driver/Src/stm32h7xx_hal_flash_ex.c ****     optr_reg_mask |= FLASH_OPTSR_IO_HSLV;
 651              		.loc 1 1326 5 is_stmt 1 view .LVU221
 652              		.loc 1 1326 19 is_stmt 0 view .LVU222
 653 00da 45F00055 		orr	r5, r5, #536870912
 654              	.LVL52:
 655              	.L52:
1327:../../Drivers/STM32H7xx_HAL_Driver/Src/stm32h7xx_hal_flash_ex.c ****   }
1328:../../Drivers/STM32H7xx_HAL_Driver/Src/stm32h7xx_hal_flash_ex.c **** 
1329:../../Drivers/STM32H7xx_HAL_Driver/Src/stm32h7xx_hal_flash_ex.c **** #if defined (FLASH_OPTSR_VDDMMC_HSLV)
1330:../../Drivers/STM32H7xx_HAL_Driver/Src/stm32h7xx_hal_flash_ex.c ****   if((UserType & OB_USER_VDDMMC_HSLV) != 0U)
1331:../../Drivers/STM32H7xx_HAL_Driver/Src/stm32h7xx_hal_flash_ex.c ****   {
1332:../../Drivers/STM32H7xx_HAL_Driver/Src/stm32h7xx_hal_flash_ex.c ****     /* VDDMMC_HSLV option byte should be modified */
ARM GAS  /tmp/ccS8U376.s 			page 36


1333:../../Drivers/STM32H7xx_HAL_Driver/Src/stm32h7xx_hal_flash_ex.c ****     assert_param(IS_OB_USER_VDDMMC_HSLV(UserConfig & FLASH_OPTSR_VDDMMC_HSLV));
1334:../../Drivers/STM32H7xx_HAL_Driver/Src/stm32h7xx_hal_flash_ex.c **** 
1335:../../Drivers/STM32H7xx_HAL_Driver/Src/stm32h7xx_hal_flash_ex.c ****     /* Set value and mask for VDDMMC_HSLV option byte */
1336:../../Drivers/STM32H7xx_HAL_Driver/Src/stm32h7xx_hal_flash_ex.c ****     optr_reg_val |= (UserConfig & FLASH_OPTSR_VDDMMC_HSLV);
1337:../../Drivers/STM32H7xx_HAL_Driver/Src/stm32h7xx_hal_flash_ex.c ****     optr_reg_mask |= FLASH_OPTSR_VDDMMC_HSLV;
1338:../../Drivers/STM32H7xx_HAL_Driver/Src/stm32h7xx_hal_flash_ex.c ****   }
1339:../../Drivers/STM32H7xx_HAL_Driver/Src/stm32h7xx_hal_flash_ex.c **** #endif /* FLASH_OPTSR_VDDMMC_HSLV */
1340:../../Drivers/STM32H7xx_HAL_Driver/Src/stm32h7xx_hal_flash_ex.c **** 
1341:../../Drivers/STM32H7xx_HAL_Driver/Src/stm32h7xx_hal_flash_ex.c ****   /* Configure the option bytes register */
1342:../../Drivers/STM32H7xx_HAL_Driver/Src/stm32h7xx_hal_flash_ex.c ****   MODIFY_REG(FLASH->OPTSR_PRG, optr_reg_mask, optr_reg_val);
 656              		.loc 1 1342 3 is_stmt 1 view .LVU223
 657 00de 054A     		ldr	r2, .L55
 658 00e0 136A     		ldr	r3, [r2, #32]
 659 00e2 23EA0503 		bic	r3, r3, r5
 660 00e6 2343     		orrs	r3, r3, r4
 661 00e8 1362     		str	r3, [r2, #32]
1343:../../Drivers/STM32H7xx_HAL_Driver/Src/stm32h7xx_hal_flash_ex.c **** }
 662              		.loc 1 1343 1 is_stmt 0 view .LVU224
 663 00ea 30BC     		pop	{r4, r5}
 664              	.LCFI5:
 665              		.cfi_remember_state
 666              		.cfi_restore 5
 667              		.cfi_restore 4
 668              		.cfi_def_cfa_offset 0
 669              	.LVL53:
 670              		.loc 1 1343 1 view .LVU225
 671 00ec 7047     		bx	lr
 672              	.LVL54:
 673              	.L53:
 674              	.LCFI6:
 675              		.cfi_restore_state
1178:../../Drivers/STM32H7xx_HAL_Driver/Src/stm32h7xx_hal_flash_ex.c **** 
 676              		.loc 1 1178 12 view .LVU226
 677 00ee 2546     		mov	r5, r4
 678 00f0 8DE7     		b	.L39
 679              	.L56:
 680 00f2 00BF     		.align	2
 681              	.L55:
 682 00f4 00200052 		.word	1375739904
 683              		.cfi_endproc
 684              	.LFE160:
 686              		.section	.text.FLASH_OB_GetUser,"ax",%progbits
 687              		.align	1
 688              		.syntax unified
 689              		.thumb
 690              		.thumb_func
 691              		.fpu fpv5-d16
 693              	FLASH_OB_GetUser:
 694              	.LFB161:
1344:../../Drivers/STM32H7xx_HAL_Driver/Src/stm32h7xx_hal_flash_ex.c **** 
1345:../../Drivers/STM32H7xx_HAL_Driver/Src/stm32h7xx_hal_flash_ex.c **** #if defined(DUAL_CORE)
1346:../../Drivers/STM32H7xx_HAL_Driver/Src/stm32h7xx_hal_flash_ex.c **** /**
1347:../../Drivers/STM32H7xx_HAL_Driver/Src/stm32h7xx_hal_flash_ex.c ****   * @brief  Return the FLASH User Option Byte value.
1348:../../Drivers/STM32H7xx_HAL_Driver/Src/stm32h7xx_hal_flash_ex.c ****   * @retval The FLASH User Option Bytes values
1349:../../Drivers/STM32H7xx_HAL_Driver/Src/stm32h7xx_hal_flash_ex.c ****   *         IWDG1_SW(Bit4), IWDG2_SW(Bit 5), nRST_STOP_D1(Bit 6), nRST_STDY_D1(Bit 7),
1350:../../Drivers/STM32H7xx_HAL_Driver/Src/stm32h7xx_hal_flash_ex.c ****   *         FZ_IWDG_STOP(Bit 17), FZ_IWDG_SDBY(Bit 18), ST_RAM_SIZE(Bit[19:20]),
1351:../../Drivers/STM32H7xx_HAL_Driver/Src/stm32h7xx_hal_flash_ex.c ****   *         SECURITY(Bit 21), BCM4(Bit 22), BCM7(Bit 23), nRST_STOP_D2(Bit 24),
ARM GAS  /tmp/ccS8U376.s 			page 37


1352:../../Drivers/STM32H7xx_HAL_Driver/Src/stm32h7xx_hal_flash_ex.c ****   *         nRST_STDY_D2(Bit 25), IO_HSLV (Bit 29) and SWAP_BANK_OPT(Bit 31).
1353:../../Drivers/STM32H7xx_HAL_Driver/Src/stm32h7xx_hal_flash_ex.c ****   */
1354:../../Drivers/STM32H7xx_HAL_Driver/Src/stm32h7xx_hal_flash_ex.c **** #else
1355:../../Drivers/STM32H7xx_HAL_Driver/Src/stm32h7xx_hal_flash_ex.c **** /**
1356:../../Drivers/STM32H7xx_HAL_Driver/Src/stm32h7xx_hal_flash_ex.c ****   * @brief  Return the FLASH User Option Byte value.
1357:../../Drivers/STM32H7xx_HAL_Driver/Src/stm32h7xx_hal_flash_ex.c ****   * @retval The FLASH User Option Bytes values
1358:../../Drivers/STM32H7xx_HAL_Driver/Src/stm32h7xx_hal_flash_ex.c ****   *         IWDG_SW(Bit4), nRST_STOP_D1(Bit 6), nRST_STDY_D1(Bit 7),
1359:../../Drivers/STM32H7xx_HAL_Driver/Src/stm32h7xx_hal_flash_ex.c ****   *         FZ_IWDG_STOP(Bit 17), FZ_IWDG_SDBY(Bit 18), ST_RAM_SIZE(Bit[19:20]),
1360:../../Drivers/STM32H7xx_HAL_Driver/Src/stm32h7xx_hal_flash_ex.c ****   *         SECURITY(Bit 21), IO_HSLV (Bit 29) and SWAP_BANK_OPT(Bit 31).
1361:../../Drivers/STM32H7xx_HAL_Driver/Src/stm32h7xx_hal_flash_ex.c ****   */
1362:../../Drivers/STM32H7xx_HAL_Driver/Src/stm32h7xx_hal_flash_ex.c **** #endif /*DUAL_CORE*/
1363:../../Drivers/STM32H7xx_HAL_Driver/Src/stm32h7xx_hal_flash_ex.c **** static uint32_t FLASH_OB_GetUser(void)
1364:../../Drivers/STM32H7xx_HAL_Driver/Src/stm32h7xx_hal_flash_ex.c **** {
 695              		.loc 1 1364 1 is_stmt 1 view -0
 696              		.cfi_startproc
 697              		@ args = 0, pretend = 0, frame = 0
 698              		@ frame_needed = 0, uses_anonymous_args = 0
 699              		@ link register save eliminated.
1365:../../Drivers/STM32H7xx_HAL_Driver/Src/stm32h7xx_hal_flash_ex.c ****   uint32_t userConfig = READ_REG(FLASH->OPTSR_CUR);
 700              		.loc 1 1365 3 view .LVU228
 701              		.loc 1 1365 12 is_stmt 0 view .LVU229
 702 0000 024B     		ldr	r3, .L58
 703 0002 DB69     		ldr	r3, [r3, #28]
 704              	.LVL55:
1366:../../Drivers/STM32H7xx_HAL_Driver/Src/stm32h7xx_hal_flash_ex.c ****   userConfig &= (~(FLASH_OPTSR_BOR_LEV | FLASH_OPTSR_RDP));
 705              		.loc 1 1366 3 is_stmt 1 view .LVU230
1367:../../Drivers/STM32H7xx_HAL_Driver/Src/stm32h7xx_hal_flash_ex.c **** 
1368:../../Drivers/STM32H7xx_HAL_Driver/Src/stm32h7xx_hal_flash_ex.c ****   return userConfig;
 706              		.loc 1 1368 3 view .LVU231
1369:../../Drivers/STM32H7xx_HAL_Driver/Src/stm32h7xx_hal_flash_ex.c **** }
 707              		.loc 1 1369 1 is_stmt 0 view .LVU232
 708 0004 0248     		ldr	r0, .L58+4
 709 0006 1840     		ands	r0, r0, r3
 710              	.LVL56:
 711              		.loc 1 1369 1 view .LVU233
 712 0008 7047     		bx	lr
 713              	.L59:
 714 000a 00BF     		.align	2
 715              	.L58:
 716 000c 00200052 		.word	1375739904
 717 0010 F300FFFF 		.word	-65293
 718              		.cfi_endproc
 719              	.LFE161:
 721              		.section	.text.FLASH_OB_PCROPConfig,"ax",%progbits
 722              		.align	1
 723              		.syntax unified
 724              		.thumb
 725              		.thumb_func
 726              		.fpu fpv5-d16
 728              	FLASH_OB_PCROPConfig:
 729              	.LVL57:
 730              	.LFB162:
1370:../../Drivers/STM32H7xx_HAL_Driver/Src/stm32h7xx_hal_flash_ex.c **** 
1371:../../Drivers/STM32H7xx_HAL_Driver/Src/stm32h7xx_hal_flash_ex.c **** /**
1372:../../Drivers/STM32H7xx_HAL_Driver/Src/stm32h7xx_hal_flash_ex.c ****   * @brief  Configure the Proprietary code readout protection of the desired addresses
1373:../../Drivers/STM32H7xx_HAL_Driver/Src/stm32h7xx_hal_flash_ex.c ****   *
1374:../../Drivers/STM32H7xx_HAL_Driver/Src/stm32h7xx_hal_flash_ex.c ****   * @note   To configure the PCROP options, the option lock bit OPTLOCK must be
ARM GAS  /tmp/ccS8U376.s 			page 38


1375:../../Drivers/STM32H7xx_HAL_Driver/Src/stm32h7xx_hal_flash_ex.c ****   *         cleared with the call of the HAL_FLASH_OB_Unlock() function.
1376:../../Drivers/STM32H7xx_HAL_Driver/Src/stm32h7xx_hal_flash_ex.c ****   * @note   To validate the PCROP options, the option bytes must be reloaded
1377:../../Drivers/STM32H7xx_HAL_Driver/Src/stm32h7xx_hal_flash_ex.c ****   *         through the call of the HAL_FLASH_OB_Launch() function.
1378:../../Drivers/STM32H7xx_HAL_Driver/Src/stm32h7xx_hal_flash_ex.c ****   *
1379:../../Drivers/STM32H7xx_HAL_Driver/Src/stm32h7xx_hal_flash_ex.c ****   * @param  PCROPConfig specifies if the PCROP area for the given Bank shall be erased or not
1380:../../Drivers/STM32H7xx_HAL_Driver/Src/stm32h7xx_hal_flash_ex.c ****   *         when RDP level decreased from Level 1 to Level 0, or after a bank erase with protection
1381:../../Drivers/STM32H7xx_HAL_Driver/Src/stm32h7xx_hal_flash_ex.c ****   *         This parameter must be a value of @arg FLASHEx_OB_PCROP_RDP enumeration
1382:../../Drivers/STM32H7xx_HAL_Driver/Src/stm32h7xx_hal_flash_ex.c ****   *
1383:../../Drivers/STM32H7xx_HAL_Driver/Src/stm32h7xx_hal_flash_ex.c ****   * @param  PCROPStartAddr specifies the start address of the Proprietary code readout protection
1384:../../Drivers/STM32H7xx_HAL_Driver/Src/stm32h7xx_hal_flash_ex.c ****   *          This parameter can be an address between begin and end of the bank
1385:../../Drivers/STM32H7xx_HAL_Driver/Src/stm32h7xx_hal_flash_ex.c ****   *
1386:../../Drivers/STM32H7xx_HAL_Driver/Src/stm32h7xx_hal_flash_ex.c ****   * @param  PCROPEndAddr specifies the end address of the Proprietary code readout protection
1387:../../Drivers/STM32H7xx_HAL_Driver/Src/stm32h7xx_hal_flash_ex.c ****   *          This parameter can be an address between PCROPStartAddr and end of the bank
1388:../../Drivers/STM32H7xx_HAL_Driver/Src/stm32h7xx_hal_flash_ex.c ****   *
1389:../../Drivers/STM32H7xx_HAL_Driver/Src/stm32h7xx_hal_flash_ex.c ****   * @param  Banks the specific bank to apply PCROP protection
1390:../../Drivers/STM32H7xx_HAL_Driver/Src/stm32h7xx_hal_flash_ex.c ****   *          This parameter can be one of the following values:
1391:../../Drivers/STM32H7xx_HAL_Driver/Src/stm32h7xx_hal_flash_ex.c ****   *            @arg FLASH_BANK_1: PCROP on specified bank1 area
1392:../../Drivers/STM32H7xx_HAL_Driver/Src/stm32h7xx_hal_flash_ex.c ****   *            @arg FLASH_BANK_2: PCROP on specified bank2 area
1393:../../Drivers/STM32H7xx_HAL_Driver/Src/stm32h7xx_hal_flash_ex.c ****   *            @arg FLASH_BANK_BOTH: PCROP on specified bank1 and bank2 area (same config will be a
1394:../../Drivers/STM32H7xx_HAL_Driver/Src/stm32h7xx_hal_flash_ex.c ****   *
1395:../../Drivers/STM32H7xx_HAL_Driver/Src/stm32h7xx_hal_flash_ex.c ****   * @retval None
1396:../../Drivers/STM32H7xx_HAL_Driver/Src/stm32h7xx_hal_flash_ex.c ****   */
1397:../../Drivers/STM32H7xx_HAL_Driver/Src/stm32h7xx_hal_flash_ex.c **** static void FLASH_OB_PCROPConfig(uint32_t PCROPConfig, uint32_t PCROPStartAddr, uint32_t PCROPEndAd
1398:../../Drivers/STM32H7xx_HAL_Driver/Src/stm32h7xx_hal_flash_ex.c **** {
 731              		.loc 1 1398 1 is_stmt 1 view -0
 732              		.cfi_startproc
 733              		@ args = 0, pretend = 0, frame = 0
 734              		@ frame_needed = 0, uses_anonymous_args = 0
 735              		@ link register save eliminated.
 736              		.loc 1 1398 1 is_stmt 0 view .LVU235
 737 0000 30B4     		push	{r4, r5}
 738              	.LCFI7:
 739              		.cfi_def_cfa_offset 8
 740              		.cfi_offset 4, -8
 741              		.cfi_offset 5, -4
1399:../../Drivers/STM32H7xx_HAL_Driver/Src/stm32h7xx_hal_flash_ex.c ****   /* Check the parameters */
1400:../../Drivers/STM32H7xx_HAL_Driver/Src/stm32h7xx_hal_flash_ex.c ****   assert_param(IS_FLASH_BANK(Banks));
 742              		.loc 1 1400 3 is_stmt 1 view .LVU236
1401:../../Drivers/STM32H7xx_HAL_Driver/Src/stm32h7xx_hal_flash_ex.c ****   assert_param(IS_OB_PCROP_RDP(PCROPConfig));
 743              		.loc 1 1401 3 view .LVU237
1402:../../Drivers/STM32H7xx_HAL_Driver/Src/stm32h7xx_hal_flash_ex.c **** 
1403:../../Drivers/STM32H7xx_HAL_Driver/Src/stm32h7xx_hal_flash_ex.c ****   if((Banks & FLASH_BANK_1) == FLASH_BANK_1)
 744              		.loc 1 1403 3 view .LVU238
 745              		.loc 1 1403 5 is_stmt 0 view .LVU239
 746 0002 13F0010F 		tst	r3, #1
 747 0006 0AD0     		beq	.L61
1404:../../Drivers/STM32H7xx_HAL_Driver/Src/stm32h7xx_hal_flash_ex.c ****   {
1405:../../Drivers/STM32H7xx_HAL_Driver/Src/stm32h7xx_hal_flash_ex.c ****     assert_param(IS_FLASH_PROGRAM_ADDRESS_BANK1(PCROPStartAddr));
 748              		.loc 1 1405 5 is_stmt 1 view .LVU240
1406:../../Drivers/STM32H7xx_HAL_Driver/Src/stm32h7xx_hal_flash_ex.c ****     assert_param(IS_FLASH_PROGRAM_ADDRESS_BANK1(PCROPEndAddr));
 749              		.loc 1 1406 5 view .LVU241
1407:../../Drivers/STM32H7xx_HAL_Driver/Src/stm32h7xx_hal_flash_ex.c **** 
1408:../../Drivers/STM32H7xx_HAL_Driver/Src/stm32h7xx_hal_flash_ex.c ****     /* Configure the Proprietary code readout protection */
1409:../../Drivers/STM32H7xx_HAL_Driver/Src/stm32h7xx_hal_flash_ex.c ****     FLASH->PRAR_PRG1 = ((PCROPStartAddr - FLASH_BANK1_BASE) >> 8)                                 |
 750              		.loc 1 1409 5 view .LVU242
 751              		.loc 1 1409 41 is_stmt 0 view .LVU243
 752 0008 01F17844 		add	r4, r1, #-134217728
ARM GAS  /tmp/ccS8U376.s 			page 39


1410:../../Drivers/STM32H7xx_HAL_Driver/Src/stm32h7xx_hal_flash_ex.c ****                        (((PCROPEndAddr - FLASH_BANK1_BASE) >> 8) << FLASH_PRAR_PROT_AREA_END_Pos) |
 753              		.loc 1 1410 40 view .LVU244
 754 000c 02F17845 		add	r5, r2, #-134217728
 755              		.loc 1 1410 60 view .LVU245
 756 0010 2D0A     		lsrs	r5, r5, #8
 757              		.loc 1 1410 66 view .LVU246
 758 0012 2D04     		lsls	r5, r5, #16
1409:../../Drivers/STM32H7xx_HAL_Driver/Src/stm32h7xx_hal_flash_ex.c ****                        (((PCROPEndAddr - FLASH_BANK1_BASE) >> 8) << FLASH_PRAR_PROT_AREA_END_Pos) |
 759              		.loc 1 1409 99 view .LVU247
 760 0014 45EA1424 		orr	r4, r5, r4, lsr #8
 761              		.loc 1 1410 99 view .LVU248
 762 0018 0443     		orrs	r4, r4, r0
1409:../../Drivers/STM32H7xx_HAL_Driver/Src/stm32h7xx_hal_flash_ex.c ****                        (((PCROPEndAddr - FLASH_BANK1_BASE) >> 8) << FLASH_PRAR_PROT_AREA_END_Pos) |
 763              		.loc 1 1409 22 view .LVU249
 764 001a 094D     		ldr	r5, .L64
 765 001c EC62     		str	r4, [r5, #44]
 766              	.L61:
1411:../../Drivers/STM32H7xx_HAL_Driver/Src/stm32h7xx_hal_flash_ex.c ****                        PCROPConfig;
1412:../../Drivers/STM32H7xx_HAL_Driver/Src/stm32h7xx_hal_flash_ex.c ****   }
1413:../../Drivers/STM32H7xx_HAL_Driver/Src/stm32h7xx_hal_flash_ex.c **** 
1414:../../Drivers/STM32H7xx_HAL_Driver/Src/stm32h7xx_hal_flash_ex.c **** #if defined (DUAL_BANK)
1415:../../Drivers/STM32H7xx_HAL_Driver/Src/stm32h7xx_hal_flash_ex.c ****   if((Banks & FLASH_BANK_2) == FLASH_BANK_2)
 767              		.loc 1 1415 3 is_stmt 1 view .LVU250
 768              		.loc 1 1415 5 is_stmt 0 view .LVU251
 769 001e 13F0020F 		tst	r3, #2
 770 0022 0BD0     		beq	.L60
1416:../../Drivers/STM32H7xx_HAL_Driver/Src/stm32h7xx_hal_flash_ex.c ****   {
1417:../../Drivers/STM32H7xx_HAL_Driver/Src/stm32h7xx_hal_flash_ex.c ****     assert_param(IS_FLASH_PROGRAM_ADDRESS_BANK2(PCROPStartAddr));
 771              		.loc 1 1417 5 is_stmt 1 view .LVU252
1418:../../Drivers/STM32H7xx_HAL_Driver/Src/stm32h7xx_hal_flash_ex.c ****     assert_param(IS_FLASH_PROGRAM_ADDRESS_BANK2(PCROPEndAddr));
 772              		.loc 1 1418 5 view .LVU253
1419:../../Drivers/STM32H7xx_HAL_Driver/Src/stm32h7xx_hal_flash_ex.c **** 
1420:../../Drivers/STM32H7xx_HAL_Driver/Src/stm32h7xx_hal_flash_ex.c ****     /* Configure the Proprietary code readout protection */
1421:../../Drivers/STM32H7xx_HAL_Driver/Src/stm32h7xx_hal_flash_ex.c ****     FLASH->PRAR_PRG2 = ((PCROPStartAddr - FLASH_BANK2_BASE) >> 8)                                 |
 773              		.loc 1 1421 5 view .LVU254
 774              		.loc 1 1421 41 is_stmt 0 view .LVU255
 775 0024 A1F10161 		sub	r1, r1, #135266304
 776              	.LVL58:
1422:../../Drivers/STM32H7xx_HAL_Driver/Src/stm32h7xx_hal_flash_ex.c ****                        (((PCROPEndAddr - FLASH_BANK2_BASE) >> 8) << FLASH_PRAR_PROT_AREA_END_Pos) |
 777              		.loc 1 1422 40 view .LVU256
 778 0028 A2F10162 		sub	r2, r2, #135266304
 779              	.LVL59:
 780              		.loc 1 1422 60 view .LVU257
 781 002c 120A     		lsrs	r2, r2, #8
 782              	.LVL60:
 783              		.loc 1 1422 66 view .LVU258
 784 002e 1204     		lsls	r2, r2, #16
1421:../../Drivers/STM32H7xx_HAL_Driver/Src/stm32h7xx_hal_flash_ex.c ****                        (((PCROPEndAddr - FLASH_BANK2_BASE) >> 8) << FLASH_PRAR_PROT_AREA_END_Pos) |
 785              		.loc 1 1421 99 view .LVU259
 786 0030 42EA1122 		orr	r2, r2, r1, lsr #8
 787              		.loc 1 1422 99 view .LVU260
 788 0034 1043     		orrs	r0, r0, r2
 789              	.LVL61:
1421:../../Drivers/STM32H7xx_HAL_Driver/Src/stm32h7xx_hal_flash_ex.c ****                        (((PCROPEndAddr - FLASH_BANK2_BASE) >> 8) << FLASH_PRAR_PROT_AREA_END_Pos) |
 790              		.loc 1 1421 22 view .LVU261
 791 0036 024B     		ldr	r3, .L64
 792              	.LVL62:
ARM GAS  /tmp/ccS8U376.s 			page 40


1421:../../Drivers/STM32H7xx_HAL_Driver/Src/stm32h7xx_hal_flash_ex.c ****                        (((PCROPEndAddr - FLASH_BANK2_BASE) >> 8) << FLASH_PRAR_PROT_AREA_END_Pos) |
 793              		.loc 1 1421 22 view .LVU262
 794 0038 C3F82C01 		str	r0, [r3, #300]
 795              	.LVL63:
 796              	.L60:
1423:../../Drivers/STM32H7xx_HAL_Driver/Src/stm32h7xx_hal_flash_ex.c ****                        PCROPConfig;
1424:../../Drivers/STM32H7xx_HAL_Driver/Src/stm32h7xx_hal_flash_ex.c ****   }
1425:../../Drivers/STM32H7xx_HAL_Driver/Src/stm32h7xx_hal_flash_ex.c **** #endif /* DUAL_BANK */
1426:../../Drivers/STM32H7xx_HAL_Driver/Src/stm32h7xx_hal_flash_ex.c **** }
 797              		.loc 1 1426 1 view .LVU263
 798 003c 30BC     		pop	{r4, r5}
 799              	.LCFI8:
 800              		.cfi_restore 5
 801              		.cfi_restore 4
 802              		.cfi_def_cfa_offset 0
 803 003e 7047     		bx	lr
 804              	.L65:
 805              		.align	2
 806              	.L64:
 807 0040 00200052 		.word	1375739904
 808              		.cfi_endproc
 809              	.LFE162:
 811              		.section	.text.FLASH_OB_GetPCROP,"ax",%progbits
 812              		.align	1
 813              		.syntax unified
 814              		.thumb
 815              		.thumb_func
 816              		.fpu fpv5-d16
 818              	FLASH_OB_GetPCROP:
 819              	.LVL64:
 820              	.LFB163:
1427:../../Drivers/STM32H7xx_HAL_Driver/Src/stm32h7xx_hal_flash_ex.c **** 
1428:../../Drivers/STM32H7xx_HAL_Driver/Src/stm32h7xx_hal_flash_ex.c **** /**
1429:../../Drivers/STM32H7xx_HAL_Driver/Src/stm32h7xx_hal_flash_ex.c ****   * @brief  Get the Proprietary code readout protection configuration on a given Bank
1430:../../Drivers/STM32H7xx_HAL_Driver/Src/stm32h7xx_hal_flash_ex.c ****   *
1431:../../Drivers/STM32H7xx_HAL_Driver/Src/stm32h7xx_hal_flash_ex.c ****   * @param  PCROPConfig indicates if the PCROP area for the given Bank shall be erased or not
1432:../../Drivers/STM32H7xx_HAL_Driver/Src/stm32h7xx_hal_flash_ex.c ****   *         when RDP level decreased from Level 1 to Level 0 or after a bank erase with protection 
1433:../../Drivers/STM32H7xx_HAL_Driver/Src/stm32h7xx_hal_flash_ex.c ****   *
1434:../../Drivers/STM32H7xx_HAL_Driver/Src/stm32h7xx_hal_flash_ex.c ****   * @param  PCROPStartAddr gives the start address of the Proprietary code readout protection of th
1435:../../Drivers/STM32H7xx_HAL_Driver/Src/stm32h7xx_hal_flash_ex.c ****   *
1436:../../Drivers/STM32H7xx_HAL_Driver/Src/stm32h7xx_hal_flash_ex.c ****   * @param  PCROPEndAddr gives the end address of the Proprietary code readout protection of the ba
1437:../../Drivers/STM32H7xx_HAL_Driver/Src/stm32h7xx_hal_flash_ex.c ****   *
1438:../../Drivers/STM32H7xx_HAL_Driver/Src/stm32h7xx_hal_flash_ex.c ****   * @param  Bank the specific bank to apply PCROP protection
1439:../../Drivers/STM32H7xx_HAL_Driver/Src/stm32h7xx_hal_flash_ex.c ****   *          This parameter can be exclusively one of the following values:
1440:../../Drivers/STM32H7xx_HAL_Driver/Src/stm32h7xx_hal_flash_ex.c ****   *            @arg FLASH_BANK_1: PCROP on specified bank1 area
1441:../../Drivers/STM32H7xx_HAL_Driver/Src/stm32h7xx_hal_flash_ex.c ****   *            @arg FLASH_BANK_2: PCROP on specified bank2 area
1442:../../Drivers/STM32H7xx_HAL_Driver/Src/stm32h7xx_hal_flash_ex.c ****   *            @arg FLASH_BANK_BOTH: is  not allowed here
1443:../../Drivers/STM32H7xx_HAL_Driver/Src/stm32h7xx_hal_flash_ex.c ****   *
1444:../../Drivers/STM32H7xx_HAL_Driver/Src/stm32h7xx_hal_flash_ex.c ****   * @retval None
1445:../../Drivers/STM32H7xx_HAL_Driver/Src/stm32h7xx_hal_flash_ex.c ****   */
1446:../../Drivers/STM32H7xx_HAL_Driver/Src/stm32h7xx_hal_flash_ex.c **** static void FLASH_OB_GetPCROP(uint32_t *PCROPConfig, uint32_t *PCROPStartAddr, uint32_t *PCROPEndAd
1447:../../Drivers/STM32H7xx_HAL_Driver/Src/stm32h7xx_hal_flash_ex.c **** {
 821              		.loc 1 1447 1 is_stmt 1 view -0
 822              		.cfi_startproc
 823              		@ args = 0, pretend = 0, frame = 0
 824              		@ frame_needed = 0, uses_anonymous_args = 0
 825              		@ link register save eliminated.
ARM GAS  /tmp/ccS8U376.s 			page 41


 826              		.loc 1 1447 1 is_stmt 0 view .LVU265
 827 0000 30B4     		push	{r4, r5}
 828              	.LCFI9:
 829              		.cfi_def_cfa_offset 8
 830              		.cfi_offset 4, -8
 831              		.cfi_offset 5, -4
1448:../../Drivers/STM32H7xx_HAL_Driver/Src/stm32h7xx_hal_flash_ex.c ****   uint32_t regvalue = 0;
 832              		.loc 1 1448 3 is_stmt 1 view .LVU266
 833              	.LVL65:
1449:../../Drivers/STM32H7xx_HAL_Driver/Src/stm32h7xx_hal_flash_ex.c ****   uint32_t bankBase = 0;
 834              		.loc 1 1449 3 view .LVU267
1450:../../Drivers/STM32H7xx_HAL_Driver/Src/stm32h7xx_hal_flash_ex.c **** 
1451:../../Drivers/STM32H7xx_HAL_Driver/Src/stm32h7xx_hal_flash_ex.c ****   if(Bank == FLASH_BANK_1)
 835              		.loc 1 1451 3 view .LVU268
 836              		.loc 1 1451 5 is_stmt 0 view .LVU269
 837 0002 012B     		cmp	r3, #1
 838 0004 12D0     		beq	.L71
1449:../../Drivers/STM32H7xx_HAL_Driver/Src/stm32h7xx_hal_flash_ex.c ****   uint32_t bankBase = 0;
 839              		.loc 1 1449 12 view .LVU270
 840 0006 0025     		movs	r5, #0
1448:../../Drivers/STM32H7xx_HAL_Driver/Src/stm32h7xx_hal_flash_ex.c ****   uint32_t bankBase = 0;
 841              		.loc 1 1448 12 view .LVU271
 842 0008 2C46     		mov	r4, r5
 843              	.LVL66:
 844              	.L67:
1452:../../Drivers/STM32H7xx_HAL_Driver/Src/stm32h7xx_hal_flash_ex.c ****   {
1453:../../Drivers/STM32H7xx_HAL_Driver/Src/stm32h7xx_hal_flash_ex.c ****     regvalue = FLASH->PRAR_CUR1;
1454:../../Drivers/STM32H7xx_HAL_Driver/Src/stm32h7xx_hal_flash_ex.c ****     bankBase = FLASH_BANK1_BASE;
1455:../../Drivers/STM32H7xx_HAL_Driver/Src/stm32h7xx_hal_flash_ex.c ****   }
1456:../../Drivers/STM32H7xx_HAL_Driver/Src/stm32h7xx_hal_flash_ex.c **** 
1457:../../Drivers/STM32H7xx_HAL_Driver/Src/stm32h7xx_hal_flash_ex.c **** #if defined (DUAL_BANK)
1458:../../Drivers/STM32H7xx_HAL_Driver/Src/stm32h7xx_hal_flash_ex.c ****   if(Bank == FLASH_BANK_2)
 845              		.loc 1 1458 3 is_stmt 1 view .LVU272
 846              		.loc 1 1458 5 is_stmt 0 view .LVU273
 847 000a 022B     		cmp	r3, #2
 848 000c 13D0     		beq	.L72
 849              	.LVL67:
 850              	.L68:
1459:../../Drivers/STM32H7xx_HAL_Driver/Src/stm32h7xx_hal_flash_ex.c ****   {
1460:../../Drivers/STM32H7xx_HAL_Driver/Src/stm32h7xx_hal_flash_ex.c ****     regvalue = FLASH->PRAR_CUR2;
1461:../../Drivers/STM32H7xx_HAL_Driver/Src/stm32h7xx_hal_flash_ex.c ****     bankBase = FLASH_BANK2_BASE;
1462:../../Drivers/STM32H7xx_HAL_Driver/Src/stm32h7xx_hal_flash_ex.c ****   }
1463:../../Drivers/STM32H7xx_HAL_Driver/Src/stm32h7xx_hal_flash_ex.c **** #endif /* DUAL_BANK */
1464:../../Drivers/STM32H7xx_HAL_Driver/Src/stm32h7xx_hal_flash_ex.c **** 
1465:../../Drivers/STM32H7xx_HAL_Driver/Src/stm32h7xx_hal_flash_ex.c ****   (*PCROPConfig) =  (regvalue & FLASH_PRAR_DMEP);
 851              		.loc 1 1465 3 is_stmt 1 view .LVU274
 852              		.loc 1 1465 31 is_stmt 0 view .LVU275
 853 000e 04F00043 		and	r3, r4, #-2147483648
 854              		.loc 1 1465 18 view .LVU276
 855 0012 0360     		str	r3, [r0]
1466:../../Drivers/STM32H7xx_HAL_Driver/Src/stm32h7xx_hal_flash_ex.c **** 
1467:../../Drivers/STM32H7xx_HAL_Driver/Src/stm32h7xx_hal_flash_ex.c ****   (*PCROPStartAddr) = ((regvalue & FLASH_PRAR_PROT_AREA_START) << 8) + bankBase;
 856              		.loc 1 1467 3 is_stmt 1 view .LVU277
 857              		.loc 1 1467 64 is_stmt 0 view .LVU278
 858 0014 0B4B     		ldr	r3, .L73
 859 0016 03EA0423 		and	r3, r3, r4, lsl #8
 860              		.loc 1 1467 70 view .LVU279
ARM GAS  /tmp/ccS8U376.s 			page 42


 861 001a 2B44     		add	r3, r3, r5
 862              		.loc 1 1467 21 view .LVU280
 863 001c 0B60     		str	r3, [r1]
1468:../../Drivers/STM32H7xx_HAL_Driver/Src/stm32h7xx_hal_flash_ex.c ****   (*PCROPEndAddr) = (regvalue & FLASH_PRAR_PROT_AREA_END) >> FLASH_PRAR_PROT_AREA_END_Pos;
 864              		.loc 1 1468 3 is_stmt 1 view .LVU281
 865              		.loc 1 1468 59 is_stmt 0 view .LVU282
 866 001e C4F30B44 		ubfx	r4, r4, #16, #12
 867              	.LVL68:
1469:../../Drivers/STM32H7xx_HAL_Driver/Src/stm32h7xx_hal_flash_ex.c ****   (*PCROPEndAddr) = ((*PCROPEndAddr) << 8) + bankBase;
 868              		.loc 1 1469 3 is_stmt 1 view .LVU283
 869              		.loc 1 1469 44 is_stmt 0 view .LVU284
 870 0022 05EB0424 		add	r4, r5, r4, lsl #8
 871              		.loc 1 1469 19 view .LVU285
 872 0026 1460     		str	r4, [r2]
1470:../../Drivers/STM32H7xx_HAL_Driver/Src/stm32h7xx_hal_flash_ex.c **** }
 873              		.loc 1 1470 1 view .LVU286
 874 0028 30BC     		pop	{r4, r5}
 875              	.LCFI10:
 876              		.cfi_remember_state
 877              		.cfi_restore 5
 878              		.cfi_restore 4
 879              		.cfi_def_cfa_offset 0
 880              	.LVL69:
 881              		.loc 1 1470 1 view .LVU287
 882 002a 7047     		bx	lr
 883              	.LVL70:
 884              	.L71:
 885              	.LCFI11:
 886              		.cfi_restore_state
1453:../../Drivers/STM32H7xx_HAL_Driver/Src/stm32h7xx_hal_flash_ex.c ****     bankBase = FLASH_BANK1_BASE;
 887              		.loc 1 1453 5 is_stmt 1 view .LVU288
1453:../../Drivers/STM32H7xx_HAL_Driver/Src/stm32h7xx_hal_flash_ex.c ****     bankBase = FLASH_BANK1_BASE;
 888              		.loc 1 1453 14 is_stmt 0 view .LVU289
 889 002c 064C     		ldr	r4, .L73+4
 890 002e A46A     		ldr	r4, [r4, #40]
 891              	.LVL71:
1454:../../Drivers/STM32H7xx_HAL_Driver/Src/stm32h7xx_hal_flash_ex.c ****   }
 892              		.loc 1 1454 5 is_stmt 1 view .LVU290
1454:../../Drivers/STM32H7xx_HAL_Driver/Src/stm32h7xx_hal_flash_ex.c ****   }
 893              		.loc 1 1454 14 is_stmt 0 view .LVU291
 894 0030 4FF00065 		mov	r5, #134217728
 895 0034 E9E7     		b	.L67
 896              	.LVL72:
 897              	.L72:
1460:../../Drivers/STM32H7xx_HAL_Driver/Src/stm32h7xx_hal_flash_ex.c ****     bankBase = FLASH_BANK2_BASE;
 898              		.loc 1 1460 5 is_stmt 1 view .LVU292
1460:../../Drivers/STM32H7xx_HAL_Driver/Src/stm32h7xx_hal_flash_ex.c ****     bankBase = FLASH_BANK2_BASE;
 899              		.loc 1 1460 14 is_stmt 0 view .LVU293
 900 0036 044B     		ldr	r3, .L73+4
 901              	.LVL73:
1460:../../Drivers/STM32H7xx_HAL_Driver/Src/stm32h7xx_hal_flash_ex.c ****     bankBase = FLASH_BANK2_BASE;
 902              		.loc 1 1460 14 view .LVU294
 903 0038 D3F82841 		ldr	r4, [r3, #296]
 904              	.LVL74:
1461:../../Drivers/STM32H7xx_HAL_Driver/Src/stm32h7xx_hal_flash_ex.c ****   }
 905              		.loc 1 1461 5 is_stmt 1 view .LVU295
1461:../../Drivers/STM32H7xx_HAL_Driver/Src/stm32h7xx_hal_flash_ex.c ****   }
ARM GAS  /tmp/ccS8U376.s 			page 43


 906              		.loc 1 1461 14 is_stmt 0 view .LVU296
 907 003c 4FF00165 		mov	r5, #135266304
 908 0040 E5E7     		b	.L68
 909              	.L74:
 910 0042 00BF     		.align	2
 911              	.L73:
 912 0044 00FF0F00 		.word	1048320
 913 0048 00200052 		.word	1375739904
 914              		.cfi_endproc
 915              	.LFE163:
 917              		.section	.text.FLASH_OB_BOR_LevelConfig,"ax",%progbits
 918              		.align	1
 919              		.syntax unified
 920              		.thumb
 921              		.thumb_func
 922              		.fpu fpv5-d16
 924              	FLASH_OB_BOR_LevelConfig:
 925              	.LVL75:
 926              	.LFB164:
1471:../../Drivers/STM32H7xx_HAL_Driver/Src/stm32h7xx_hal_flash_ex.c **** 
1472:../../Drivers/STM32H7xx_HAL_Driver/Src/stm32h7xx_hal_flash_ex.c **** /**
1473:../../Drivers/STM32H7xx_HAL_Driver/Src/stm32h7xx_hal_flash_ex.c ****   * @brief  Set the BOR Level.
1474:../../Drivers/STM32H7xx_HAL_Driver/Src/stm32h7xx_hal_flash_ex.c ****   * @param  Level specifies the Option Bytes BOR Reset Level.
1475:../../Drivers/STM32H7xx_HAL_Driver/Src/stm32h7xx_hal_flash_ex.c ****   *          This parameter can be one of the following values:
1476:../../Drivers/STM32H7xx_HAL_Driver/Src/stm32h7xx_hal_flash_ex.c ****   *            @arg OB_BOR_LEVEL0: Reset level threshold is set to 1.6V
1477:../../Drivers/STM32H7xx_HAL_Driver/Src/stm32h7xx_hal_flash_ex.c ****   *            @arg OB_BOR_LEVEL1: Reset level threshold is set to 2.1V
1478:../../Drivers/STM32H7xx_HAL_Driver/Src/stm32h7xx_hal_flash_ex.c ****   *            @arg OB_BOR_LEVEL2: Reset level threshold is set to 2.4V
1479:../../Drivers/STM32H7xx_HAL_Driver/Src/stm32h7xx_hal_flash_ex.c ****   *            @arg OB_BOR_LEVEL3: Reset level threshold is set to 2.7V
1480:../../Drivers/STM32H7xx_HAL_Driver/Src/stm32h7xx_hal_flash_ex.c ****   * @retval None
1481:../../Drivers/STM32H7xx_HAL_Driver/Src/stm32h7xx_hal_flash_ex.c ****   */
1482:../../Drivers/STM32H7xx_HAL_Driver/Src/stm32h7xx_hal_flash_ex.c **** static void FLASH_OB_BOR_LevelConfig(uint32_t Level)
1483:../../Drivers/STM32H7xx_HAL_Driver/Src/stm32h7xx_hal_flash_ex.c **** {
 927              		.loc 1 1483 1 is_stmt 1 view -0
 928              		.cfi_startproc
 929              		@ args = 0, pretend = 0, frame = 0
 930              		@ frame_needed = 0, uses_anonymous_args = 0
 931              		@ link register save eliminated.
1484:../../Drivers/STM32H7xx_HAL_Driver/Src/stm32h7xx_hal_flash_ex.c ****   assert_param(IS_OB_BOR_LEVEL(Level));
 932              		.loc 1 1484 3 view .LVU298
1485:../../Drivers/STM32H7xx_HAL_Driver/Src/stm32h7xx_hal_flash_ex.c **** 
1486:../../Drivers/STM32H7xx_HAL_Driver/Src/stm32h7xx_hal_flash_ex.c ****   /* Configure BOR_LEV option byte */
1487:../../Drivers/STM32H7xx_HAL_Driver/Src/stm32h7xx_hal_flash_ex.c ****   MODIFY_REG(FLASH->OPTSR_PRG, FLASH_OPTSR_BOR_LEV, Level);
 933              		.loc 1 1487 3 view .LVU299
 934 0000 034A     		ldr	r2, .L76
 935 0002 136A     		ldr	r3, [r2, #32]
 936 0004 23F00C03 		bic	r3, r3, #12
 937 0008 0343     		orrs	r3, r3, r0
 938 000a 1362     		str	r3, [r2, #32]
1488:../../Drivers/STM32H7xx_HAL_Driver/Src/stm32h7xx_hal_flash_ex.c **** }
 939              		.loc 1 1488 1 is_stmt 0 view .LVU300
 940 000c 7047     		bx	lr
 941              	.L77:
 942 000e 00BF     		.align	2
 943              	.L76:
 944 0010 00200052 		.word	1375739904
 945              		.cfi_endproc
 946              	.LFE164:
ARM GAS  /tmp/ccS8U376.s 			page 44


 948              		.section	.text.FLASH_OB_GetBOR,"ax",%progbits
 949              		.align	1
 950              		.syntax unified
 951              		.thumb
 952              		.thumb_func
 953              		.fpu fpv5-d16
 955              	FLASH_OB_GetBOR:
 956              	.LFB165:
1489:../../Drivers/STM32H7xx_HAL_Driver/Src/stm32h7xx_hal_flash_ex.c **** 
1490:../../Drivers/STM32H7xx_HAL_Driver/Src/stm32h7xx_hal_flash_ex.c **** /**
1491:../../Drivers/STM32H7xx_HAL_Driver/Src/stm32h7xx_hal_flash_ex.c ****   * @brief  Get the BOR Level.
1492:../../Drivers/STM32H7xx_HAL_Driver/Src/stm32h7xx_hal_flash_ex.c ****   * @retval The Option Bytes BOR Reset Level.
1493:../../Drivers/STM32H7xx_HAL_Driver/Src/stm32h7xx_hal_flash_ex.c ****   *            This parameter can be one of the following values:
1494:../../Drivers/STM32H7xx_HAL_Driver/Src/stm32h7xx_hal_flash_ex.c ****   *            @arg OB_BOR_LEVEL0: Reset level threshold is set to 1.6V
1495:../../Drivers/STM32H7xx_HAL_Driver/Src/stm32h7xx_hal_flash_ex.c ****   *            @arg OB_BOR_LEVEL1: Reset level threshold is set to 2.1V
1496:../../Drivers/STM32H7xx_HAL_Driver/Src/stm32h7xx_hal_flash_ex.c ****   *            @arg OB_BOR_LEVEL2: Reset level threshold is set to 2.4V
1497:../../Drivers/STM32H7xx_HAL_Driver/Src/stm32h7xx_hal_flash_ex.c ****   *            @arg OB_BOR_LEVEL3: Reset level threshold is set to 2.7V
1498:../../Drivers/STM32H7xx_HAL_Driver/Src/stm32h7xx_hal_flash_ex.c ****   */
1499:../../Drivers/STM32H7xx_HAL_Driver/Src/stm32h7xx_hal_flash_ex.c **** static uint32_t FLASH_OB_GetBOR(void)
1500:../../Drivers/STM32H7xx_HAL_Driver/Src/stm32h7xx_hal_flash_ex.c **** {
 957              		.loc 1 1500 1 is_stmt 1 view -0
 958              		.cfi_startproc
 959              		@ args = 0, pretend = 0, frame = 0
 960              		@ frame_needed = 0, uses_anonymous_args = 0
 961              		@ link register save eliminated.
1501:../../Drivers/STM32H7xx_HAL_Driver/Src/stm32h7xx_hal_flash_ex.c ****   return (FLASH->OPTSR_CUR & FLASH_OPTSR_BOR_LEV);
 962              		.loc 1 1501 3 view .LVU302
 963              		.loc 1 1501 16 is_stmt 0 view .LVU303
 964 0000 024B     		ldr	r3, .L79
 965 0002 D869     		ldr	r0, [r3, #28]
1502:../../Drivers/STM32H7xx_HAL_Driver/Src/stm32h7xx_hal_flash_ex.c **** }
 966              		.loc 1 1502 1 view .LVU304
 967 0004 00F00C00 		and	r0, r0, #12
 968 0008 7047     		bx	lr
 969              	.L80:
 970 000a 00BF     		.align	2
 971              	.L79:
 972 000c 00200052 		.word	1375739904
 973              		.cfi_endproc
 974              	.LFE165:
 976              		.section	.text.FLASH_OB_BootAddConfig,"ax",%progbits
 977              		.align	1
 978              		.syntax unified
 979              		.thumb
 980              		.thumb_func
 981              		.fpu fpv5-d16
 983              	FLASH_OB_BootAddConfig:
 984              	.LVL76:
 985              	.LFB166:
1503:../../Drivers/STM32H7xx_HAL_Driver/Src/stm32h7xx_hal_flash_ex.c **** 
1504:../../Drivers/STM32H7xx_HAL_Driver/Src/stm32h7xx_hal_flash_ex.c **** /**
1505:../../Drivers/STM32H7xx_HAL_Driver/Src/stm32h7xx_hal_flash_ex.c ****   * @brief  Set Boot address
1506:../../Drivers/STM32H7xx_HAL_Driver/Src/stm32h7xx_hal_flash_ex.c ****   * @param  BootOption Boot address option byte to be programmed,
1507:../../Drivers/STM32H7xx_HAL_Driver/Src/stm32h7xx_hal_flash_ex.c ****   *                     This parameter must be a value of @ref FLASHEx_OB_BOOT_OPTION
1508:../../Drivers/STM32H7xx_HAL_Driver/Src/stm32h7xx_hal_flash_ex.c ****                         (OB_BOOT_ADD0, OB_BOOT_ADD1 or OB_BOOT_ADD_BOTH)
1509:../../Drivers/STM32H7xx_HAL_Driver/Src/stm32h7xx_hal_flash_ex.c ****   *
1510:../../Drivers/STM32H7xx_HAL_Driver/Src/stm32h7xx_hal_flash_ex.c ****   * @param  BootAddress0 Specifies the Boot Address 0
ARM GAS  /tmp/ccS8U376.s 			page 45


1511:../../Drivers/STM32H7xx_HAL_Driver/Src/stm32h7xx_hal_flash_ex.c ****   * @param  BootAddress1 Specifies the Boot Address 1
1512:../../Drivers/STM32H7xx_HAL_Driver/Src/stm32h7xx_hal_flash_ex.c ****   * @retval HAL Status
1513:../../Drivers/STM32H7xx_HAL_Driver/Src/stm32h7xx_hal_flash_ex.c ****   */
1514:../../Drivers/STM32H7xx_HAL_Driver/Src/stm32h7xx_hal_flash_ex.c **** static void FLASH_OB_BootAddConfig(uint32_t BootOption, uint32_t BootAddress0, uint32_t BootAddress
1515:../../Drivers/STM32H7xx_HAL_Driver/Src/stm32h7xx_hal_flash_ex.c **** {
 986              		.loc 1 1515 1 is_stmt 1 view -0
 987              		.cfi_startproc
 988              		@ args = 0, pretend = 0, frame = 0
 989              		@ frame_needed = 0, uses_anonymous_args = 0
 990              		@ link register save eliminated.
 991              		.loc 1 1515 1 is_stmt 0 view .LVU306
 992 0000 30B4     		push	{r4, r5}
 993              	.LCFI12:
 994              		.cfi_def_cfa_offset 8
 995              		.cfi_offset 4, -8
 996              		.cfi_offset 5, -4
1516:../../Drivers/STM32H7xx_HAL_Driver/Src/stm32h7xx_hal_flash_ex.c ****   /* Check the parameters */
1517:../../Drivers/STM32H7xx_HAL_Driver/Src/stm32h7xx_hal_flash_ex.c ****   assert_param(IS_OB_BOOT_ADD_OPTION(BootOption));
 997              		.loc 1 1517 3 is_stmt 1 view .LVU307
1518:../../Drivers/STM32H7xx_HAL_Driver/Src/stm32h7xx_hal_flash_ex.c **** 
1519:../../Drivers/STM32H7xx_HAL_Driver/Src/stm32h7xx_hal_flash_ex.c ****   if((BootOption & OB_BOOT_ADD0) == OB_BOOT_ADD0)
 998              		.loc 1 1519 3 view .LVU308
 999              		.loc 1 1519 5 is_stmt 0 view .LVU309
 1000 0002 10F0010F 		tst	r0, #1
 1001 0006 06D0     		beq	.L82
1520:../../Drivers/STM32H7xx_HAL_Driver/Src/stm32h7xx_hal_flash_ex.c ****   {
1521:../../Drivers/STM32H7xx_HAL_Driver/Src/stm32h7xx_hal_flash_ex.c ****     /* Check the parameters */
1522:../../Drivers/STM32H7xx_HAL_Driver/Src/stm32h7xx_hal_flash_ex.c ****     assert_param(IS_BOOT_ADDRESS(BootAddress0));
 1002              		.loc 1 1522 5 is_stmt 1 view .LVU310
1523:../../Drivers/STM32H7xx_HAL_Driver/Src/stm32h7xx_hal_flash_ex.c **** 
1524:../../Drivers/STM32H7xx_HAL_Driver/Src/stm32h7xx_hal_flash_ex.c ****     /* Configure CM7 BOOT ADD0 */
1525:../../Drivers/STM32H7xx_HAL_Driver/Src/stm32h7xx_hal_flash_ex.c **** #if defined(DUAL_CORE)
1526:../../Drivers/STM32H7xx_HAL_Driver/Src/stm32h7xx_hal_flash_ex.c ****     MODIFY_REG(FLASH->BOOT7_PRG, FLASH_BOOT7_BCM7_ADD0, (BootAddress0 >> 16));
 1003              		.loc 1 1526 5 view .LVU311
 1004 0008 084C     		ldr	r4, .L85
 1005 000a 656C     		ldr	r5, [r4, #68]
 1006 000c 084B     		ldr	r3, .L85+4
 1007 000e 2B40     		ands	r3, r3, r5
 1008 0010 43EA1141 		orr	r1, r3, r1, lsr #16
 1009              	.LVL77:
 1010              		.loc 1 1526 5 is_stmt 0 view .LVU312
 1011 0014 6164     		str	r1, [r4, #68]
 1012              	.L82:
1527:../../Drivers/STM32H7xx_HAL_Driver/Src/stm32h7xx_hal_flash_ex.c **** #else /* Single Core*/
1528:../../Drivers/STM32H7xx_HAL_Driver/Src/stm32h7xx_hal_flash_ex.c ****     MODIFY_REG(FLASH->BOOT_PRG, FLASH_BOOT_ADD0, (BootAddress0 >> 16));
1529:../../Drivers/STM32H7xx_HAL_Driver/Src/stm32h7xx_hal_flash_ex.c **** #endif /* DUAL_CORE */
1530:../../Drivers/STM32H7xx_HAL_Driver/Src/stm32h7xx_hal_flash_ex.c ****   }
1531:../../Drivers/STM32H7xx_HAL_Driver/Src/stm32h7xx_hal_flash_ex.c **** 
1532:../../Drivers/STM32H7xx_HAL_Driver/Src/stm32h7xx_hal_flash_ex.c ****   if((BootOption & OB_BOOT_ADD1) == OB_BOOT_ADD1)
 1013              		.loc 1 1532 3 is_stmt 1 view .LVU313
 1014              		.loc 1 1532 5 is_stmt 0 view .LVU314
 1015 0016 10F0020F 		tst	r0, #2
 1016 001a 04D0     		beq	.L81
1533:../../Drivers/STM32H7xx_HAL_Driver/Src/stm32h7xx_hal_flash_ex.c ****   {
1534:../../Drivers/STM32H7xx_HAL_Driver/Src/stm32h7xx_hal_flash_ex.c ****     /* Check the parameters */
1535:../../Drivers/STM32H7xx_HAL_Driver/Src/stm32h7xx_hal_flash_ex.c ****     assert_param(IS_BOOT_ADDRESS(BootAddress1));
 1017              		.loc 1 1535 5 is_stmt 1 view .LVU315
ARM GAS  /tmp/ccS8U376.s 			page 46


1536:../../Drivers/STM32H7xx_HAL_Driver/Src/stm32h7xx_hal_flash_ex.c **** 
1537:../../Drivers/STM32H7xx_HAL_Driver/Src/stm32h7xx_hal_flash_ex.c ****     /* Configure CM7 BOOT ADD1 */
1538:../../Drivers/STM32H7xx_HAL_Driver/Src/stm32h7xx_hal_flash_ex.c **** #if defined(DUAL_CORE)
1539:../../Drivers/STM32H7xx_HAL_Driver/Src/stm32h7xx_hal_flash_ex.c ****     MODIFY_REG(FLASH->BOOT7_PRG, FLASH_BOOT7_BCM7_ADD1, BootAddress1);
 1018              		.loc 1 1539 5 view .LVU316
 1019 001c 0349     		ldr	r1, .L85
 1020 001e 4B6C     		ldr	r3, [r1, #68]
 1021 0020 9BB2     		uxth	r3, r3
 1022 0022 1A43     		orrs	r2, r2, r3
 1023              	.LVL78:
 1024              		.loc 1 1539 5 is_stmt 0 view .LVU317
 1025 0024 4A64     		str	r2, [r1, #68]
 1026              	.L81:
1540:../../Drivers/STM32H7xx_HAL_Driver/Src/stm32h7xx_hal_flash_ex.c **** #else /* Single Core*/
1541:../../Drivers/STM32H7xx_HAL_Driver/Src/stm32h7xx_hal_flash_ex.c ****     MODIFY_REG(FLASH->BOOT_PRG, FLASH_BOOT_ADD1, BootAddress1);
1542:../../Drivers/STM32H7xx_HAL_Driver/Src/stm32h7xx_hal_flash_ex.c **** #endif /* DUAL_CORE */
1543:../../Drivers/STM32H7xx_HAL_Driver/Src/stm32h7xx_hal_flash_ex.c ****   }
1544:../../Drivers/STM32H7xx_HAL_Driver/Src/stm32h7xx_hal_flash_ex.c **** }
 1027              		.loc 1 1544 1 view .LVU318
 1028 0026 30BC     		pop	{r4, r5}
 1029              	.LCFI13:
 1030              		.cfi_restore 5
 1031              		.cfi_restore 4
 1032              		.cfi_def_cfa_offset 0
 1033 0028 7047     		bx	lr
 1034              	.L86:
 1035 002a 00BF     		.align	2
 1036              	.L85:
 1037 002c 00200052 		.word	1375739904
 1038 0030 0000FFFF 		.word	-65536
 1039              		.cfi_endproc
 1040              	.LFE166:
 1042              		.section	.text.FLASH_OB_GetBootAdd,"ax",%progbits
 1043              		.align	1
 1044              		.syntax unified
 1045              		.thumb
 1046              		.thumb_func
 1047              		.fpu fpv5-d16
 1049              	FLASH_OB_GetBootAdd:
 1050              	.LVL79:
 1051              	.LFB167:
1545:../../Drivers/STM32H7xx_HAL_Driver/Src/stm32h7xx_hal_flash_ex.c **** 
1546:../../Drivers/STM32H7xx_HAL_Driver/Src/stm32h7xx_hal_flash_ex.c **** /**
1547:../../Drivers/STM32H7xx_HAL_Driver/Src/stm32h7xx_hal_flash_ex.c ****   * @brief  Get Boot address
1548:../../Drivers/STM32H7xx_HAL_Driver/Src/stm32h7xx_hal_flash_ex.c ****   * @param  BootAddress0 Specifies the Boot Address 0.
1549:../../Drivers/STM32H7xx_HAL_Driver/Src/stm32h7xx_hal_flash_ex.c ****   * @param  BootAddress1 Specifies the Boot Address 1.
1550:../../Drivers/STM32H7xx_HAL_Driver/Src/stm32h7xx_hal_flash_ex.c ****   * @retval HAL Status
1551:../../Drivers/STM32H7xx_HAL_Driver/Src/stm32h7xx_hal_flash_ex.c ****   */
1552:../../Drivers/STM32H7xx_HAL_Driver/Src/stm32h7xx_hal_flash_ex.c **** static void FLASH_OB_GetBootAdd(uint32_t *BootAddress0, uint32_t *BootAddress1)
1553:../../Drivers/STM32H7xx_HAL_Driver/Src/stm32h7xx_hal_flash_ex.c **** {
 1052              		.loc 1 1553 1 is_stmt 1 view -0
 1053              		.cfi_startproc
 1054              		@ args = 0, pretend = 0, frame = 0
 1055              		@ frame_needed = 0, uses_anonymous_args = 0
 1056              		@ link register save eliminated.
1554:../../Drivers/STM32H7xx_HAL_Driver/Src/stm32h7xx_hal_flash_ex.c ****   uint32_t regvalue;
 1057              		.loc 1 1554 3 view .LVU320
ARM GAS  /tmp/ccS8U376.s 			page 47


1555:../../Drivers/STM32H7xx_HAL_Driver/Src/stm32h7xx_hal_flash_ex.c **** 
1556:../../Drivers/STM32H7xx_HAL_Driver/Src/stm32h7xx_hal_flash_ex.c **** #if defined(DUAL_CORE)
1557:../../Drivers/STM32H7xx_HAL_Driver/Src/stm32h7xx_hal_flash_ex.c ****   regvalue = FLASH->BOOT7_CUR;
 1058              		.loc 1 1557 3 view .LVU321
 1059              		.loc 1 1557 12 is_stmt 0 view .LVU322
 1060 0000 034B     		ldr	r3, .L88
 1061 0002 1A6C     		ldr	r2, [r3, #64]
 1062              	.LVL80:
1558:../../Drivers/STM32H7xx_HAL_Driver/Src/stm32h7xx_hal_flash_ex.c **** 
1559:../../Drivers/STM32H7xx_HAL_Driver/Src/stm32h7xx_hal_flash_ex.c ****   (*BootAddress0) = (regvalue & FLASH_BOOT7_BCM7_ADD0) << 16;
 1063              		.loc 1 1559 3 is_stmt 1 view .LVU323
 1064              		.loc 1 1559 56 is_stmt 0 view .LVU324
 1065 0004 1304     		lsls	r3, r2, #16
 1066              		.loc 1 1559 19 view .LVU325
 1067 0006 0360     		str	r3, [r0]
1560:../../Drivers/STM32H7xx_HAL_Driver/Src/stm32h7xx_hal_flash_ex.c ****   (*BootAddress1) = (regvalue & FLASH_BOOT7_BCM7_ADD1);
 1068              		.loc 1 1560 3 is_stmt 1 view .LVU326
 1069              		.loc 1 1560 31 is_stmt 0 view .LVU327
 1070 0008 024B     		ldr	r3, .L88+4
 1071 000a 1340     		ands	r3, r3, r2
 1072              		.loc 1 1560 19 view .LVU328
 1073 000c 0B60     		str	r3, [r1]
1561:../../Drivers/STM32H7xx_HAL_Driver/Src/stm32h7xx_hal_flash_ex.c **** #else /* Single Core */
1562:../../Drivers/STM32H7xx_HAL_Driver/Src/stm32h7xx_hal_flash_ex.c ****   regvalue = FLASH->BOOT_CUR;
1563:../../Drivers/STM32H7xx_HAL_Driver/Src/stm32h7xx_hal_flash_ex.c **** 
1564:../../Drivers/STM32H7xx_HAL_Driver/Src/stm32h7xx_hal_flash_ex.c ****   (*BootAddress0) = (regvalue & FLASH_BOOT_ADD0) << 16;
1565:../../Drivers/STM32H7xx_HAL_Driver/Src/stm32h7xx_hal_flash_ex.c ****   (*BootAddress1) = (regvalue & FLASH_BOOT_ADD1);
1566:../../Drivers/STM32H7xx_HAL_Driver/Src/stm32h7xx_hal_flash_ex.c **** #endif /* DUAL_CORE */
1567:../../Drivers/STM32H7xx_HAL_Driver/Src/stm32h7xx_hal_flash_ex.c **** }
 1074              		.loc 1 1567 1 view .LVU329
 1075 000e 7047     		bx	lr
 1076              	.L89:
 1077              		.align	2
 1078              	.L88:
 1079 0010 00200052 		.word	1375739904
 1080 0014 0000FFFF 		.word	-65536
 1081              		.cfi_endproc
 1082              	.LFE167:
 1084              		.section	.text.FLASH_OB_CM4BootAddConfig,"ax",%progbits
 1085              		.align	1
 1086              		.syntax unified
 1087              		.thumb
 1088              		.thumb_func
 1089              		.fpu fpv5-d16
 1091              	FLASH_OB_CM4BootAddConfig:
 1092              	.LVL81:
 1093              	.LFB168:
1568:../../Drivers/STM32H7xx_HAL_Driver/Src/stm32h7xx_hal_flash_ex.c **** 
1569:../../Drivers/STM32H7xx_HAL_Driver/Src/stm32h7xx_hal_flash_ex.c **** #if defined(DUAL_CORE)
1570:../../Drivers/STM32H7xx_HAL_Driver/Src/stm32h7xx_hal_flash_ex.c **** /**
1571:../../Drivers/STM32H7xx_HAL_Driver/Src/stm32h7xx_hal_flash_ex.c ****   * @brief  Set CM4 Boot address
1572:../../Drivers/STM32H7xx_HAL_Driver/Src/stm32h7xx_hal_flash_ex.c ****   * @param  BootOption Boot address option byte to be programmed,
1573:../../Drivers/STM32H7xx_HAL_Driver/Src/stm32h7xx_hal_flash_ex.c ****   *                     This parameter must be a value of @ref FLASHEx_OB_BOOT_OPTION
1574:../../Drivers/STM32H7xx_HAL_Driver/Src/stm32h7xx_hal_flash_ex.c ****                         (OB_BOOT_ADD0, OB_BOOT_ADD1 or OB_BOOT_ADD_BOTH)
1575:../../Drivers/STM32H7xx_HAL_Driver/Src/stm32h7xx_hal_flash_ex.c ****   *
1576:../../Drivers/STM32H7xx_HAL_Driver/Src/stm32h7xx_hal_flash_ex.c ****   * @param  BootAddress0 Specifies the CM4 Boot Address 0.
1577:../../Drivers/STM32H7xx_HAL_Driver/Src/stm32h7xx_hal_flash_ex.c ****   * @param  BootAddress1 Specifies the CM4 Boot Address 1.
ARM GAS  /tmp/ccS8U376.s 			page 48


1578:../../Drivers/STM32H7xx_HAL_Driver/Src/stm32h7xx_hal_flash_ex.c ****   * @retval HAL Status
1579:../../Drivers/STM32H7xx_HAL_Driver/Src/stm32h7xx_hal_flash_ex.c ****   */
1580:../../Drivers/STM32H7xx_HAL_Driver/Src/stm32h7xx_hal_flash_ex.c **** static void FLASH_OB_CM4BootAddConfig(uint32_t BootOption, uint32_t BootAddress0, uint32_t BootAddr
1581:../../Drivers/STM32H7xx_HAL_Driver/Src/stm32h7xx_hal_flash_ex.c **** {
 1094              		.loc 1 1581 1 is_stmt 1 view -0
 1095              		.cfi_startproc
 1096              		@ args = 0, pretend = 0, frame = 0
 1097              		@ frame_needed = 0, uses_anonymous_args = 0
 1098              		@ link register save eliminated.
 1099              		.loc 1 1581 1 is_stmt 0 view .LVU331
 1100 0000 30B4     		push	{r4, r5}
 1101              	.LCFI14:
 1102              		.cfi_def_cfa_offset 8
 1103              		.cfi_offset 4, -8
 1104              		.cfi_offset 5, -4
1582:../../Drivers/STM32H7xx_HAL_Driver/Src/stm32h7xx_hal_flash_ex.c ****   /* Check the parameters */
1583:../../Drivers/STM32H7xx_HAL_Driver/Src/stm32h7xx_hal_flash_ex.c ****   assert_param(IS_OB_BOOT_ADD_OPTION(BootOption));
 1105              		.loc 1 1583 3 is_stmt 1 view .LVU332
1584:../../Drivers/STM32H7xx_HAL_Driver/Src/stm32h7xx_hal_flash_ex.c **** 
1585:../../Drivers/STM32H7xx_HAL_Driver/Src/stm32h7xx_hal_flash_ex.c ****   if((BootOption & OB_BOOT_ADD0) == OB_BOOT_ADD0)
 1106              		.loc 1 1585 3 view .LVU333
 1107              		.loc 1 1585 5 is_stmt 0 view .LVU334
 1108 0002 10F0010F 		tst	r0, #1
 1109 0006 06D0     		beq	.L91
1586:../../Drivers/STM32H7xx_HAL_Driver/Src/stm32h7xx_hal_flash_ex.c ****   {
1587:../../Drivers/STM32H7xx_HAL_Driver/Src/stm32h7xx_hal_flash_ex.c ****     /* Check the parameters */
1588:../../Drivers/STM32H7xx_HAL_Driver/Src/stm32h7xx_hal_flash_ex.c ****     assert_param(IS_BOOT_ADDRESS(BootAddress0));
 1110              		.loc 1 1588 5 is_stmt 1 view .LVU335
1589:../../Drivers/STM32H7xx_HAL_Driver/Src/stm32h7xx_hal_flash_ex.c **** 
1590:../../Drivers/STM32H7xx_HAL_Driver/Src/stm32h7xx_hal_flash_ex.c ****     /* Configure CM4 BOOT ADD0 */
1591:../../Drivers/STM32H7xx_HAL_Driver/Src/stm32h7xx_hal_flash_ex.c ****     MODIFY_REG(FLASH->BOOT4_PRG, FLASH_BOOT4_BCM4_ADD0, (BootAddress0 >> 16));
 1111              		.loc 1 1591 5 view .LVU336
 1112 0008 084C     		ldr	r4, .L94
 1113 000a E56C     		ldr	r5, [r4, #76]
 1114 000c 084B     		ldr	r3, .L94+4
 1115 000e 2B40     		ands	r3, r3, r5
 1116 0010 43EA1141 		orr	r1, r3, r1, lsr #16
 1117              	.LVL82:
 1118              		.loc 1 1591 5 is_stmt 0 view .LVU337
 1119 0014 E164     		str	r1, [r4, #76]
 1120              	.L91:
1592:../../Drivers/STM32H7xx_HAL_Driver/Src/stm32h7xx_hal_flash_ex.c **** 
1593:../../Drivers/STM32H7xx_HAL_Driver/Src/stm32h7xx_hal_flash_ex.c ****   }
1594:../../Drivers/STM32H7xx_HAL_Driver/Src/stm32h7xx_hal_flash_ex.c **** 
1595:../../Drivers/STM32H7xx_HAL_Driver/Src/stm32h7xx_hal_flash_ex.c ****   if((BootOption & OB_BOOT_ADD1) == OB_BOOT_ADD1)
 1121              		.loc 1 1595 3 is_stmt 1 view .LVU338
 1122              		.loc 1 1595 5 is_stmt 0 view .LVU339
 1123 0016 10F0020F 		tst	r0, #2
 1124 001a 04D0     		beq	.L90
1596:../../Drivers/STM32H7xx_HAL_Driver/Src/stm32h7xx_hal_flash_ex.c ****   {
1597:../../Drivers/STM32H7xx_HAL_Driver/Src/stm32h7xx_hal_flash_ex.c ****     /* Check the parameters */
1598:../../Drivers/STM32H7xx_HAL_Driver/Src/stm32h7xx_hal_flash_ex.c ****     assert_param(IS_BOOT_ADDRESS(BootAddress1));
 1125              		.loc 1 1598 5 is_stmt 1 view .LVU340
1599:../../Drivers/STM32H7xx_HAL_Driver/Src/stm32h7xx_hal_flash_ex.c **** 
1600:../../Drivers/STM32H7xx_HAL_Driver/Src/stm32h7xx_hal_flash_ex.c ****     /* Configure CM4 BOOT ADD1 */
1601:../../Drivers/STM32H7xx_HAL_Driver/Src/stm32h7xx_hal_flash_ex.c ****     MODIFY_REG(FLASH->BOOT4_PRG, FLASH_BOOT4_BCM4_ADD1, BootAddress1);
 1126              		.loc 1 1601 5 view .LVU341
ARM GAS  /tmp/ccS8U376.s 			page 49


 1127 001c 0349     		ldr	r1, .L94
 1128 001e CB6C     		ldr	r3, [r1, #76]
 1129 0020 9BB2     		uxth	r3, r3
 1130 0022 1A43     		orrs	r2, r2, r3
 1131              	.LVL83:
 1132              		.loc 1 1601 5 is_stmt 0 view .LVU342
 1133 0024 CA64     		str	r2, [r1, #76]
 1134              	.L90:
1602:../../Drivers/STM32H7xx_HAL_Driver/Src/stm32h7xx_hal_flash_ex.c ****   }
1603:../../Drivers/STM32H7xx_HAL_Driver/Src/stm32h7xx_hal_flash_ex.c **** }
 1135              		.loc 1 1603 1 view .LVU343
 1136 0026 30BC     		pop	{r4, r5}
 1137              	.LCFI15:
 1138              		.cfi_restore 5
 1139              		.cfi_restore 4
 1140              		.cfi_def_cfa_offset 0
 1141 0028 7047     		bx	lr
 1142              	.L95:
 1143 002a 00BF     		.align	2
 1144              	.L94:
 1145 002c 00200052 		.word	1375739904
 1146 0030 0000FFFF 		.word	-65536
 1147              		.cfi_endproc
 1148              	.LFE168:
 1150              		.section	.text.FLASH_OB_GetCM4BootAdd,"ax",%progbits
 1151              		.align	1
 1152              		.syntax unified
 1153              		.thumb
 1154              		.thumb_func
 1155              		.fpu fpv5-d16
 1157              	FLASH_OB_GetCM4BootAdd:
 1158              	.LVL84:
 1159              	.LFB169:
1604:../../Drivers/STM32H7xx_HAL_Driver/Src/stm32h7xx_hal_flash_ex.c **** 
1605:../../Drivers/STM32H7xx_HAL_Driver/Src/stm32h7xx_hal_flash_ex.c **** /**
1606:../../Drivers/STM32H7xx_HAL_Driver/Src/stm32h7xx_hal_flash_ex.c ****   * @brief  Get CM4 Boot address
1607:../../Drivers/STM32H7xx_HAL_Driver/Src/stm32h7xx_hal_flash_ex.c ****   * @param  BootAddress0 Specifies the CM4 Boot Address 0.
1608:../../Drivers/STM32H7xx_HAL_Driver/Src/stm32h7xx_hal_flash_ex.c ****   * @param  BootAddress1 Specifies the CM4 Boot Address 1.
1609:../../Drivers/STM32H7xx_HAL_Driver/Src/stm32h7xx_hal_flash_ex.c ****   * @retval HAL Status
1610:../../Drivers/STM32H7xx_HAL_Driver/Src/stm32h7xx_hal_flash_ex.c ****   */
1611:../../Drivers/STM32H7xx_HAL_Driver/Src/stm32h7xx_hal_flash_ex.c **** static void FLASH_OB_GetCM4BootAdd(uint32_t *BootAddress0, uint32_t *BootAddress1)
1612:../../Drivers/STM32H7xx_HAL_Driver/Src/stm32h7xx_hal_flash_ex.c **** {
 1160              		.loc 1 1612 1 is_stmt 1 view -0
 1161              		.cfi_startproc
 1162              		@ args = 0, pretend = 0, frame = 0
 1163              		@ frame_needed = 0, uses_anonymous_args = 0
 1164              		@ link register save eliminated.
1613:../../Drivers/STM32H7xx_HAL_Driver/Src/stm32h7xx_hal_flash_ex.c ****   uint32_t regvalue;
 1165              		.loc 1 1613 3 view .LVU345
1614:../../Drivers/STM32H7xx_HAL_Driver/Src/stm32h7xx_hal_flash_ex.c **** 
1615:../../Drivers/STM32H7xx_HAL_Driver/Src/stm32h7xx_hal_flash_ex.c ****   regvalue = FLASH->BOOT4_CUR;
 1166              		.loc 1 1615 3 view .LVU346
 1167              		.loc 1 1615 12 is_stmt 0 view .LVU347
 1168 0000 034B     		ldr	r3, .L97
 1169 0002 9A6C     		ldr	r2, [r3, #72]
 1170              	.LVL85:
1616:../../Drivers/STM32H7xx_HAL_Driver/Src/stm32h7xx_hal_flash_ex.c **** 
ARM GAS  /tmp/ccS8U376.s 			page 50


1617:../../Drivers/STM32H7xx_HAL_Driver/Src/stm32h7xx_hal_flash_ex.c ****   (*BootAddress0) = (regvalue & FLASH_BOOT4_BCM4_ADD0) << 16;
 1171              		.loc 1 1617 3 is_stmt 1 view .LVU348
 1172              		.loc 1 1617 56 is_stmt 0 view .LVU349
 1173 0004 1304     		lsls	r3, r2, #16
 1174              		.loc 1 1617 19 view .LVU350
 1175 0006 0360     		str	r3, [r0]
1618:../../Drivers/STM32H7xx_HAL_Driver/Src/stm32h7xx_hal_flash_ex.c ****   (*BootAddress1) = (regvalue & FLASH_BOOT4_BCM4_ADD1);
 1176              		.loc 1 1618 3 is_stmt 1 view .LVU351
 1177              		.loc 1 1618 31 is_stmt 0 view .LVU352
 1178 0008 024B     		ldr	r3, .L97+4
 1179 000a 1340     		ands	r3, r3, r2
 1180              		.loc 1 1618 19 view .LVU353
 1181 000c 0B60     		str	r3, [r1]
1619:../../Drivers/STM32H7xx_HAL_Driver/Src/stm32h7xx_hal_flash_ex.c **** }
 1182              		.loc 1 1619 1 view .LVU354
 1183 000e 7047     		bx	lr
 1184              	.L98:
 1185              		.align	2
 1186              	.L97:
 1187 0010 00200052 		.word	1375739904
 1188 0014 0000FFFF 		.word	-65536
 1189              		.cfi_endproc
 1190              	.LFE169:
 1192              		.section	.text.FLASH_OB_SecureAreaConfig,"ax",%progbits
 1193              		.align	1
 1194              		.syntax unified
 1195              		.thumb
 1196              		.thumb_func
 1197              		.fpu fpv5-d16
 1199              	FLASH_OB_SecureAreaConfig:
 1200              	.LVL86:
 1201              	.LFB170:
1620:../../Drivers/STM32H7xx_HAL_Driver/Src/stm32h7xx_hal_flash_ex.c **** #endif /*DUAL_CORE*/
1621:../../Drivers/STM32H7xx_HAL_Driver/Src/stm32h7xx_hal_flash_ex.c **** 
1622:../../Drivers/STM32H7xx_HAL_Driver/Src/stm32h7xx_hal_flash_ex.c **** /**
1623:../../Drivers/STM32H7xx_HAL_Driver/Src/stm32h7xx_hal_flash_ex.c ****   * @brief  Set secure area configuration
1624:../../Drivers/STM32H7xx_HAL_Driver/Src/stm32h7xx_hal_flash_ex.c ****   * @param  SecureAreaConfig specify if the secure area will be deleted or not
1625:../../Drivers/STM32H7xx_HAL_Driver/Src/stm32h7xx_hal_flash_ex.c ****   *         when RDP level decreased from Level 1 to Level 0 or during a mass erase.
1626:../../Drivers/STM32H7xx_HAL_Driver/Src/stm32h7xx_hal_flash_ex.c ****   *
1627:../../Drivers/STM32H7xx_HAL_Driver/Src/stm32h7xx_hal_flash_ex.c ****   * @param  SecureAreaStartAddr Specifies the secure area start address
1628:../../Drivers/STM32H7xx_HAL_Driver/Src/stm32h7xx_hal_flash_ex.c ****   * @param  SecureAreaEndAddr Specifies the secure area end address
1629:../../Drivers/STM32H7xx_HAL_Driver/Src/stm32h7xx_hal_flash_ex.c ****   * @param  Banks the specific bank to apply Security protection
1630:../../Drivers/STM32H7xx_HAL_Driver/Src/stm32h7xx_hal_flash_ex.c ****   *          This parameter can be one of the following values:
1631:../../Drivers/STM32H7xx_HAL_Driver/Src/stm32h7xx_hal_flash_ex.c ****   *            @arg FLASH_BANK_1: Secure area on specified bank1 area
1632:../../Drivers/STM32H7xx_HAL_Driver/Src/stm32h7xx_hal_flash_ex.c ****   *            @arg FLASH_BANK_2: Secure area on specified bank2 area
1633:../../Drivers/STM32H7xx_HAL_Driver/Src/stm32h7xx_hal_flash_ex.c ****   *            @arg FLASH_BANK_BOTH: Secure area on specified bank1 and bank2 area (same config wil
1634:../../Drivers/STM32H7xx_HAL_Driver/Src/stm32h7xx_hal_flash_ex.c ****   * @retval None
1635:../../Drivers/STM32H7xx_HAL_Driver/Src/stm32h7xx_hal_flash_ex.c ****   */
1636:../../Drivers/STM32H7xx_HAL_Driver/Src/stm32h7xx_hal_flash_ex.c **** static void FLASH_OB_SecureAreaConfig(uint32_t SecureAreaConfig, uint32_t SecureAreaStartAddr, uint
1637:../../Drivers/STM32H7xx_HAL_Driver/Src/stm32h7xx_hal_flash_ex.c **** {
 1202              		.loc 1 1637 1 is_stmt 1 view -0
 1203              		.cfi_startproc
 1204              		@ args = 0, pretend = 0, frame = 0
 1205              		@ frame_needed = 0, uses_anonymous_args = 0
 1206              		@ link register save eliminated.
 1207              		.loc 1 1637 1 is_stmt 0 view .LVU356
 1208 0000 30B4     		push	{r4, r5}
ARM GAS  /tmp/ccS8U376.s 			page 51


 1209              	.LCFI16:
 1210              		.cfi_def_cfa_offset 8
 1211              		.cfi_offset 4, -8
 1212              		.cfi_offset 5, -4
1638:../../Drivers/STM32H7xx_HAL_Driver/Src/stm32h7xx_hal_flash_ex.c ****   /* Check the parameters */
1639:../../Drivers/STM32H7xx_HAL_Driver/Src/stm32h7xx_hal_flash_ex.c ****   assert_param(IS_FLASH_BANK(Banks));
 1213              		.loc 1 1639 3 is_stmt 1 view .LVU357
1640:../../Drivers/STM32H7xx_HAL_Driver/Src/stm32h7xx_hal_flash_ex.c ****   assert_param(IS_OB_SECURE_RDP(SecureAreaConfig));
 1214              		.loc 1 1640 3 view .LVU358
1641:../../Drivers/STM32H7xx_HAL_Driver/Src/stm32h7xx_hal_flash_ex.c **** 
1642:../../Drivers/STM32H7xx_HAL_Driver/Src/stm32h7xx_hal_flash_ex.c ****   if((Banks & FLASH_BANK_1) == FLASH_BANK_1)
 1215              		.loc 1 1642 3 view .LVU359
 1216              		.loc 1 1642 5 is_stmt 0 view .LVU360
 1217 0002 13F0010F 		tst	r3, #1
 1218 0006 0CD0     		beq	.L100
1643:../../Drivers/STM32H7xx_HAL_Driver/Src/stm32h7xx_hal_flash_ex.c ****   {
1644:../../Drivers/STM32H7xx_HAL_Driver/Src/stm32h7xx_hal_flash_ex.c ****     /* Check the parameters */
1645:../../Drivers/STM32H7xx_HAL_Driver/Src/stm32h7xx_hal_flash_ex.c ****     assert_param(IS_FLASH_PROGRAM_ADDRESS_BANK1(SecureAreaStartAddr));
 1219              		.loc 1 1645 5 is_stmt 1 view .LVU361
1646:../../Drivers/STM32H7xx_HAL_Driver/Src/stm32h7xx_hal_flash_ex.c ****     assert_param(IS_FLASH_PROGRAM_ADDRESS_BANK1(SecureAreaEndAddr));
 1220              		.loc 1 1646 5 view .LVU362
1647:../../Drivers/STM32H7xx_HAL_Driver/Src/stm32h7xx_hal_flash_ex.c **** 
1648:../../Drivers/STM32H7xx_HAL_Driver/Src/stm32h7xx_hal_flash_ex.c ****     /* Configure the secure area */
1649:../../Drivers/STM32H7xx_HAL_Driver/Src/stm32h7xx_hal_flash_ex.c ****     FLASH->SCAR_PRG1 = ((SecureAreaStartAddr - FLASH_BANK1_BASE) >> 8)                             
 1221              		.loc 1 1649 5 view .LVU363
 1222              		.loc 1 1649 46 is_stmt 0 view .LVU364
 1223 0008 01F17844 		add	r4, r1, #-134217728
1650:../../Drivers/STM32H7xx_HAL_Driver/Src/stm32h7xx_hal_flash_ex.c ****                        (((SecureAreaEndAddr - FLASH_BANK1_BASE) >> 8) << FLASH_SCAR_SEC_AREA_END_Po
 1224              		.loc 1 1650 45 view .LVU365
 1225 000c 02F17845 		add	r5, r2, #-134217728
 1226              		.loc 1 1650 65 view .LVU366
 1227 0010 2D0A     		lsrs	r5, r5, #8
 1228              		.loc 1 1650 71 view .LVU367
 1229 0012 2D04     		lsls	r5, r5, #16
1649:../../Drivers/STM32H7xx_HAL_Driver/Src/stm32h7xx_hal_flash_ex.c ****                        (((SecureAreaEndAddr - FLASH_BANK1_BASE) >> 8) << FLASH_SCAR_SEC_AREA_END_Po
 1230              		.loc 1 1649 103 view .LVU368
 1231 0014 45EA1424 		orr	r4, r5, r4, lsr #8
1651:../../Drivers/STM32H7xx_HAL_Driver/Src/stm32h7xx_hal_flash_ex.c ****                        (SecureAreaConfig & FLASH_SCAR_DMES);
 1232              		.loc 1 1651 42 view .LVU369
 1233 0018 00F00045 		and	r5, r0, #-2147483648
1650:../../Drivers/STM32H7xx_HAL_Driver/Src/stm32h7xx_hal_flash_ex.c ****                        (((SecureAreaEndAddr - FLASH_BANK1_BASE) >> 8) << FLASH_SCAR_SEC_AREA_END_Po
 1234              		.loc 1 1650 103 view .LVU370
 1235 001c 2C43     		orrs	r4, r4, r5
1649:../../Drivers/STM32H7xx_HAL_Driver/Src/stm32h7xx_hal_flash_ex.c ****                        (((SecureAreaEndAddr - FLASH_BANK1_BASE) >> 8) << FLASH_SCAR_SEC_AREA_END_Po
 1236              		.loc 1 1649 22 view .LVU371
 1237 001e 0A4D     		ldr	r5, .L103
 1238 0020 6C63     		str	r4, [r5, #52]
 1239              	.L100:
1652:../../Drivers/STM32H7xx_HAL_Driver/Src/stm32h7xx_hal_flash_ex.c ****   }
1653:../../Drivers/STM32H7xx_HAL_Driver/Src/stm32h7xx_hal_flash_ex.c **** 
1654:../../Drivers/STM32H7xx_HAL_Driver/Src/stm32h7xx_hal_flash_ex.c **** #if defined (DUAL_BANK)
1655:../../Drivers/STM32H7xx_HAL_Driver/Src/stm32h7xx_hal_flash_ex.c ****   if((Banks & FLASH_BANK_2) == FLASH_BANK_2)
 1240              		.loc 1 1655 3 is_stmt 1 view .LVU372
 1241              		.loc 1 1655 5 is_stmt 0 view .LVU373
 1242 0022 13F0020F 		tst	r3, #2
 1243 0026 0DD0     		beq	.L99
1656:../../Drivers/STM32H7xx_HAL_Driver/Src/stm32h7xx_hal_flash_ex.c ****   {
ARM GAS  /tmp/ccS8U376.s 			page 52


1657:../../Drivers/STM32H7xx_HAL_Driver/Src/stm32h7xx_hal_flash_ex.c ****     /* Check the parameters */
1658:../../Drivers/STM32H7xx_HAL_Driver/Src/stm32h7xx_hal_flash_ex.c ****     assert_param(IS_FLASH_PROGRAM_ADDRESS_BANK2(SecureAreaStartAddr));
 1244              		.loc 1 1658 5 is_stmt 1 view .LVU374
1659:../../Drivers/STM32H7xx_HAL_Driver/Src/stm32h7xx_hal_flash_ex.c ****     assert_param(IS_FLASH_PROGRAM_ADDRESS_BANK2(SecureAreaEndAddr));
 1245              		.loc 1 1659 5 view .LVU375
1660:../../Drivers/STM32H7xx_HAL_Driver/Src/stm32h7xx_hal_flash_ex.c **** 
1661:../../Drivers/STM32H7xx_HAL_Driver/Src/stm32h7xx_hal_flash_ex.c ****     /* Configure the secure area */
1662:../../Drivers/STM32H7xx_HAL_Driver/Src/stm32h7xx_hal_flash_ex.c ****     FLASH->SCAR_PRG2 = ((SecureAreaStartAddr - FLASH_BANK2_BASE) >> 8)                             
 1246              		.loc 1 1662 5 view .LVU376
 1247              		.loc 1 1662 46 is_stmt 0 view .LVU377
 1248 0028 A1F10161 		sub	r1, r1, #135266304
 1249              	.LVL87:
1663:../../Drivers/STM32H7xx_HAL_Driver/Src/stm32h7xx_hal_flash_ex.c ****                        (((SecureAreaEndAddr - FLASH_BANK2_BASE) >> 8) << FLASH_SCAR_SEC_AREA_END_Po
 1250              		.loc 1 1663 45 view .LVU378
 1251 002c A2F10162 		sub	r2, r2, #135266304
 1252              	.LVL88:
 1253              		.loc 1 1663 65 view .LVU379
 1254 0030 120A     		lsrs	r2, r2, #8
 1255              	.LVL89:
 1256              		.loc 1 1663 71 view .LVU380
 1257 0032 1204     		lsls	r2, r2, #16
1662:../../Drivers/STM32H7xx_HAL_Driver/Src/stm32h7xx_hal_flash_ex.c ****                        (((SecureAreaEndAddr - FLASH_BANK2_BASE) >> 8) << FLASH_SCAR_SEC_AREA_END_Po
 1258              		.loc 1 1662 103 view .LVU381
 1259 0034 42EA1122 		orr	r2, r2, r1, lsr #8
1664:../../Drivers/STM32H7xx_HAL_Driver/Src/stm32h7xx_hal_flash_ex.c ****                        (SecureAreaConfig & FLASH_SCAR_DMES);
 1260              		.loc 1 1664 42 view .LVU382
 1261 0038 00F00040 		and	r0, r0, #-2147483648
 1262              	.LVL90:
1663:../../Drivers/STM32H7xx_HAL_Driver/Src/stm32h7xx_hal_flash_ex.c ****                        (((SecureAreaEndAddr - FLASH_BANK2_BASE) >> 8) << FLASH_SCAR_SEC_AREA_END_Po
 1263              		.loc 1 1663 103 view .LVU383
 1264 003c 1043     		orrs	r0, r0, r2
1662:../../Drivers/STM32H7xx_HAL_Driver/Src/stm32h7xx_hal_flash_ex.c ****                        (((SecureAreaEndAddr - FLASH_BANK2_BASE) >> 8) << FLASH_SCAR_SEC_AREA_END_Po
 1265              		.loc 1 1662 22 view .LVU384
 1266 003e 024B     		ldr	r3, .L103
 1267              	.LVL91:
1662:../../Drivers/STM32H7xx_HAL_Driver/Src/stm32h7xx_hal_flash_ex.c ****                        (((SecureAreaEndAddr - FLASH_BANK2_BASE) >> 8) << FLASH_SCAR_SEC_AREA_END_Po
 1268              		.loc 1 1662 22 view .LVU385
 1269 0040 C3F83401 		str	r0, [r3, #308]
 1270              	.LVL92:
 1271              	.L99:
1665:../../Drivers/STM32H7xx_HAL_Driver/Src/stm32h7xx_hal_flash_ex.c ****   }
1666:../../Drivers/STM32H7xx_HAL_Driver/Src/stm32h7xx_hal_flash_ex.c **** #endif /* DUAL_BANK */
1667:../../Drivers/STM32H7xx_HAL_Driver/Src/stm32h7xx_hal_flash_ex.c **** }
 1272              		.loc 1 1667 1 view .LVU386
 1273 0044 30BC     		pop	{r4, r5}
 1274              	.LCFI17:
 1275              		.cfi_restore 5
 1276              		.cfi_restore 4
 1277              		.cfi_def_cfa_offset 0
 1278 0046 7047     		bx	lr
 1279              	.L104:
 1280              		.align	2
 1281              	.L103:
 1282 0048 00200052 		.word	1375739904
 1283              		.cfi_endproc
 1284              	.LFE170:
 1286              		.section	.text.FLASH_OB_GetSecureArea,"ax",%progbits
ARM GAS  /tmp/ccS8U376.s 			page 53


 1287              		.align	1
 1288              		.syntax unified
 1289              		.thumb
 1290              		.thumb_func
 1291              		.fpu fpv5-d16
 1293              	FLASH_OB_GetSecureArea:
 1294              	.LVL93:
 1295              	.LFB171:
1668:../../Drivers/STM32H7xx_HAL_Driver/Src/stm32h7xx_hal_flash_ex.c **** 
1669:../../Drivers/STM32H7xx_HAL_Driver/Src/stm32h7xx_hal_flash_ex.c **** /**
1670:../../Drivers/STM32H7xx_HAL_Driver/Src/stm32h7xx_hal_flash_ex.c ****   * @brief  Get secure area configuration
1671:../../Drivers/STM32H7xx_HAL_Driver/Src/stm32h7xx_hal_flash_ex.c ****   * @param  SecureAreaConfig indicates if the secure area will be deleted or not
1672:../../Drivers/STM32H7xx_HAL_Driver/Src/stm32h7xx_hal_flash_ex.c ****   *         when RDP level decreased from Level 1 to Level 0 or during a mass erase.
1673:../../Drivers/STM32H7xx_HAL_Driver/Src/stm32h7xx_hal_flash_ex.c ****   * @param  SecureAreaStartAddr gives the secure area start address
1674:../../Drivers/STM32H7xx_HAL_Driver/Src/stm32h7xx_hal_flash_ex.c ****   * @param  SecureAreaEndAddr gives the secure area end address
1675:../../Drivers/STM32H7xx_HAL_Driver/Src/stm32h7xx_hal_flash_ex.c ****   * @param  Bank Specifies the Bank
1676:../../Drivers/STM32H7xx_HAL_Driver/Src/stm32h7xx_hal_flash_ex.c ****   * @retval None
1677:../../Drivers/STM32H7xx_HAL_Driver/Src/stm32h7xx_hal_flash_ex.c ****   */
1678:../../Drivers/STM32H7xx_HAL_Driver/Src/stm32h7xx_hal_flash_ex.c **** static void FLASH_OB_GetSecureArea(uint32_t *SecureAreaConfig, uint32_t *SecureAreaStartAddr, uint3
1679:../../Drivers/STM32H7xx_HAL_Driver/Src/stm32h7xx_hal_flash_ex.c **** {
 1296              		.loc 1 1679 1 is_stmt 1 view -0
 1297              		.cfi_startproc
 1298              		@ args = 0, pretend = 0, frame = 0
 1299              		@ frame_needed = 0, uses_anonymous_args = 0
 1300              		@ link register save eliminated.
 1301              		.loc 1 1679 1 is_stmt 0 view .LVU388
 1302 0000 30B4     		push	{r4, r5}
 1303              	.LCFI18:
 1304              		.cfi_def_cfa_offset 8
 1305              		.cfi_offset 4, -8
 1306              		.cfi_offset 5, -4
1680:../../Drivers/STM32H7xx_HAL_Driver/Src/stm32h7xx_hal_flash_ex.c ****   uint32_t regvalue = 0;
 1307              		.loc 1 1680 3 is_stmt 1 view .LVU389
 1308              	.LVL94:
1681:../../Drivers/STM32H7xx_HAL_Driver/Src/stm32h7xx_hal_flash_ex.c ****   uint32_t bankBase = 0;
 1309              		.loc 1 1681 3 view .LVU390
1682:../../Drivers/STM32H7xx_HAL_Driver/Src/stm32h7xx_hal_flash_ex.c **** 
1683:../../Drivers/STM32H7xx_HAL_Driver/Src/stm32h7xx_hal_flash_ex.c ****   /* Check Bank parameter value */
1684:../../Drivers/STM32H7xx_HAL_Driver/Src/stm32h7xx_hal_flash_ex.c ****   if(Bank == FLASH_BANK_1)
 1310              		.loc 1 1684 3 view .LVU391
 1311              		.loc 1 1684 5 is_stmt 0 view .LVU392
 1312 0002 012B     		cmp	r3, #1
 1313 0004 12D0     		beq	.L110
1681:../../Drivers/STM32H7xx_HAL_Driver/Src/stm32h7xx_hal_flash_ex.c ****   uint32_t bankBase = 0;
 1314              		.loc 1 1681 12 view .LVU393
 1315 0006 0025     		movs	r5, #0
1680:../../Drivers/STM32H7xx_HAL_Driver/Src/stm32h7xx_hal_flash_ex.c ****   uint32_t bankBase = 0;
 1316              		.loc 1 1680 12 view .LVU394
 1317 0008 2C46     		mov	r4, r5
 1318              	.LVL95:
 1319              	.L106:
1685:../../Drivers/STM32H7xx_HAL_Driver/Src/stm32h7xx_hal_flash_ex.c ****   {
1686:../../Drivers/STM32H7xx_HAL_Driver/Src/stm32h7xx_hal_flash_ex.c ****     regvalue = FLASH->SCAR_CUR1;
1687:../../Drivers/STM32H7xx_HAL_Driver/Src/stm32h7xx_hal_flash_ex.c ****     bankBase = FLASH_BANK1_BASE;
1688:../../Drivers/STM32H7xx_HAL_Driver/Src/stm32h7xx_hal_flash_ex.c ****   }
1689:../../Drivers/STM32H7xx_HAL_Driver/Src/stm32h7xx_hal_flash_ex.c **** 
1690:../../Drivers/STM32H7xx_HAL_Driver/Src/stm32h7xx_hal_flash_ex.c **** #if defined (DUAL_BANK)
ARM GAS  /tmp/ccS8U376.s 			page 54


1691:../../Drivers/STM32H7xx_HAL_Driver/Src/stm32h7xx_hal_flash_ex.c ****   if(Bank == FLASH_BANK_2)
 1320              		.loc 1 1691 3 is_stmt 1 view .LVU395
 1321              		.loc 1 1691 5 is_stmt 0 view .LVU396
 1322 000a 022B     		cmp	r3, #2
 1323 000c 13D0     		beq	.L111
 1324              	.LVL96:
 1325              	.L107:
1692:../../Drivers/STM32H7xx_HAL_Driver/Src/stm32h7xx_hal_flash_ex.c ****   {
1693:../../Drivers/STM32H7xx_HAL_Driver/Src/stm32h7xx_hal_flash_ex.c ****     regvalue = FLASH->SCAR_CUR2;
1694:../../Drivers/STM32H7xx_HAL_Driver/Src/stm32h7xx_hal_flash_ex.c ****     bankBase = FLASH_BANK2_BASE;
1695:../../Drivers/STM32H7xx_HAL_Driver/Src/stm32h7xx_hal_flash_ex.c ****   }
1696:../../Drivers/STM32H7xx_HAL_Driver/Src/stm32h7xx_hal_flash_ex.c **** #endif /* DUAL_BANK */
1697:../../Drivers/STM32H7xx_HAL_Driver/Src/stm32h7xx_hal_flash_ex.c **** 
1698:../../Drivers/STM32H7xx_HAL_Driver/Src/stm32h7xx_hal_flash_ex.c ****   /* Get the secure area settings */
1699:../../Drivers/STM32H7xx_HAL_Driver/Src/stm32h7xx_hal_flash_ex.c ****   (*SecureAreaConfig) = (regvalue & FLASH_SCAR_DMES);
 1326              		.loc 1 1699 3 is_stmt 1 view .LVU397
 1327              		.loc 1 1699 35 is_stmt 0 view .LVU398
 1328 000e 04F00043 		and	r3, r4, #-2147483648
 1329              		.loc 1 1699 23 view .LVU399
 1330 0012 0360     		str	r3, [r0]
1700:../../Drivers/STM32H7xx_HAL_Driver/Src/stm32h7xx_hal_flash_ex.c ****   (*SecureAreaStartAddr) = ((regvalue & FLASH_SCAR_SEC_AREA_START) << 8) + bankBase;
 1331              		.loc 1 1700 3 is_stmt 1 view .LVU400
 1332              		.loc 1 1700 68 is_stmt 0 view .LVU401
 1333 0014 0B4B     		ldr	r3, .L112
 1334 0016 03EA0423 		and	r3, r3, r4, lsl #8
 1335              		.loc 1 1700 74 view .LVU402
 1336 001a 2B44     		add	r3, r3, r5
 1337              		.loc 1 1700 26 view .LVU403
 1338 001c 0B60     		str	r3, [r1]
1701:../../Drivers/STM32H7xx_HAL_Driver/Src/stm32h7xx_hal_flash_ex.c ****   (*SecureAreaEndAddr) = (regvalue & FLASH_SCAR_SEC_AREA_END) >> FLASH_SCAR_SEC_AREA_END_Pos;
 1339              		.loc 1 1701 3 is_stmt 1 view .LVU404
 1340              		.loc 1 1701 63 is_stmt 0 view .LVU405
 1341 001e C4F30B44 		ubfx	r4, r4, #16, #12
 1342              	.LVL97:
1702:../../Drivers/STM32H7xx_HAL_Driver/Src/stm32h7xx_hal_flash_ex.c ****   (*SecureAreaEndAddr) = ((*SecureAreaEndAddr) << 8) + bankBase;
 1343              		.loc 1 1702 3 is_stmt 1 view .LVU406
 1344              		.loc 1 1702 54 is_stmt 0 view .LVU407
 1345 0022 05EB0424 		add	r4, r5, r4, lsl #8
 1346              		.loc 1 1702 24 view .LVU408
 1347 0026 1460     		str	r4, [r2]
1703:../../Drivers/STM32H7xx_HAL_Driver/Src/stm32h7xx_hal_flash_ex.c **** }
 1348              		.loc 1 1703 1 view .LVU409
 1349 0028 30BC     		pop	{r4, r5}
 1350              	.LCFI19:
 1351              		.cfi_remember_state
 1352              		.cfi_restore 5
 1353              		.cfi_restore 4
 1354              		.cfi_def_cfa_offset 0
 1355              	.LVL98:
 1356              		.loc 1 1703 1 view .LVU410
 1357 002a 7047     		bx	lr
 1358              	.LVL99:
 1359              	.L110:
 1360              	.LCFI20:
 1361              		.cfi_restore_state
1686:../../Drivers/STM32H7xx_HAL_Driver/Src/stm32h7xx_hal_flash_ex.c ****     bankBase = FLASH_BANK1_BASE;
 1362              		.loc 1 1686 5 is_stmt 1 view .LVU411
ARM GAS  /tmp/ccS8U376.s 			page 55


1686:../../Drivers/STM32H7xx_HAL_Driver/Src/stm32h7xx_hal_flash_ex.c ****     bankBase = FLASH_BANK1_BASE;
 1363              		.loc 1 1686 14 is_stmt 0 view .LVU412
 1364 002c 064C     		ldr	r4, .L112+4
 1365 002e 246B     		ldr	r4, [r4, #48]
 1366              	.LVL100:
1687:../../Drivers/STM32H7xx_HAL_Driver/Src/stm32h7xx_hal_flash_ex.c ****   }
 1367              		.loc 1 1687 5 is_stmt 1 view .LVU413
1687:../../Drivers/STM32H7xx_HAL_Driver/Src/stm32h7xx_hal_flash_ex.c ****   }
 1368              		.loc 1 1687 14 is_stmt 0 view .LVU414
 1369 0030 4FF00065 		mov	r5, #134217728
 1370 0034 E9E7     		b	.L106
 1371              	.LVL101:
 1372              	.L111:
1693:../../Drivers/STM32H7xx_HAL_Driver/Src/stm32h7xx_hal_flash_ex.c ****     bankBase = FLASH_BANK2_BASE;
 1373              		.loc 1 1693 5 is_stmt 1 view .LVU415
1693:../../Drivers/STM32H7xx_HAL_Driver/Src/stm32h7xx_hal_flash_ex.c ****     bankBase = FLASH_BANK2_BASE;
 1374              		.loc 1 1693 14 is_stmt 0 view .LVU416
 1375 0036 044B     		ldr	r3, .L112+4
 1376              	.LVL102:
1693:../../Drivers/STM32H7xx_HAL_Driver/Src/stm32h7xx_hal_flash_ex.c ****     bankBase = FLASH_BANK2_BASE;
 1377              		.loc 1 1693 14 view .LVU417
 1378 0038 D3F83041 		ldr	r4, [r3, #304]
 1379              	.LVL103:
1694:../../Drivers/STM32H7xx_HAL_Driver/Src/stm32h7xx_hal_flash_ex.c ****   }
 1380              		.loc 1 1694 5 is_stmt 1 view .LVU418
1694:../../Drivers/STM32H7xx_HAL_Driver/Src/stm32h7xx_hal_flash_ex.c ****   }
 1381              		.loc 1 1694 14 is_stmt 0 view .LVU419
 1382 003c 4FF00165 		mov	r5, #135266304
 1383 0040 E5E7     		b	.L107
 1384              	.L113:
 1385 0042 00BF     		.align	2
 1386              	.L112:
 1387 0044 00FF0F00 		.word	1048320
 1388 0048 00200052 		.word	1375739904
 1389              		.cfi_endproc
 1390              	.LFE171:
 1392              		.section	.text.FLASH_CRC_AddSector,"ax",%progbits
 1393              		.align	1
 1394              		.syntax unified
 1395              		.thumb
 1396              		.thumb_func
 1397              		.fpu fpv5-d16
 1399              	FLASH_CRC_AddSector:
 1400              	.LVL104:
 1401              	.LFB172:
1704:../../Drivers/STM32H7xx_HAL_Driver/Src/stm32h7xx_hal_flash_ex.c **** 
1705:../../Drivers/STM32H7xx_HAL_Driver/Src/stm32h7xx_hal_flash_ex.c **** /**
1706:../../Drivers/STM32H7xx_HAL_Driver/Src/stm32h7xx_hal_flash_ex.c ****   * @brief  Add a CRC sector to the list of sectors on which the CRC will be calculated
1707:../../Drivers/STM32H7xx_HAL_Driver/Src/stm32h7xx_hal_flash_ex.c ****   * @param  Sector Specifies the CRC sector number
1708:../../Drivers/STM32H7xx_HAL_Driver/Src/stm32h7xx_hal_flash_ex.c ****   * @param  Bank Specifies the Bank
1709:../../Drivers/STM32H7xx_HAL_Driver/Src/stm32h7xx_hal_flash_ex.c ****   * @retval None
1710:../../Drivers/STM32H7xx_HAL_Driver/Src/stm32h7xx_hal_flash_ex.c ****   */
1711:../../Drivers/STM32H7xx_HAL_Driver/Src/stm32h7xx_hal_flash_ex.c **** static void FLASH_CRC_AddSector(uint32_t Sector, uint32_t Bank)
1712:../../Drivers/STM32H7xx_HAL_Driver/Src/stm32h7xx_hal_flash_ex.c **** {
 1402              		.loc 1 1712 1 is_stmt 1 view -0
 1403              		.cfi_startproc
 1404              		@ args = 0, pretend = 0, frame = 0
ARM GAS  /tmp/ccS8U376.s 			page 56


 1405              		@ frame_needed = 0, uses_anonymous_args = 0
 1406              		@ link register save eliminated.
1713:../../Drivers/STM32H7xx_HAL_Driver/Src/stm32h7xx_hal_flash_ex.c ****   /* Check the parameters */
1714:../../Drivers/STM32H7xx_HAL_Driver/Src/stm32h7xx_hal_flash_ex.c ****   assert_param(IS_FLASH_SECTOR(Sector));
 1407              		.loc 1 1714 3 view .LVU421
1715:../../Drivers/STM32H7xx_HAL_Driver/Src/stm32h7xx_hal_flash_ex.c **** 
1716:../../Drivers/STM32H7xx_HAL_Driver/Src/stm32h7xx_hal_flash_ex.c ****   if (Bank == FLASH_BANK_1)
 1408              		.loc 1 1716 3 view .LVU422
 1409              		.loc 1 1716 6 is_stmt 0 view .LVU423
 1410 0000 0129     		cmp	r1, #1
 1411 0002 0ED0     		beq	.L117
1717:../../Drivers/STM32H7xx_HAL_Driver/Src/stm32h7xx_hal_flash_ex.c ****   {
1718:../../Drivers/STM32H7xx_HAL_Driver/Src/stm32h7xx_hal_flash_ex.c ****     /* Clear CRC sector */
1719:../../Drivers/STM32H7xx_HAL_Driver/Src/stm32h7xx_hal_flash_ex.c ****     FLASH->CRCCR1 &= (~FLASH_CRCCR_CRC_SECT);
1720:../../Drivers/STM32H7xx_HAL_Driver/Src/stm32h7xx_hal_flash_ex.c **** 
1721:../../Drivers/STM32H7xx_HAL_Driver/Src/stm32h7xx_hal_flash_ex.c ****     /* Select CRC Sector and activate ADD_SECT bit */
1722:../../Drivers/STM32H7xx_HAL_Driver/Src/stm32h7xx_hal_flash_ex.c ****     FLASH->CRCCR1 |= Sector | FLASH_CRCCR_ADD_SECT;
1723:../../Drivers/STM32H7xx_HAL_Driver/Src/stm32h7xx_hal_flash_ex.c ****   }
1724:../../Drivers/STM32H7xx_HAL_Driver/Src/stm32h7xx_hal_flash_ex.c **** #if defined (DUAL_BANK)
1725:../../Drivers/STM32H7xx_HAL_Driver/Src/stm32h7xx_hal_flash_ex.c ****   else
1726:../../Drivers/STM32H7xx_HAL_Driver/Src/stm32h7xx_hal_flash_ex.c ****   {
1727:../../Drivers/STM32H7xx_HAL_Driver/Src/stm32h7xx_hal_flash_ex.c ****     /* Clear CRC sector */
1728:../../Drivers/STM32H7xx_HAL_Driver/Src/stm32h7xx_hal_flash_ex.c ****     FLASH->CRCCR2 &= (~FLASH_CRCCR_CRC_SECT);
 1412              		.loc 1 1728 5 is_stmt 1 view .LVU424
 1413              		.loc 1 1728 19 is_stmt 0 view .LVU425
 1414 0004 0C4A     		ldr	r2, .L118
 1415 0006 D2F85031 		ldr	r3, [r2, #336]
 1416 000a 23F00703 		bic	r3, r3, #7
 1417 000e C2F85031 		str	r3, [r2, #336]
1729:../../Drivers/STM32H7xx_HAL_Driver/Src/stm32h7xx_hal_flash_ex.c **** 
1730:../../Drivers/STM32H7xx_HAL_Driver/Src/stm32h7xx_hal_flash_ex.c ****     /* Select CRC Sector and activate ADD_SECT bit */
1731:../../Drivers/STM32H7xx_HAL_Driver/Src/stm32h7xx_hal_flash_ex.c ****     FLASH->CRCCR2 |= Sector | FLASH_CRCCR_ADD_SECT;
 1418              		.loc 1 1731 5 is_stmt 1 view .LVU426
 1419              		.loc 1 1731 19 is_stmt 0 view .LVU427
 1420 0012 D2F85031 		ldr	r3, [r2, #336]
 1421 0016 1843     		orrs	r0, r0, r3
 1422              	.LVL105:
 1423              		.loc 1 1731 19 view .LVU428
 1424 0018 40F40070 		orr	r0, r0, #512
 1425 001c C2F85001 		str	r0, [r2, #336]
1732:../../Drivers/STM32H7xx_HAL_Driver/Src/stm32h7xx_hal_flash_ex.c ****   }
1733:../../Drivers/STM32H7xx_HAL_Driver/Src/stm32h7xx_hal_flash_ex.c **** #endif /* DUAL_BANK */
1734:../../Drivers/STM32H7xx_HAL_Driver/Src/stm32h7xx_hal_flash_ex.c **** }
 1426              		.loc 1 1734 1 view .LVU429
 1427 0020 7047     		bx	lr
 1428              	.LVL106:
 1429              	.L117:
1719:../../Drivers/STM32H7xx_HAL_Driver/Src/stm32h7xx_hal_flash_ex.c **** 
 1430              		.loc 1 1719 5 is_stmt 1 view .LVU430
1719:../../Drivers/STM32H7xx_HAL_Driver/Src/stm32h7xx_hal_flash_ex.c **** 
 1431              		.loc 1 1719 19 is_stmt 0 view .LVU431
 1432 0022 054A     		ldr	r2, .L118
 1433 0024 136D     		ldr	r3, [r2, #80]
 1434 0026 23F00703 		bic	r3, r3, #7
 1435 002a 1365     		str	r3, [r2, #80]
1722:../../Drivers/STM32H7xx_HAL_Driver/Src/stm32h7xx_hal_flash_ex.c ****   }
 1436              		.loc 1 1722 5 is_stmt 1 view .LVU432
ARM GAS  /tmp/ccS8U376.s 			page 57


1722:../../Drivers/STM32H7xx_HAL_Driver/Src/stm32h7xx_hal_flash_ex.c ****   }
 1437              		.loc 1 1722 19 is_stmt 0 view .LVU433
 1438 002c 136D     		ldr	r3, [r2, #80]
 1439 002e 1843     		orrs	r0, r0, r3
 1440              	.LVL107:
1722:../../Drivers/STM32H7xx_HAL_Driver/Src/stm32h7xx_hal_flash_ex.c ****   }
 1441              		.loc 1 1722 19 view .LVU434
 1442 0030 40F40070 		orr	r0, r0, #512
 1443 0034 1065     		str	r0, [r2, #80]
 1444 0036 7047     		bx	lr
 1445              	.L119:
 1446              		.align	2
 1447              	.L118:
 1448 0038 00200052 		.word	1375739904
 1449              		.cfi_endproc
 1450              	.LFE172:
 1452              		.section	.text.FLASH_CRC_SelectAddress,"ax",%progbits
 1453              		.align	1
 1454              		.syntax unified
 1455              		.thumb
 1456              		.thumb_func
 1457              		.fpu fpv5-d16
 1459              	FLASH_CRC_SelectAddress:
 1460              	.LVL108:
 1461              	.LFB173:
1735:../../Drivers/STM32H7xx_HAL_Driver/Src/stm32h7xx_hal_flash_ex.c **** 
1736:../../Drivers/STM32H7xx_HAL_Driver/Src/stm32h7xx_hal_flash_ex.c **** /**
1737:../../Drivers/STM32H7xx_HAL_Driver/Src/stm32h7xx_hal_flash_ex.c ****   * @brief  Select CRC start and end memory addresses on which the CRC will be calculated
1738:../../Drivers/STM32H7xx_HAL_Driver/Src/stm32h7xx_hal_flash_ex.c ****   * @param  CRCStartAddr Specifies the CRC start address
1739:../../Drivers/STM32H7xx_HAL_Driver/Src/stm32h7xx_hal_flash_ex.c ****   * @param  CRCEndAddr Specifies the CRC end address
1740:../../Drivers/STM32H7xx_HAL_Driver/Src/stm32h7xx_hal_flash_ex.c ****   * @param  Bank Specifies the Bank
1741:../../Drivers/STM32H7xx_HAL_Driver/Src/stm32h7xx_hal_flash_ex.c ****   * @retval None
1742:../../Drivers/STM32H7xx_HAL_Driver/Src/stm32h7xx_hal_flash_ex.c ****   */
1743:../../Drivers/STM32H7xx_HAL_Driver/Src/stm32h7xx_hal_flash_ex.c **** static void FLASH_CRC_SelectAddress(uint32_t CRCStartAddr, uint32_t CRCEndAddr, uint32_t Bank)
1744:../../Drivers/STM32H7xx_HAL_Driver/Src/stm32h7xx_hal_flash_ex.c **** {
 1462              		.loc 1 1744 1 is_stmt 1 view -0
 1463              		.cfi_startproc
 1464              		@ args = 0, pretend = 0, frame = 0
 1465              		@ frame_needed = 0, uses_anonymous_args = 0
 1466              		@ link register save eliminated.
1745:../../Drivers/STM32H7xx_HAL_Driver/Src/stm32h7xx_hal_flash_ex.c ****   if (Bank == FLASH_BANK_1)
 1467              		.loc 1 1745 3 view .LVU436
 1468              		.loc 1 1745 6 is_stmt 0 view .LVU437
 1469 0000 012A     		cmp	r2, #1
 1470 0002 05D0     		beq	.L123
1746:../../Drivers/STM32H7xx_HAL_Driver/Src/stm32h7xx_hal_flash_ex.c ****   {
1747:../../Drivers/STM32H7xx_HAL_Driver/Src/stm32h7xx_hal_flash_ex.c ****     assert_param(IS_FLASH_PROGRAM_ADDRESS_BANK1(CRCStartAddr));
1748:../../Drivers/STM32H7xx_HAL_Driver/Src/stm32h7xx_hal_flash_ex.c ****     assert_param(IS_FLASH_PROGRAM_ADDRESS_BANK1(CRCEndAddr));
1749:../../Drivers/STM32H7xx_HAL_Driver/Src/stm32h7xx_hal_flash_ex.c **** 
1750:../../Drivers/STM32H7xx_HAL_Driver/Src/stm32h7xx_hal_flash_ex.c ****     /* Write CRC Start and End addresses */
1751:../../Drivers/STM32H7xx_HAL_Driver/Src/stm32h7xx_hal_flash_ex.c ****     FLASH->CRCSADD1 = CRCStartAddr;
1752:../../Drivers/STM32H7xx_HAL_Driver/Src/stm32h7xx_hal_flash_ex.c ****     FLASH->CRCEADD1 = CRCEndAddr;
1753:../../Drivers/STM32H7xx_HAL_Driver/Src/stm32h7xx_hal_flash_ex.c ****   }
1754:../../Drivers/STM32H7xx_HAL_Driver/Src/stm32h7xx_hal_flash_ex.c **** #if defined (DUAL_BANK)
1755:../../Drivers/STM32H7xx_HAL_Driver/Src/stm32h7xx_hal_flash_ex.c ****   else
1756:../../Drivers/STM32H7xx_HAL_Driver/Src/stm32h7xx_hal_flash_ex.c ****   {
1757:../../Drivers/STM32H7xx_HAL_Driver/Src/stm32h7xx_hal_flash_ex.c ****     assert_param(IS_FLASH_PROGRAM_ADDRESS_BANK2(CRCStartAddr));
ARM GAS  /tmp/ccS8U376.s 			page 58


 1471              		.loc 1 1757 5 is_stmt 1 view .LVU438
1758:../../Drivers/STM32H7xx_HAL_Driver/Src/stm32h7xx_hal_flash_ex.c ****     assert_param(IS_FLASH_PROGRAM_ADDRESS_BANK2(CRCEndAddr));
 1472              		.loc 1 1758 5 view .LVU439
1759:../../Drivers/STM32H7xx_HAL_Driver/Src/stm32h7xx_hal_flash_ex.c **** 
1760:../../Drivers/STM32H7xx_HAL_Driver/Src/stm32h7xx_hal_flash_ex.c ****     /* Write CRC Start and End addresses */
1761:../../Drivers/STM32H7xx_HAL_Driver/Src/stm32h7xx_hal_flash_ex.c ****     FLASH->CRCSADD2 = CRCStartAddr;
 1473              		.loc 1 1761 5 view .LVU440
 1474              		.loc 1 1761 21 is_stmt 0 view .LVU441
 1475 0004 044B     		ldr	r3, .L124
 1476 0006 C3F85401 		str	r0, [r3, #340]
1762:../../Drivers/STM32H7xx_HAL_Driver/Src/stm32h7xx_hal_flash_ex.c ****     FLASH->CRCEADD2 = CRCEndAddr;
 1477              		.loc 1 1762 5 is_stmt 1 view .LVU442
 1478              		.loc 1 1762 21 is_stmt 0 view .LVU443
 1479 000a C3F85811 		str	r1, [r3, #344]
1763:../../Drivers/STM32H7xx_HAL_Driver/Src/stm32h7xx_hal_flash_ex.c ****   }
1764:../../Drivers/STM32H7xx_HAL_Driver/Src/stm32h7xx_hal_flash_ex.c **** #endif /* DUAL_BANK */
1765:../../Drivers/STM32H7xx_HAL_Driver/Src/stm32h7xx_hal_flash_ex.c **** }
 1480              		.loc 1 1765 1 view .LVU444
 1481 000e 7047     		bx	lr
 1482              	.L123:
1747:../../Drivers/STM32H7xx_HAL_Driver/Src/stm32h7xx_hal_flash_ex.c ****     assert_param(IS_FLASH_PROGRAM_ADDRESS_BANK1(CRCEndAddr));
 1483              		.loc 1 1747 5 is_stmt 1 view .LVU445
1748:../../Drivers/STM32H7xx_HAL_Driver/Src/stm32h7xx_hal_flash_ex.c **** 
 1484              		.loc 1 1748 5 view .LVU446
1751:../../Drivers/STM32H7xx_HAL_Driver/Src/stm32h7xx_hal_flash_ex.c ****     FLASH->CRCEADD1 = CRCEndAddr;
 1485              		.loc 1 1751 5 view .LVU447
1751:../../Drivers/STM32H7xx_HAL_Driver/Src/stm32h7xx_hal_flash_ex.c ****     FLASH->CRCEADD1 = CRCEndAddr;
 1486              		.loc 1 1751 21 is_stmt 0 view .LVU448
 1487 0010 014B     		ldr	r3, .L124
 1488 0012 5865     		str	r0, [r3, #84]
1752:../../Drivers/STM32H7xx_HAL_Driver/Src/stm32h7xx_hal_flash_ex.c ****   }
 1489              		.loc 1 1752 5 is_stmt 1 view .LVU449
1752:../../Drivers/STM32H7xx_HAL_Driver/Src/stm32h7xx_hal_flash_ex.c ****   }
 1490              		.loc 1 1752 21 is_stmt 0 view .LVU450
 1491 0014 9965     		str	r1, [r3, #88]
 1492 0016 7047     		bx	lr
 1493              	.L125:
 1494              		.align	2
 1495              	.L124:
 1496 0018 00200052 		.word	1375739904
 1497              		.cfi_endproc
 1498              	.LFE173:
 1500              		.section	.text.HAL_FLASHEx_OBProgram,"ax",%progbits
 1501              		.align	1
 1502              		.global	HAL_FLASHEx_OBProgram
 1503              		.syntax unified
 1504              		.thumb
 1505              		.thumb_func
 1506              		.fpu fpv5-d16
 1508              	HAL_FLASHEx_OBProgram:
 1509              	.LVL109:
 1510              	.LFB146:
 415:../../Drivers/STM32H7xx_HAL_Driver/Src/stm32h7xx_hal_flash_ex.c ****   HAL_StatusTypeDef status;
 1511              		.loc 1 415 1 is_stmt 1 view -0
 1512              		.cfi_startproc
 1513              		@ args = 0, pretend = 0, frame = 0
 1514              		@ frame_needed = 0, uses_anonymous_args = 0
ARM GAS  /tmp/ccS8U376.s 			page 59


 415:../../Drivers/STM32H7xx_HAL_Driver/Src/stm32h7xx_hal_flash_ex.c ****   HAL_StatusTypeDef status;
 1515              		.loc 1 415 1 is_stmt 0 view .LVU452
 1516 0000 38B5     		push	{r3, r4, r5, lr}
 1517              	.LCFI21:
 1518              		.cfi_def_cfa_offset 16
 1519              		.cfi_offset 3, -16
 1520              		.cfi_offset 4, -12
 1521              		.cfi_offset 5, -8
 1522              		.cfi_offset 14, -4
 416:../../Drivers/STM32H7xx_HAL_Driver/Src/stm32h7xx_hal_flash_ex.c **** 
 1523              		.loc 1 416 3 is_stmt 1 view .LVU453
 419:../../Drivers/STM32H7xx_HAL_Driver/Src/stm32h7xx_hal_flash_ex.c **** 
 1524              		.loc 1 419 3 view .LVU454
 422:../../Drivers/STM32H7xx_HAL_Driver/Src/stm32h7xx_hal_flash_ex.c **** 
 1525              		.loc 1 422 3 view .LVU455
 422:../../Drivers/STM32H7xx_HAL_Driver/Src/stm32h7xx_hal_flash_ex.c **** 
 1526              		.loc 1 422 3 view .LVU456
 1527 0002 3A4B     		ldr	r3, .L149
 1528 0004 1B7D     		ldrb	r3, [r3, #20]	@ zero_extendqisi2
 1529 0006 012B     		cmp	r3, #1
 1530 0008 6DD0     		beq	.L137
 1531 000a 0446     		mov	r4, r0
 422:../../Drivers/STM32H7xx_HAL_Driver/Src/stm32h7xx_hal_flash_ex.c **** 
 1532              		.loc 1 422 3 discriminator 2 view .LVU457
 1533 000c 374B     		ldr	r3, .L149
 1534 000e 0121     		movs	r1, #1
 1535 0010 1975     		strb	r1, [r3, #20]
 422:../../Drivers/STM32H7xx_HAL_Driver/Src/stm32h7xx_hal_flash_ex.c **** 
 1536              		.loc 1 422 3 discriminator 2 view .LVU458
 425:../../Drivers/STM32H7xx_HAL_Driver/Src/stm32h7xx_hal_flash_ex.c **** 
 1537              		.loc 1 425 3 discriminator 2 view .LVU459
 425:../../Drivers/STM32H7xx_HAL_Driver/Src/stm32h7xx_hal_flash_ex.c **** 
 1538              		.loc 1 425 20 is_stmt 0 discriminator 2 view .LVU460
 1539 0012 0022     		movs	r2, #0
 1540 0014 9A61     		str	r2, [r3, #24]
 428:../../Drivers/STM32H7xx_HAL_Driver/Src/stm32h7xx_hal_flash_ex.c ****   {
 1541              		.loc 1 428 3 is_stmt 1 discriminator 2 view .LVU461
 428:../../Drivers/STM32H7xx_HAL_Driver/Src/stm32h7xx_hal_flash_ex.c ****   {
 1542              		.loc 1 428 6 is_stmt 0 discriminator 2 view .LVU462
 1543 0016 4CF25030 		movw	r0, #50000
 1544              	.LVL110:
 428:../../Drivers/STM32H7xx_HAL_Driver/Src/stm32h7xx_hal_flash_ex.c ****   {
 1545              		.loc 1 428 6 discriminator 2 view .LVU463
 1546 001a FFF7FEFF 		bl	FLASH_WaitForLastOperation
 1547              	.LVL111:
 428:../../Drivers/STM32H7xx_HAL_Driver/Src/stm32h7xx_hal_flash_ex.c ****   {
 1548              		.loc 1 428 5 discriminator 2 view .LVU464
 1549 001e 28B1     		cbz	r0, .L141
 430:../../Drivers/STM32H7xx_HAL_Driver/Src/stm32h7xx_hal_flash_ex.c ****   }
 1550              		.loc 1 430 12 view .LVU465
 1551 0020 0125     		movs	r5, #1
 1552              	.L128:
 543:../../Drivers/STM32H7xx_HAL_Driver/Src/stm32h7xx_hal_flash_ex.c **** 
 1553              		.loc 1 543 3 is_stmt 1 view .LVU466
 543:../../Drivers/STM32H7xx_HAL_Driver/Src/stm32h7xx_hal_flash_ex.c **** 
 1554              		.loc 1 543 3 view .LVU467
 1555 0022 324B     		ldr	r3, .L149
ARM GAS  /tmp/ccS8U376.s 			page 60


 1556 0024 0022     		movs	r2, #0
 1557 0026 1A75     		strb	r2, [r3, #20]
 543:../../Drivers/STM32H7xx_HAL_Driver/Src/stm32h7xx_hal_flash_ex.c **** 
 1558              		.loc 1 543 3 view .LVU468
 545:../../Drivers/STM32H7xx_HAL_Driver/Src/stm32h7xx_hal_flash_ex.c **** }
 1559              		.loc 1 545 3 view .LVU469
 1560              	.LVL112:
 1561              	.L127:
 546:../../Drivers/STM32H7xx_HAL_Driver/Src/stm32h7xx_hal_flash_ex.c **** 
 1562              		.loc 1 546 1 is_stmt 0 view .LVU470
 1563 0028 2846     		mov	r0, r5
 1564 002a 38BD     		pop	{r3, r4, r5, pc}
 1565              	.LVL113:
 1566              	.L141:
 433:../../Drivers/STM32H7xx_HAL_Driver/Src/stm32h7xx_hal_flash_ex.c ****   {
 1567              		.loc 1 433 8 is_stmt 1 view .LVU471
 433:../../Drivers/STM32H7xx_HAL_Driver/Src/stm32h7xx_hal_flash_ex.c ****   {
 1568              		.loc 1 433 11 is_stmt 0 view .LVU472
 1569 002c 0221     		movs	r1, #2
 1570 002e 4CF25030 		movw	r0, #50000
 1571 0032 FFF7FEFF 		bl	FLASH_WaitForLastOperation
 1572              	.LVL114:
 433:../../Drivers/STM32H7xx_HAL_Driver/Src/stm32h7xx_hal_flash_ex.c ****   {
 1573              		.loc 1 433 10 view .LVU473
 1574 0036 0546     		mov	r5, r0
 1575 0038 0028     		cmp	r0, #0
 1576 003a 52D1     		bne	.L139
 440:../../Drivers/STM32H7xx_HAL_Driver/Src/stm32h7xx_hal_flash_ex.c ****   }
 1577              		.loc 1 440 5 is_stmt 1 view .LVU474
 1578              	.LVL115:
 443:../../Drivers/STM32H7xx_HAL_Driver/Src/stm32h7xx_hal_flash_ex.c ****   {
 1579              		.loc 1 443 3 view .LVU475
 446:../../Drivers/STM32H7xx_HAL_Driver/Src/stm32h7xx_hal_flash_ex.c ****     {
 1580              		.loc 1 446 5 view .LVU476
 446:../../Drivers/STM32H7xx_HAL_Driver/Src/stm32h7xx_hal_flash_ex.c ****     {
 1581              		.loc 1 446 16 is_stmt 0 view .LVU477
 1582 003c 2368     		ldr	r3, [r4]
 446:../../Drivers/STM32H7xx_HAL_Driver/Src/stm32h7xx_hal_flash_ex.c ****     {
 1583              		.loc 1 446 7 view .LVU478
 1584 003e 13F0010F 		tst	r3, #1
 1585 0042 06D0     		beq	.L129
 448:../../Drivers/STM32H7xx_HAL_Driver/Src/stm32h7xx_hal_flash_ex.c **** 
 1586              		.loc 1 448 7 is_stmt 1 view .LVU479
 450:../../Drivers/STM32H7xx_HAL_Driver/Src/stm32h7xx_hal_flash_ex.c ****       {
 1587              		.loc 1 450 7 view .LVU480
 450:../../Drivers/STM32H7xx_HAL_Driver/Src/stm32h7xx_hal_flash_ex.c ****       {
 1588              		.loc 1 450 17 is_stmt 0 view .LVU481
 1589 0044 6368     		ldr	r3, [r4, #4]
 450:../../Drivers/STM32H7xx_HAL_Driver/Src/stm32h7xx_hal_flash_ex.c ****       {
 1590              		.loc 1 450 9 view .LVU482
 1591 0046 012B     		cmp	r3, #1
 1592 0048 26D0     		beq	.L142
 458:../../Drivers/STM32H7xx_HAL_Driver/Src/stm32h7xx_hal_flash_ex.c ****       }
 1593              		.loc 1 458 9 is_stmt 1 view .LVU483
 1594 004a E169     		ldr	r1, [r4, #28]
 1595 004c A068     		ldr	r0, [r4, #8]
 1596 004e FFF7FEFF 		bl	FLASH_OB_DisableWRP
ARM GAS  /tmp/ccS8U376.s 			page 61


 1597              	.LVL116:
 1598              	.L129:
 463:../../Drivers/STM32H7xx_HAL_Driver/Src/stm32h7xx_hal_flash_ex.c ****     {
 1599              		.loc 1 463 5 view .LVU484
 463:../../Drivers/STM32H7xx_HAL_Driver/Src/stm32h7xx_hal_flash_ex.c ****     {
 1600              		.loc 1 463 16 is_stmt 0 view .LVU485
 1601 0052 2368     		ldr	r3, [r4]
 463:../../Drivers/STM32H7xx_HAL_Driver/Src/stm32h7xx_hal_flash_ex.c ****     {
 1602              		.loc 1 463 7 view .LVU486
 1603 0054 13F0020F 		tst	r3, #2
 1604 0058 23D1     		bne	.L143
 1605              	.L131:
 470:../../Drivers/STM32H7xx_HAL_Driver/Src/stm32h7xx_hal_flash_ex.c ****     {
 1606              		.loc 1 470 5 is_stmt 1 view .LVU487
 470:../../Drivers/STM32H7xx_HAL_Driver/Src/stm32h7xx_hal_flash_ex.c ****     {
 1607              		.loc 1 470 16 is_stmt 0 view .LVU488
 1608 005a 2368     		ldr	r3, [r4]
 470:../../Drivers/STM32H7xx_HAL_Driver/Src/stm32h7xx_hal_flash_ex.c ****     {
 1609              		.loc 1 470 7 view .LVU489
 1610 005c 13F0040F 		tst	r3, #4
 1611 0060 23D1     		bne	.L144
 1612              	.L132:
 477:../../Drivers/STM32H7xx_HAL_Driver/Src/stm32h7xx_hal_flash_ex.c ****     {
 1613              		.loc 1 477 5 is_stmt 1 view .LVU490
 477:../../Drivers/STM32H7xx_HAL_Driver/Src/stm32h7xx_hal_flash_ex.c ****     {
 1614              		.loc 1 477 16 is_stmt 0 view .LVU491
 1615 0062 2368     		ldr	r3, [r4]
 477:../../Drivers/STM32H7xx_HAL_Driver/Src/stm32h7xx_hal_flash_ex.c ****     {
 1616              		.loc 1 477 7 view .LVU492
 1617 0064 13F0080F 		tst	r3, #8
 1618 0068 24D1     		bne	.L145
 1619              	.L133:
 486:../../Drivers/STM32H7xx_HAL_Driver/Src/stm32h7xx_hal_flash_ex.c ****     {
 1620              		.loc 1 486 5 is_stmt 1 view .LVU493
 486:../../Drivers/STM32H7xx_HAL_Driver/Src/stm32h7xx_hal_flash_ex.c ****     {
 1621              		.loc 1 486 16 is_stmt 0 view .LVU494
 1622 006a 2368     		ldr	r3, [r4]
 486:../../Drivers/STM32H7xx_HAL_Driver/Src/stm32h7xx_hal_flash_ex.c ****     {
 1623              		.loc 1 486 7 view .LVU495
 1624 006c 13F0100F 		tst	r3, #16
 1625 0070 27D1     		bne	.L146
 1626              	.L134:
 493:../../Drivers/STM32H7xx_HAL_Driver/Src/stm32h7xx_hal_flash_ex.c ****     {
 1627              		.loc 1 493 5 is_stmt 1 view .LVU496
 493:../../Drivers/STM32H7xx_HAL_Driver/Src/stm32h7xx_hal_flash_ex.c ****     {
 1628              		.loc 1 493 16 is_stmt 0 view .LVU497
 1629 0072 2368     		ldr	r3, [r4]
 493:../../Drivers/STM32H7xx_HAL_Driver/Src/stm32h7xx_hal_flash_ex.c ****     {
 1630              		.loc 1 493 7 view .LVU498
 1631 0074 13F0400F 		tst	r3, #64
 1632 0078 27D1     		bne	.L147
 1633              	.L135:
 499:../../Drivers/STM32H7xx_HAL_Driver/Src/stm32h7xx_hal_flash_ex.c ****     {
 1634              		.loc 1 499 5 is_stmt 1 view .LVU499
 499:../../Drivers/STM32H7xx_HAL_Driver/Src/stm32h7xx_hal_flash_ex.c ****     {
 1635              		.loc 1 499 16 is_stmt 0 view .LVU500
 1636 007a 2368     		ldr	r3, [r4]
ARM GAS  /tmp/ccS8U376.s 			page 62


 499:../../Drivers/STM32H7xx_HAL_Driver/Src/stm32h7xx_hal_flash_ex.c ****     {
 1637              		.loc 1 499 7 view .LVU501
 1638 007c 13F0800F 		tst	r3, #128
 1639 0080 29D1     		bne	.L148
 1640              	.L136:
 512:../../Drivers/STM32H7xx_HAL_Driver/Src/stm32h7xx_hal_flash_ex.c ****     {
 1641              		.loc 1 512 5 is_stmt 1 view .LVU502
 512:../../Drivers/STM32H7xx_HAL_Driver/Src/stm32h7xx_hal_flash_ex.c ****     {
 1642              		.loc 1 512 16 is_stmt 0 view .LVU503
 1643 0082 2368     		ldr	r3, [r4]
 512:../../Drivers/STM32H7xx_HAL_Driver/Src/stm32h7xx_hal_flash_ex.c ****     {
 1644              		.loc 1 512 7 view .LVU504
 1645 0084 13F0200F 		tst	r3, #32
 1646 0088 CBD0     		beq	.L128
 514:../../Drivers/STM32H7xx_HAL_Driver/Src/stm32h7xx_hal_flash_ex.c ****     }
 1647              		.loc 1 514 7 is_stmt 1 view .LVU505
 1648 008a E369     		ldr	r3, [r4, #28]
 1649 008c E26C     		ldr	r2, [r4, #76]
 1650 008e A16C     		ldr	r1, [r4, #72]
 1651 0090 606C     		ldr	r0, [r4, #68]
 1652 0092 FFF7FEFF 		bl	FLASH_OB_SecureAreaConfig
 1653              	.LVL117:
 1654 0096 C4E7     		b	.L128
 1655              	.L142:
 453:../../Drivers/STM32H7xx_HAL_Driver/Src/stm32h7xx_hal_flash_ex.c ****       }
 1656              		.loc 1 453 9 view .LVU506
 1657 0098 E169     		ldr	r1, [r4, #28]
 1658 009a A068     		ldr	r0, [r4, #8]
 1659 009c FFF7FEFF 		bl	FLASH_OB_EnableWRP
 1660              	.LVL118:
 1661 00a0 D7E7     		b	.L129
 1662              	.L143:
 466:../../Drivers/STM32H7xx_HAL_Driver/Src/stm32h7xx_hal_flash_ex.c ****     }
 1663              		.loc 1 466 7 view .LVU507
 1664 00a2 E068     		ldr	r0, [r4, #12]
 1665 00a4 FFF7FEFF 		bl	FLASH_OB_RDPConfig
 1666              	.LVL119:
 1667 00a8 D7E7     		b	.L131
 1668              	.L144:
 473:../../Drivers/STM32H7xx_HAL_Driver/Src/stm32h7xx_hal_flash_ex.c ****     }
 1669              		.loc 1 473 7 view .LVU508
 1670 00aa A169     		ldr	r1, [r4, #24]
 1671 00ac 6069     		ldr	r0, [r4, #20]
 1672 00ae FFF7FEFF 		bl	FLASH_OB_UserConfig
 1673              	.LVL120:
 1674 00b2 D6E7     		b	.L132
 1675              	.L145:
 479:../../Drivers/STM32H7xx_HAL_Driver/Src/stm32h7xx_hal_flash_ex.c **** 
 1676              		.loc 1 479 7 view .LVU509
 482:../../Drivers/STM32H7xx_HAL_Driver/Src/stm32h7xx_hal_flash_ex.c ****     }
 1677              		.loc 1 482 7 view .LVU510
 1678 00b4 E369     		ldr	r3, [r4, #28]
 1679 00b6 A26A     		ldr	r2, [r4, #40]
 1680 00b8 616A     		ldr	r1, [r4, #36]
 1681 00ba 206A     		ldr	r0, [r4, #32]
 1682 00bc FFF7FEFF 		bl	FLASH_OB_PCROPConfig
 1683              	.LVL121:
ARM GAS  /tmp/ccS8U376.s 			page 63


 1684 00c0 D3E7     		b	.L133
 1685              	.L146:
 488:../../Drivers/STM32H7xx_HAL_Driver/Src/stm32h7xx_hal_flash_ex.c ****     }
 1686              		.loc 1 488 7 view .LVU511
 1687 00c2 2069     		ldr	r0, [r4, #16]
 1688 00c4 FFF7FEFF 		bl	FLASH_OB_BOR_LevelConfig
 1689              	.LVL122:
 1690 00c8 D3E7     		b	.L134
 1691              	.L147:
 495:../../Drivers/STM32H7xx_HAL_Driver/Src/stm32h7xx_hal_flash_ex.c ****     }
 1692              		.loc 1 495 7 view .LVU512
 1693 00ca 626B     		ldr	r2, [r4, #52]
 1694 00cc 216B     		ldr	r1, [r4, #48]
 1695 00ce E06A     		ldr	r0, [r4, #44]
 1696 00d0 FFF7FEFF 		bl	FLASH_OB_BootAddConfig
 1697              	.LVL123:
 1698 00d4 D1E7     		b	.L135
 1699              	.L148:
 501:../../Drivers/STM32H7xx_HAL_Driver/Src/stm32h7xx_hal_flash_ex.c ****     }
 1700              		.loc 1 501 7 view .LVU513
 1701 00d6 226C     		ldr	r2, [r4, #64]
 1702 00d8 E16B     		ldr	r1, [r4, #60]
 1703 00da A06B     		ldr	r0, [r4, #56]
 1704 00dc FFF7FEFF 		bl	FLASH_OB_CM4BootAddConfig
 1705              	.LVL124:
 1706 00e0 CFE7     		b	.L136
 1707              	.LVL125:
 1708              	.L139:
 435:../../Drivers/STM32H7xx_HAL_Driver/Src/stm32h7xx_hal_flash_ex.c ****   }
 1709              		.loc 1 435 12 is_stmt 0 view .LVU514
 1710 00e2 0125     		movs	r5, #1
 1711 00e4 9DE7     		b	.L128
 1712              	.LVL126:
 1713              	.L137:
 422:../../Drivers/STM32H7xx_HAL_Driver/Src/stm32h7xx_hal_flash_ex.c **** 
 1714              		.loc 1 422 3 view .LVU515
 1715 00e6 0225     		movs	r5, #2
 1716 00e8 9EE7     		b	.L127
 1717              	.L150:
 1718 00ea 00BF     		.align	2
 1719              	.L149:
 1720 00ec 00000000 		.word	pFlash
 1721              		.cfi_endproc
 1722              	.LFE146:
 1724              		.section	.text.HAL_FLASHEx_OBGetConfig,"ax",%progbits
 1725              		.align	1
 1726              		.global	HAL_FLASHEx_OBGetConfig
 1727              		.syntax unified
 1728              		.thumb
 1729              		.thumb_func
 1730              		.fpu fpv5-d16
 1732              	HAL_FLASHEx_OBGetConfig:
 1733              	.LVL127:
 1734              	.LFB147:
 558:../../Drivers/STM32H7xx_HAL_Driver/Src/stm32h7xx_hal_flash_ex.c ****   pOBInit->OptionType = (OPTIONBYTE_USER | OPTIONBYTE_RDP | OPTIONBYTE_BOR);
 1735              		.loc 1 558 1 is_stmt 1 view -0
 1736              		.cfi_startproc
ARM GAS  /tmp/ccS8U376.s 			page 64


 1737              		@ args = 0, pretend = 0, frame = 0
 1738              		@ frame_needed = 0, uses_anonymous_args = 0
 558:../../Drivers/STM32H7xx_HAL_Driver/Src/stm32h7xx_hal_flash_ex.c ****   pOBInit->OptionType = (OPTIONBYTE_USER | OPTIONBYTE_RDP | OPTIONBYTE_BOR);
 1739              		.loc 1 558 1 is_stmt 0 view .LVU517
 1740 0000 10B5     		push	{r4, lr}
 1741              	.LCFI22:
 1742              		.cfi_def_cfa_offset 8
 1743              		.cfi_offset 4, -8
 1744              		.cfi_offset 14, -4
 1745 0002 0446     		mov	r4, r0
 559:../../Drivers/STM32H7xx_HAL_Driver/Src/stm32h7xx_hal_flash_ex.c **** 
 1746              		.loc 1 559 3 is_stmt 1 view .LVU518
 559:../../Drivers/STM32H7xx_HAL_Driver/Src/stm32h7xx_hal_flash_ex.c **** 
 1747              		.loc 1 559 23 is_stmt 0 view .LVU519
 1748 0004 1623     		movs	r3, #22
 1749 0006 0360     		str	r3, [r0]
 562:../../Drivers/STM32H7xx_HAL_Driver/Src/stm32h7xx_hal_flash_ex.c **** 
 1750              		.loc 1 562 3 is_stmt 1 view .LVU520
 562:../../Drivers/STM32H7xx_HAL_Driver/Src/stm32h7xx_hal_flash_ex.c **** 
 1751              		.loc 1 562 23 is_stmt 0 view .LVU521
 1752 0008 FFF7FEFF 		bl	FLASH_OB_GetRDP
 1753              	.LVL128:
 562:../../Drivers/STM32H7xx_HAL_Driver/Src/stm32h7xx_hal_flash_ex.c **** 
 1754              		.loc 1 562 21 view .LVU522
 1755 000c E060     		str	r0, [r4, #12]
 565:../../Drivers/STM32H7xx_HAL_Driver/Src/stm32h7xx_hal_flash_ex.c **** 
 1756              		.loc 1 565 3 is_stmt 1 view .LVU523
 565:../../Drivers/STM32H7xx_HAL_Driver/Src/stm32h7xx_hal_flash_ex.c **** 
 1757              		.loc 1 565 25 is_stmt 0 view .LVU524
 1758 000e FFF7FEFF 		bl	FLASH_OB_GetUser
 1759              	.LVL129:
 565:../../Drivers/STM32H7xx_HAL_Driver/Src/stm32h7xx_hal_flash_ex.c **** 
 1760              		.loc 1 565 23 view .LVU525
 1761 0012 A061     		str	r0, [r4, #24]
 568:../../Drivers/STM32H7xx_HAL_Driver/Src/stm32h7xx_hal_flash_ex.c **** 
 1762              		.loc 1 568 3 is_stmt 1 view .LVU526
 568:../../Drivers/STM32H7xx_HAL_Driver/Src/stm32h7xx_hal_flash_ex.c **** 
 1763              		.loc 1 568 23 is_stmt 0 view .LVU527
 1764 0014 FFF7FEFF 		bl	FLASH_OB_GetBOR
 1765              	.LVL130:
 568:../../Drivers/STM32H7xx_HAL_Driver/Src/stm32h7xx_hal_flash_ex.c **** 
 1766              		.loc 1 568 21 view .LVU528
 1767 0018 2061     		str	r0, [r4, #16]
 571:../../Drivers/STM32H7xx_HAL_Driver/Src/stm32h7xx_hal_flash_ex.c **** #else
 1768              		.loc 1 571 3 is_stmt 1 view .LVU529
 571:../../Drivers/STM32H7xx_HAL_Driver/Src/stm32h7xx_hal_flash_ex.c **** #else
 1769              		.loc 1 571 15 is_stmt 0 view .LVU530
 1770 001a E269     		ldr	r2, [r4, #28]
 571:../../Drivers/STM32H7xx_HAL_Driver/Src/stm32h7xx_hal_flash_ex.c **** #else
 1771              		.loc 1 571 40 view .LVU531
 1772 001c 531E     		subs	r3, r2, #1
 571:../../Drivers/STM32H7xx_HAL_Driver/Src/stm32h7xx_hal_flash_ex.c **** #else
 1773              		.loc 1 571 6 view .LVU532
 1774 001e 012B     		cmp	r3, #1
 1775 0020 10D9     		bls	.L154
 1776              	.L152:
 589:../../Drivers/STM32H7xx_HAL_Driver/Src/stm32h7xx_hal_flash_ex.c **** #if defined(DUAL_CORE)
ARM GAS  /tmp/ccS8U376.s 			page 65


 1777              		.loc 1 589 3 is_stmt 1 view .LVU533
 1778 0022 04F13401 		add	r1, r4, #52
 1779 0026 04F13000 		add	r0, r4, #48
 1780 002a FFF7FEFF 		bl	FLASH_OB_GetBootAdd
 1781              	.LVL131:
 591:../../Drivers/STM32H7xx_HAL_Driver/Src/stm32h7xx_hal_flash_ex.c **** 
 1782              		.loc 1 591 3 view .LVU534
 591:../../Drivers/STM32H7xx_HAL_Driver/Src/stm32h7xx_hal_flash_ex.c **** 
 1783              		.loc 1 591 23 is_stmt 0 view .LVU535
 1784 002e 2368     		ldr	r3, [r4]
 1785 0030 43F0C003 		orr	r3, r3, #192
 1786 0034 2146     		mov	r1, r4
 1787 0036 41F8403B 		str	r3, [r1], #64
 594:../../Drivers/STM32H7xx_HAL_Driver/Src/stm32h7xx_hal_flash_ex.c **** #else
 1788              		.loc 1 594 3 is_stmt 1 view .LVU536
 1789 003a 04F13C00 		add	r0, r4, #60
 1790 003e FFF7FEFF 		bl	FLASH_OB_GetCM4BootAdd
 1791              	.LVL132:
 619:../../Drivers/STM32H7xx_HAL_Driver/Src/stm32h7xx_hal_flash_ex.c **** 
 1792              		.loc 1 619 1 is_stmt 0 view .LVU537
 1793 0042 10BD     		pop	{r4, pc}
 1794              	.LVL133:
 1795              	.L154:
 576:../../Drivers/STM32H7xx_HAL_Driver/Src/stm32h7xx_hal_flash_ex.c **** 
 1796              		.loc 1 576 5 is_stmt 1 view .LVU538
 576:../../Drivers/STM32H7xx_HAL_Driver/Src/stm32h7xx_hal_flash_ex.c **** 
 1797              		.loc 1 576 25 is_stmt 0 view .LVU539
 1798 0044 2368     		ldr	r3, [r4]
 1799 0046 43F02903 		orr	r3, r3, #41
 1800 004a 2146     		mov	r1, r4
 1801 004c 41F8083B 		str	r3, [r1], #8
 579:../../Drivers/STM32H7xx_HAL_Driver/Src/stm32h7xx_hal_flash_ex.c **** 
 1802              		.loc 1 579 5 is_stmt 1 view .LVU540
 1803 0050 201D     		adds	r0, r4, #4
 1804 0052 FFF7FEFF 		bl	FLASH_OB_GetWRP
 1805              	.LVL134:
 582:../../Drivers/STM32H7xx_HAL_Driver/Src/stm32h7xx_hal_flash_ex.c **** 
 1806              		.loc 1 582 5 view .LVU541
 1807 0056 E369     		ldr	r3, [r4, #28]
 1808 0058 04F12802 		add	r2, r4, #40
 1809 005c 04F12401 		add	r1, r4, #36
 1810 0060 04F12000 		add	r0, r4, #32
 1811 0064 FFF7FEFF 		bl	FLASH_OB_GetPCROP
 1812              	.LVL135:
 585:../../Drivers/STM32H7xx_HAL_Driver/Src/stm32h7xx_hal_flash_ex.c ****   }
 1813              		.loc 1 585 5 view .LVU542
 1814 0068 E369     		ldr	r3, [r4, #28]
 1815 006a 04F14C02 		add	r2, r4, #76
 1816 006e 04F14801 		add	r1, r4, #72
 1817 0072 04F14400 		add	r0, r4, #68
 1818 0076 FFF7FEFF 		bl	FLASH_OB_GetSecureArea
 1819              	.LVL136:
 1820 007a D2E7     		b	.L152
 1821              		.cfi_endproc
 1822              	.LFE147:
 1824              		.section	.text.HAL_FLASHEx_Unlock_Bank1,"ax",%progbits
 1825              		.align	1
ARM GAS  /tmp/ccS8U376.s 			page 66


 1826              		.global	HAL_FLASHEx_Unlock_Bank1
 1827              		.syntax unified
 1828              		.thumb
 1829              		.thumb_func
 1830              		.fpu fpv5-d16
 1832              	HAL_FLASHEx_Unlock_Bank1:
 1833              	.LFB148:
 626:../../Drivers/STM32H7xx_HAL_Driver/Src/stm32h7xx_hal_flash_ex.c ****   if(READ_BIT(FLASH->CR1, FLASH_CR_LOCK) != 0U)
 1834              		.loc 1 626 1 view -0
 1835              		.cfi_startproc
 1836              		@ args = 0, pretend = 0, frame = 0
 1837              		@ frame_needed = 0, uses_anonymous_args = 0
 1838              		@ link register save eliminated.
 627:../../Drivers/STM32H7xx_HAL_Driver/Src/stm32h7xx_hal_flash_ex.c ****   {
 1839              		.loc 1 627 3 view .LVU544
 627:../../Drivers/STM32H7xx_HAL_Driver/Src/stm32h7xx_hal_flash_ex.c ****   {
 1840              		.loc 1 627 6 is_stmt 0 view .LVU545
 1841 0000 0A4B     		ldr	r3, .L159
 1842 0002 DB68     		ldr	r3, [r3, #12]
 627:../../Drivers/STM32H7xx_HAL_Driver/Src/stm32h7xx_hal_flash_ex.c ****   {
 1843              		.loc 1 627 5 view .LVU546
 1844 0004 13F0010F 		tst	r3, #1
 1845 0008 0BD0     		beq	.L157
 630:../../Drivers/STM32H7xx_HAL_Driver/Src/stm32h7xx_hal_flash_ex.c ****     WRITE_REG(FLASH->KEYR1, FLASH_KEY2);
 1846              		.loc 1 630 5 is_stmt 1 view .LVU547
 1847 000a 084B     		ldr	r3, .L159
 1848 000c 084A     		ldr	r2, .L159+4
 1849 000e 5A60     		str	r2, [r3, #4]
 631:../../Drivers/STM32H7xx_HAL_Driver/Src/stm32h7xx_hal_flash_ex.c **** 
 1850              		.loc 1 631 5 view .LVU548
 1851 0010 02F18832 		add	r2, r2, #-2004318072
 1852 0014 5A60     		str	r2, [r3, #4]
 634:../../Drivers/STM32H7xx_HAL_Driver/Src/stm32h7xx_hal_flash_ex.c ****     {
 1853              		.loc 1 634 5 view .LVU549
 634:../../Drivers/STM32H7xx_HAL_Driver/Src/stm32h7xx_hal_flash_ex.c ****     {
 1854              		.loc 1 634 9 is_stmt 0 view .LVU550
 1855 0016 DB68     		ldr	r3, [r3, #12]
 634:../../Drivers/STM32H7xx_HAL_Driver/Src/stm32h7xx_hal_flash_ex.c ****     {
 1856              		.loc 1 634 8 view .LVU551
 1857 0018 13F0010F 		tst	r3, #1
 1858 001c 03D1     		bne	.L158
 640:../../Drivers/STM32H7xx_HAL_Driver/Src/stm32h7xx_hal_flash_ex.c **** }
 1859              		.loc 1 640 10 view .LVU552
 1860 001e 0020     		movs	r0, #0
 1861 0020 7047     		bx	lr
 1862              	.L157:
 1863 0022 0020     		movs	r0, #0
 1864 0024 7047     		bx	lr
 1865              	.L158:
 636:../../Drivers/STM32H7xx_HAL_Driver/Src/stm32h7xx_hal_flash_ex.c ****     }
 1866              		.loc 1 636 14 view .LVU553
 1867 0026 0120     		movs	r0, #1
 641:../../Drivers/STM32H7xx_HAL_Driver/Src/stm32h7xx_hal_flash_ex.c **** 
 1868              		.loc 1 641 1 view .LVU554
 1869 0028 7047     		bx	lr
 1870              	.L160:
 1871 002a 00BF     		.align	2
ARM GAS  /tmp/ccS8U376.s 			page 67


 1872              	.L159:
 1873 002c 00200052 		.word	1375739904
 1874 0030 23016745 		.word	1164378403
 1875              		.cfi_endproc
 1876              	.LFE148:
 1878              		.section	.text.HAL_FLASHEx_Lock_Bank1,"ax",%progbits
 1879              		.align	1
 1880              		.global	HAL_FLASHEx_Lock_Bank1
 1881              		.syntax unified
 1882              		.thumb
 1883              		.thumb_func
 1884              		.fpu fpv5-d16
 1886              	HAL_FLASHEx_Lock_Bank1:
 1887              	.LFB149:
 648:../../Drivers/STM32H7xx_HAL_Driver/Src/stm32h7xx_hal_flash_ex.c ****   /* Set the LOCK Bit to lock the FLASH Bank1 Registers access */
 1888              		.loc 1 648 1 is_stmt 1 view -0
 1889              		.cfi_startproc
 1890              		@ args = 0, pretend = 0, frame = 0
 1891              		@ frame_needed = 0, uses_anonymous_args = 0
 1892              		@ link register save eliminated.
 650:../../Drivers/STM32H7xx_HAL_Driver/Src/stm32h7xx_hal_flash_ex.c ****   return HAL_OK;
 1893              		.loc 1 650 3 view .LVU556
 1894 0000 034A     		ldr	r2, .L162
 1895 0002 D368     		ldr	r3, [r2, #12]
 1896 0004 43F00103 		orr	r3, r3, #1
 1897 0008 D360     		str	r3, [r2, #12]
 651:../../Drivers/STM32H7xx_HAL_Driver/Src/stm32h7xx_hal_flash_ex.c **** }
 1898              		.loc 1 651 3 view .LVU557
 652:../../Drivers/STM32H7xx_HAL_Driver/Src/stm32h7xx_hal_flash_ex.c **** 
 1899              		.loc 1 652 1 is_stmt 0 view .LVU558
 1900 000a 0020     		movs	r0, #0
 1901 000c 7047     		bx	lr
 1902              	.L163:
 1903 000e 00BF     		.align	2
 1904              	.L162:
 1905 0010 00200052 		.word	1375739904
 1906              		.cfi_endproc
 1907              	.LFE149:
 1909              		.section	.text.HAL_FLASHEx_Unlock_Bank2,"ax",%progbits
 1910              		.align	1
 1911              		.global	HAL_FLASHEx_Unlock_Bank2
 1912              		.syntax unified
 1913              		.thumb
 1914              		.thumb_func
 1915              		.fpu fpv5-d16
 1917              	HAL_FLASHEx_Unlock_Bank2:
 1918              	.LFB150:
 660:../../Drivers/STM32H7xx_HAL_Driver/Src/stm32h7xx_hal_flash_ex.c ****   if(READ_BIT(FLASH->CR2, FLASH_CR_LOCK) != 0U)
 1919              		.loc 1 660 1 is_stmt 1 view -0
 1920              		.cfi_startproc
 1921              		@ args = 0, pretend = 0, frame = 0
 1922              		@ frame_needed = 0, uses_anonymous_args = 0
 1923              		@ link register save eliminated.
 661:../../Drivers/STM32H7xx_HAL_Driver/Src/stm32h7xx_hal_flash_ex.c ****   {
 1924              		.loc 1 661 3 view .LVU560
 661:../../Drivers/STM32H7xx_HAL_Driver/Src/stm32h7xx_hal_flash_ex.c ****   {
 1925              		.loc 1 661 6 is_stmt 0 view .LVU561
ARM GAS  /tmp/ccS8U376.s 			page 68


 1926 0000 0C4B     		ldr	r3, .L168
 1927 0002 D3F80C31 		ldr	r3, [r3, #268]
 661:../../Drivers/STM32H7xx_HAL_Driver/Src/stm32h7xx_hal_flash_ex.c ****   {
 1928              		.loc 1 661 5 view .LVU562
 1929 0006 13F0010F 		tst	r3, #1
 1930 000a 0ED0     		beq	.L166
 664:../../Drivers/STM32H7xx_HAL_Driver/Src/stm32h7xx_hal_flash_ex.c ****     WRITE_REG(FLASH->KEYR2, FLASH_KEY2);
 1931              		.loc 1 664 5 is_stmt 1 view .LVU563
 1932 000c 094B     		ldr	r3, .L168
 1933 000e 0A4A     		ldr	r2, .L168+4
 1934 0010 C3F80421 		str	r2, [r3, #260]
 665:../../Drivers/STM32H7xx_HAL_Driver/Src/stm32h7xx_hal_flash_ex.c **** 
 1935              		.loc 1 665 5 view .LVU564
 1936 0014 02F18832 		add	r2, r2, #-2004318072
 1937 0018 C3F80421 		str	r2, [r3, #260]
 668:../../Drivers/STM32H7xx_HAL_Driver/Src/stm32h7xx_hal_flash_ex.c ****     {
 1938              		.loc 1 668 5 view .LVU565
 668:../../Drivers/STM32H7xx_HAL_Driver/Src/stm32h7xx_hal_flash_ex.c ****     {
 1939              		.loc 1 668 9 is_stmt 0 view .LVU566
 1940 001c D3F80C31 		ldr	r3, [r3, #268]
 668:../../Drivers/STM32H7xx_HAL_Driver/Src/stm32h7xx_hal_flash_ex.c ****     {
 1941              		.loc 1 668 8 view .LVU567
 1942 0020 13F0010F 		tst	r3, #1
 1943 0024 03D1     		bne	.L167
 674:../../Drivers/STM32H7xx_HAL_Driver/Src/stm32h7xx_hal_flash_ex.c **** }
 1944              		.loc 1 674 10 view .LVU568
 1945 0026 0020     		movs	r0, #0
 1946 0028 7047     		bx	lr
 1947              	.L166:
 1948 002a 0020     		movs	r0, #0
 1949 002c 7047     		bx	lr
 1950              	.L167:
 670:../../Drivers/STM32H7xx_HAL_Driver/Src/stm32h7xx_hal_flash_ex.c ****     }
 1951              		.loc 1 670 14 view .LVU569
 1952 002e 0120     		movs	r0, #1
 675:../../Drivers/STM32H7xx_HAL_Driver/Src/stm32h7xx_hal_flash_ex.c **** 
 1953              		.loc 1 675 1 view .LVU570
 1954 0030 7047     		bx	lr
 1955              	.L169:
 1956 0032 00BF     		.align	2
 1957              	.L168:
 1958 0034 00200052 		.word	1375739904
 1959 0038 23016745 		.word	1164378403
 1960              		.cfi_endproc
 1961              	.LFE150:
 1963              		.section	.text.HAL_FLASHEx_Lock_Bank2,"ax",%progbits
 1964              		.align	1
 1965              		.global	HAL_FLASHEx_Lock_Bank2
 1966              		.syntax unified
 1967              		.thumb
 1968              		.thumb_func
 1969              		.fpu fpv5-d16
 1971              	HAL_FLASHEx_Lock_Bank2:
 1972              	.LFB151:
 682:../../Drivers/STM32H7xx_HAL_Driver/Src/stm32h7xx_hal_flash_ex.c ****   /* Set the LOCK Bit to lock the FLASH Bank2 Registers access */
 1973              		.loc 1 682 1 is_stmt 1 view -0
 1974              		.cfi_startproc
ARM GAS  /tmp/ccS8U376.s 			page 69


 1975              		@ args = 0, pretend = 0, frame = 0
 1976              		@ frame_needed = 0, uses_anonymous_args = 0
 1977              		@ link register save eliminated.
 684:../../Drivers/STM32H7xx_HAL_Driver/Src/stm32h7xx_hal_flash_ex.c ****   return HAL_OK;
 1978              		.loc 1 684 3 view .LVU572
 1979 0000 044A     		ldr	r2, .L171
 1980 0002 D2F80C31 		ldr	r3, [r2, #268]
 1981 0006 43F00103 		orr	r3, r3, #1
 1982 000a C2F80C31 		str	r3, [r2, #268]
 685:../../Drivers/STM32H7xx_HAL_Driver/Src/stm32h7xx_hal_flash_ex.c **** }
 1983              		.loc 1 685 3 view .LVU573
 686:../../Drivers/STM32H7xx_HAL_Driver/Src/stm32h7xx_hal_flash_ex.c **** #endif /* DUAL_BANK */
 1984              		.loc 1 686 1 is_stmt 0 view .LVU574
 1985 000e 0020     		movs	r0, #0
 1986 0010 7047     		bx	lr
 1987              	.L172:
 1988 0012 00BF     		.align	2
 1989              	.L171:
 1990 0014 00200052 		.word	1375739904
 1991              		.cfi_endproc
 1992              	.LFE151:
 1994              		.section	.text.HAL_FLASHEx_ComputeCRC,"ax",%progbits
 1995              		.align	1
 1996              		.global	HAL_FLASHEx_ComputeCRC
 1997              		.syntax unified
 1998              		.thumb
 1999              		.thumb_func
 2000              		.fpu fpv5-d16
 2002              	HAL_FLASHEx_ComputeCRC:
 2003              	.LVL137:
 2004              	.LFB152:
 701:../../Drivers/STM32H7xx_HAL_Driver/Src/stm32h7xx_hal_flash_ex.c ****   HAL_StatusTypeDef status;
 2005              		.loc 1 701 1 is_stmt 1 view -0
 2006              		.cfi_startproc
 2007              		@ args = 0, pretend = 0, frame = 0
 2008              		@ frame_needed = 0, uses_anonymous_args = 0
 701:../../Drivers/STM32H7xx_HAL_Driver/Src/stm32h7xx_hal_flash_ex.c ****   HAL_StatusTypeDef status;
 2009              		.loc 1 701 1 is_stmt 0 view .LVU576
 2010 0000 70B5     		push	{r4, r5, r6, lr}
 2011              	.LCFI23:
 2012              		.cfi_def_cfa_offset 16
 2013              		.cfi_offset 4, -16
 2014              		.cfi_offset 5, -12
 2015              		.cfi_offset 6, -8
 2016              		.cfi_offset 14, -4
 2017 0002 0446     		mov	r4, r0
 2018 0004 0E46     		mov	r6, r1
 702:../../Drivers/STM32H7xx_HAL_Driver/Src/stm32h7xx_hal_flash_ex.c ****   uint32_t sector_index;
 2019              		.loc 1 702 3 is_stmt 1 view .LVU577
 703:../../Drivers/STM32H7xx_HAL_Driver/Src/stm32h7xx_hal_flash_ex.c **** 
 2020              		.loc 1 703 3 view .LVU578
 706:../../Drivers/STM32H7xx_HAL_Driver/Src/stm32h7xx_hal_flash_ex.c ****   assert_param(IS_FLASH_TYPECRC(pCRCInit->TypeCRC));
 2021              		.loc 1 706 3 view .LVU579
 707:../../Drivers/STM32H7xx_HAL_Driver/Src/stm32h7xx_hal_flash_ex.c **** 
 2022              		.loc 1 707 3 view .LVU580
 710:../../Drivers/STM32H7xx_HAL_Driver/Src/stm32h7xx_hal_flash_ex.c **** 
 2023              		.loc 1 710 3 view .LVU581
ARM GAS  /tmp/ccS8U376.s 			page 70


 710:../../Drivers/STM32H7xx_HAL_Driver/Src/stm32h7xx_hal_flash_ex.c **** 
 2024              		.loc 1 710 12 is_stmt 0 view .LVU582
 2025 0006 4CF25030 		movw	r0, #50000
 2026              	.LVL138:
 710:../../Drivers/STM32H7xx_HAL_Driver/Src/stm32h7xx_hal_flash_ex.c **** 
 2027              		.loc 1 710 12 view .LVU583
 2028 000a FFF7FEFF 		bl	FLASH_OB_WaitForLastOperation
 2029              	.LVL139:
 712:../../Drivers/STM32H7xx_HAL_Driver/Src/stm32h7xx_hal_flash_ex.c ****   {
 2030              		.loc 1 712 3 is_stmt 1 view .LVU584
 712:../../Drivers/STM32H7xx_HAL_Driver/Src/stm32h7xx_hal_flash_ex.c ****   {
 2031              		.loc 1 712 6 is_stmt 0 view .LVU585
 2032 000e 0028     		cmp	r0, #0
 2033 0010 3FD1     		bne	.L174
 714:../../Drivers/STM32H7xx_HAL_Driver/Src/stm32h7xx_hal_flash_ex.c ****     {
 2034              		.loc 1 714 5 is_stmt 1 view .LVU586
 714:../../Drivers/STM32H7xx_HAL_Driver/Src/stm32h7xx_hal_flash_ex.c ****     {
 2035              		.loc 1 714 17 is_stmt 0 view .LVU587
 2036 0012 A368     		ldr	r3, [r4, #8]
 714:../../Drivers/STM32H7xx_HAL_Driver/Src/stm32h7xx_hal_flash_ex.c ****     {
 2037              		.loc 1 714 8 view .LVU588
 2038 0014 012B     		cmp	r3, #1
 2039 0016 3DD0     		beq	.L187
 766:../../Drivers/STM32H7xx_HAL_Driver/Src/stm32h7xx_hal_flash_ex.c **** 
 2040              		.loc 1 766 7 is_stmt 1 view .LVU589
 766:../../Drivers/STM32H7xx_HAL_Driver/Src/stm32h7xx_hal_flash_ex.c **** 
 2041              		.loc 1 766 18 is_stmt 0 view .LVU590
 2042 0018 4F4B     		ldr	r3, .L190
 2043 001a D3F80C21 		ldr	r2, [r3, #268]
 2044 001e 42F40042 		orr	r2, r2, #32768
 2045 0022 C3F80C21 		str	r2, [r3, #268]
 769:../../Drivers/STM32H7xx_HAL_Driver/Src/stm32h7xx_hal_flash_ex.c **** 
 2046              		.loc 1 769 7 is_stmt 1 view .LVU591
 769:../../Drivers/STM32H7xx_HAL_Driver/Src/stm32h7xx_hal_flash_ex.c **** 
 2047              		.loc 1 769 19 is_stmt 0 view .LVU592
 2048 0026 D3F81421 		ldr	r2, [r3, #276]
 2049 002a 42F0C052 		orr	r2, r2, #402653184
 2050 002e C3F81421 		str	r2, [r3, #276]
 772:../../Drivers/STM32H7xx_HAL_Driver/Src/stm32h7xx_hal_flash_ex.c **** 
 2051              		.loc 1 772 7 is_stmt 1 view .LVU593
 772:../../Drivers/STM32H7xx_HAL_Driver/Src/stm32h7xx_hal_flash_ex.c **** 
 2052              		.loc 1 772 21 is_stmt 0 view .LVU594
 2053 0032 D3F85021 		ldr	r2, [r3, #336]
 772:../../Drivers/STM32H7xx_HAL_Driver/Src/stm32h7xx_hal_flash_ex.c **** 
 2054              		.loc 1 772 56 view .LVU595
 2055 0036 6168     		ldr	r1, [r4, #4]
 772:../../Drivers/STM32H7xx_HAL_Driver/Src/stm32h7xx_hal_flash_ex.c **** 
 2056              		.loc 1 772 78 view .LVU596
 2057 0038 2068     		ldr	r0, [r4]
 772:../../Drivers/STM32H7xx_HAL_Driver/Src/stm32h7xx_hal_flash_ex.c **** 
 2058              		.loc 1 772 68 view .LVU597
 2059 003a 0143     		orrs	r1, r1, r0
 772:../../Drivers/STM32H7xx_HAL_Driver/Src/stm32h7xx_hal_flash_ex.c **** 
 2060              		.loc 1 772 21 view .LVU598
 2061 003c 0A43     		orrs	r2, r2, r1
 2062 003e 42F40032 		orr	r2, r2, #131072
 2063 0042 C3F85021 		str	r2, [r3, #336]
ARM GAS  /tmp/ccS8U376.s 			page 71


 774:../../Drivers/STM32H7xx_HAL_Driver/Src/stm32h7xx_hal_flash_ex.c ****       {
 2064              		.loc 1 774 7 is_stmt 1 view .LVU599
 774:../../Drivers/STM32H7xx_HAL_Driver/Src/stm32h7xx_hal_flash_ex.c ****       {
 2065              		.loc 1 774 19 is_stmt 0 view .LVU600
 2066 0046 2368     		ldr	r3, [r4]
 774:../../Drivers/STM32H7xx_HAL_Driver/Src/stm32h7xx_hal_flash_ex.c ****       {
 2067              		.loc 1 774 10 view .LVU601
 2068 0048 B3F5807F 		cmp	r3, #256
 2069 004c 6AD0     		beq	.L188
 785:../../Drivers/STM32H7xx_HAL_Driver/Src/stm32h7xx_hal_flash_ex.c ****       {
 2070              		.loc 1 785 12 is_stmt 1 view .LVU602
 785:../../Drivers/STM32H7xx_HAL_Driver/Src/stm32h7xx_hal_flash_ex.c ****       {
 2071              		.loc 1 785 15 is_stmt 0 view .LVU603
 2072 004e 434A     		ldr	r2, .L190+4
 2073 0050 9342     		cmp	r3, r2
 2074 0052 7AD1     		bne	.L185
 788:../../Drivers/STM32H7xx_HAL_Driver/Src/stm32h7xx_hal_flash_ex.c ****       }
 2075              		.loc 1 788 9 is_stmt 1 view .LVU604
 788:../../Drivers/STM32H7xx_HAL_Driver/Src/stm32h7xx_hal_flash_ex.c ****       }
 2076              		.loc 1 788 23 is_stmt 0 view .LVU605
 2077 0054 404A     		ldr	r2, .L190
 2078 0056 D2F85031 		ldr	r3, [r2, #336]
 2079 005a 43F48003 		orr	r3, r3, #4194304
 2080 005e C2F85031 		str	r3, [r2, #336]
 2081              	.L184:
 797:../../Drivers/STM32H7xx_HAL_Driver/Src/stm32h7xx_hal_flash_ex.c **** 
 2082              		.loc 1 797 7 is_stmt 1 view .LVU606
 797:../../Drivers/STM32H7xx_HAL_Driver/Src/stm32h7xx_hal_flash_ex.c **** 
 2083              		.loc 1 797 21 is_stmt 0 view .LVU607
 2084 0062 3D4C     		ldr	r4, .L190
 2085              	.LVL140:
 797:../../Drivers/STM32H7xx_HAL_Driver/Src/stm32h7xx_hal_flash_ex.c **** 
 2086              		.loc 1 797 21 view .LVU608
 2087 0064 D4F85031 		ldr	r3, [r4, #336]
 2088 0068 43F48033 		orr	r3, r3, #65536
 2089 006c C4F85031 		str	r3, [r4, #336]
 800:../../Drivers/STM32H7xx_HAL_Driver/Src/stm32h7xx_hal_flash_ex.c **** 
 2090              		.loc 1 800 7 is_stmt 1 view .LVU609
 800:../../Drivers/STM32H7xx_HAL_Driver/Src/stm32h7xx_hal_flash_ex.c **** 
 2091              		.loc 1 800 16 is_stmt 0 view .LVU610
 2092 0070 0221     		movs	r1, #2
 2093 0072 4CF25030 		movw	r0, #50000
 2094 0076 FFF7FEFF 		bl	FLASH_CRC_WaitForLastOperation
 2095              	.LVL141:
 803:../../Drivers/STM32H7xx_HAL_Driver/Src/stm32h7xx_hal_flash_ex.c **** 
 2096              		.loc 1 803 7 is_stmt 1 view .LVU611
 803:../../Drivers/STM32H7xx_HAL_Driver/Src/stm32h7xx_hal_flash_ex.c **** 
 2097              		.loc 1 803 28 is_stmt 0 view .LVU612
 2098 007a E36D     		ldr	r3, [r4, #92]
 803:../../Drivers/STM32H7xx_HAL_Driver/Src/stm32h7xx_hal_flash_ex.c **** 
 2099              		.loc 1 803 21 view .LVU613
 2100 007c 3360     		str	r3, [r6]
 806:../../Drivers/STM32H7xx_HAL_Driver/Src/stm32h7xx_hal_flash_ex.c **** 
 2101              		.loc 1 806 7 is_stmt 1 view .LVU614
 806:../../Drivers/STM32H7xx_HAL_Driver/Src/stm32h7xx_hal_flash_ex.c **** 
 2102              		.loc 1 806 18 is_stmt 0 view .LVU615
 2103 007e D4F80C31 		ldr	r3, [r4, #268]
ARM GAS  /tmp/ccS8U376.s 			page 72


 2104 0082 23F40043 		bic	r3, r3, #32768
 2105 0086 C4F80C31 		str	r3, [r4, #268]
 809:../../Drivers/STM32H7xx_HAL_Driver/Src/stm32h7xx_hal_flash_ex.c ****     }
 2106              		.loc 1 809 7 is_stmt 1 view .LVU616
 2107 008a 4FF0C053 		mov	r3, #402653184
 2108 008e C4F81431 		str	r3, [r4, #276]
 2109              	.LVL142:
 2110              	.L174:
 814:../../Drivers/STM32H7xx_HAL_Driver/Src/stm32h7xx_hal_flash_ex.c **** }
 2111              		.loc 1 814 3 view .LVU617
 815:../../Drivers/STM32H7xx_HAL_Driver/Src/stm32h7xx_hal_flash_ex.c **** 
 2112              		.loc 1 815 1 is_stmt 0 view .LVU618
 2113 0092 70BD     		pop	{r4, r5, r6, pc}
 2114              	.LVL143:
 2115              	.L187:
 717:../../Drivers/STM32H7xx_HAL_Driver/Src/stm32h7xx_hal_flash_ex.c **** 
 2116              		.loc 1 717 7 is_stmt 1 view .LVU619
 717:../../Drivers/STM32H7xx_HAL_Driver/Src/stm32h7xx_hal_flash_ex.c **** 
 2117              		.loc 1 717 18 is_stmt 0 view .LVU620
 2118 0094 304B     		ldr	r3, .L190
 2119 0096 DA68     		ldr	r2, [r3, #12]
 2120 0098 42F40042 		orr	r2, r2, #32768
 2121 009c DA60     		str	r2, [r3, #12]
 720:../../Drivers/STM32H7xx_HAL_Driver/Src/stm32h7xx_hal_flash_ex.c **** 
 2122              		.loc 1 720 7 is_stmt 1 view .LVU621
 720:../../Drivers/STM32H7xx_HAL_Driver/Src/stm32h7xx_hal_flash_ex.c **** 
 2123              		.loc 1 720 19 is_stmt 0 view .LVU622
 2124 009e 5A69     		ldr	r2, [r3, #20]
 2125 00a0 42F0C052 		orr	r2, r2, #402653184
 2126 00a4 5A61     		str	r2, [r3, #20]
 723:../../Drivers/STM32H7xx_HAL_Driver/Src/stm32h7xx_hal_flash_ex.c **** 
 2127              		.loc 1 723 7 is_stmt 1 view .LVU623
 723:../../Drivers/STM32H7xx_HAL_Driver/Src/stm32h7xx_hal_flash_ex.c **** 
 2128              		.loc 1 723 21 is_stmt 0 view .LVU624
 2129 00a6 1A6D     		ldr	r2, [r3, #80]
 723:../../Drivers/STM32H7xx_HAL_Driver/Src/stm32h7xx_hal_flash_ex.c **** 
 2130              		.loc 1 723 56 view .LVU625
 2131 00a8 6168     		ldr	r1, [r4, #4]
 723:../../Drivers/STM32H7xx_HAL_Driver/Src/stm32h7xx_hal_flash_ex.c **** 
 2132              		.loc 1 723 78 view .LVU626
 2133 00aa 2068     		ldr	r0, [r4]
 723:../../Drivers/STM32H7xx_HAL_Driver/Src/stm32h7xx_hal_flash_ex.c **** 
 2134              		.loc 1 723 68 view .LVU627
 2135 00ac 0143     		orrs	r1, r1, r0
 723:../../Drivers/STM32H7xx_HAL_Driver/Src/stm32h7xx_hal_flash_ex.c **** 
 2136              		.loc 1 723 21 view .LVU628
 2137 00ae 0A43     		orrs	r2, r2, r1
 2138 00b0 42F40032 		orr	r2, r2, #131072
 2139 00b4 1A65     		str	r2, [r3, #80]
 725:../../Drivers/STM32H7xx_HAL_Driver/Src/stm32h7xx_hal_flash_ex.c ****       {
 2140              		.loc 1 725 7 is_stmt 1 view .LVU629
 725:../../Drivers/STM32H7xx_HAL_Driver/Src/stm32h7xx_hal_flash_ex.c ****       {
 2141              		.loc 1 725 19 is_stmt 0 view .LVU630
 2142 00b6 2368     		ldr	r3, [r4]
 725:../../Drivers/STM32H7xx_HAL_Driver/Src/stm32h7xx_hal_flash_ex.c ****       {
 2143              		.loc 1 725 10 view .LVU631
 2144 00b8 B3F5807F 		cmp	r3, #256
ARM GAS  /tmp/ccS8U376.s 			page 73


 2145 00bc 1BD0     		beq	.L189
 736:../../Drivers/STM32H7xx_HAL_Driver/Src/stm32h7xx_hal_flash_ex.c ****       {
 2146              		.loc 1 736 12 is_stmt 1 view .LVU632
 736:../../Drivers/STM32H7xx_HAL_Driver/Src/stm32h7xx_hal_flash_ex.c ****       {
 2147              		.loc 1 736 15 is_stmt 0 view .LVU633
 2148 00be 274A     		ldr	r2, .L190+4
 2149 00c0 9342     		cmp	r3, r2
 2150 00c2 29D1     		bne	.L180
 739:../../Drivers/STM32H7xx_HAL_Driver/Src/stm32h7xx_hal_flash_ex.c ****       }
 2151              		.loc 1 739 9 is_stmt 1 view .LVU634
 739:../../Drivers/STM32H7xx_HAL_Driver/Src/stm32h7xx_hal_flash_ex.c ****       }
 2152              		.loc 1 739 23 is_stmt 0 view .LVU635
 2153 00c4 244A     		ldr	r2, .L190
 2154 00c6 136D     		ldr	r3, [r2, #80]
 2155 00c8 43F48003 		orr	r3, r3, #4194304
 2156 00cc 1365     		str	r3, [r2, #80]
 2157              	.L179:
 748:../../Drivers/STM32H7xx_HAL_Driver/Src/stm32h7xx_hal_flash_ex.c **** 
 2158              		.loc 1 748 7 is_stmt 1 view .LVU636
 748:../../Drivers/STM32H7xx_HAL_Driver/Src/stm32h7xx_hal_flash_ex.c **** 
 2159              		.loc 1 748 21 is_stmt 0 view .LVU637
 2160 00ce 224C     		ldr	r4, .L190
 2161              	.LVL144:
 748:../../Drivers/STM32H7xx_HAL_Driver/Src/stm32h7xx_hal_flash_ex.c **** 
 2162              		.loc 1 748 21 view .LVU638
 2163 00d0 236D     		ldr	r3, [r4, #80]
 2164 00d2 43F48033 		orr	r3, r3, #65536
 2165 00d6 2365     		str	r3, [r4, #80]
 751:../../Drivers/STM32H7xx_HAL_Driver/Src/stm32h7xx_hal_flash_ex.c **** 
 2166              		.loc 1 751 7 is_stmt 1 view .LVU639
 751:../../Drivers/STM32H7xx_HAL_Driver/Src/stm32h7xx_hal_flash_ex.c **** 
 2167              		.loc 1 751 16 is_stmt 0 view .LVU640
 2168 00d8 0121     		movs	r1, #1
 2169 00da 4CF25030 		movw	r0, #50000
 2170 00de FFF7FEFF 		bl	FLASH_CRC_WaitForLastOperation
 2171              	.LVL145:
 754:../../Drivers/STM32H7xx_HAL_Driver/Src/stm32h7xx_hal_flash_ex.c **** 
 2172              		.loc 1 754 7 is_stmt 1 view .LVU641
 754:../../Drivers/STM32H7xx_HAL_Driver/Src/stm32h7xx_hal_flash_ex.c **** 
 2173              		.loc 1 754 28 is_stmt 0 view .LVU642
 2174 00e2 E36D     		ldr	r3, [r4, #92]
 754:../../Drivers/STM32H7xx_HAL_Driver/Src/stm32h7xx_hal_flash_ex.c **** 
 2175              		.loc 1 754 21 view .LVU643
 2176 00e4 3360     		str	r3, [r6]
 757:../../Drivers/STM32H7xx_HAL_Driver/Src/stm32h7xx_hal_flash_ex.c **** 
 2177              		.loc 1 757 7 is_stmt 1 view .LVU644
 757:../../Drivers/STM32H7xx_HAL_Driver/Src/stm32h7xx_hal_flash_ex.c **** 
 2178              		.loc 1 757 18 is_stmt 0 view .LVU645
 2179 00e6 E368     		ldr	r3, [r4, #12]
 2180 00e8 23F40043 		bic	r3, r3, #32768
 2181 00ec E360     		str	r3, [r4, #12]
 760:../../Drivers/STM32H7xx_HAL_Driver/Src/stm32h7xx_hal_flash_ex.c ****     }
 2182              		.loc 1 760 7 is_stmt 1 view .LVU646
 2183 00ee 4FF0C053 		mov	r3, #402653184
 2184 00f2 6361     		str	r3, [r4, #20]
 2185 00f4 CDE7     		b	.L174
 2186              	.LVL146:
ARM GAS  /tmp/ccS8U376.s 			page 74


 2187              	.L189:
 728:../../Drivers/STM32H7xx_HAL_Driver/Src/stm32h7xx_hal_flash_ex.c **** 
 2188              		.loc 1 728 9 view .LVU647
 728:../../Drivers/STM32H7xx_HAL_Driver/Src/stm32h7xx_hal_flash_ex.c **** 
 2189              		.loc 1 728 23 is_stmt 0 view .LVU648
 2190 00f6 184A     		ldr	r2, .L190
 2191 00f8 136D     		ldr	r3, [r2, #80]
 2192 00fa 43F48063 		orr	r3, r3, #1024
 2193 00fe 1365     		str	r3, [r2, #80]
 731:../../Drivers/STM32H7xx_HAL_Driver/Src/stm32h7xx_hal_flash_ex.c ****         {
 2194              		.loc 1 731 9 is_stmt 1 view .LVU649
 731:../../Drivers/STM32H7xx_HAL_Driver/Src/stm32h7xx_hal_flash_ex.c ****         {
 2195              		.loc 1 731 26 is_stmt 0 view .LVU650
 2196 0100 E568     		ldr	r5, [r4, #12]
 2197              	.LVL147:
 2198              	.L177:
 731:../../Drivers/STM32H7xx_HAL_Driver/Src/stm32h7xx_hal_flash_ex.c ****         {
 2199              		.loc 1 731 46 is_stmt 1 discriminator 1 view .LVU651
 731:../../Drivers/STM32H7xx_HAL_Driver/Src/stm32h7xx_hal_flash_ex.c ****         {
 2200              		.loc 1 731 70 is_stmt 0 discriminator 1 view .LVU652
 2201 0102 2369     		ldr	r3, [r4, #16]
 731:../../Drivers/STM32H7xx_HAL_Driver/Src/stm32h7xx_hal_flash_ex.c ****         {
 2202              		.loc 1 731 92 discriminator 1 view .LVU653
 2203 0104 E268     		ldr	r2, [r4, #12]
 731:../../Drivers/STM32H7xx_HAL_Driver/Src/stm32h7xx_hal_flash_ex.c ****         {
 2204              		.loc 1 731 82 discriminator 1 view .LVU654
 2205 0106 1344     		add	r3, r3, r2
 731:../../Drivers/STM32H7xx_HAL_Driver/Src/stm32h7xx_hal_flash_ex.c ****         {
 2206              		.loc 1 731 9 discriminator 1 view .LVU655
 2207 0108 AB42     		cmp	r3, r5
 2208 010a E0D9     		bls	.L179
 733:../../Drivers/STM32H7xx_HAL_Driver/Src/stm32h7xx_hal_flash_ex.c ****         }
 2209              		.loc 1 733 11 is_stmt 1 discriminator 3 view .LVU656
 2210 010c 0121     		movs	r1, #1
 2211 010e 2846     		mov	r0, r5
 2212 0110 FFF7FEFF 		bl	FLASH_CRC_AddSector
 2213              	.LVL148:
 731:../../Drivers/STM32H7xx_HAL_Driver/Src/stm32h7xx_hal_flash_ex.c ****         {
 2214              		.loc 1 731 103 discriminator 3 view .LVU657
 731:../../Drivers/STM32H7xx_HAL_Driver/Src/stm32h7xx_hal_flash_ex.c ****         {
 2215              		.loc 1 731 115 is_stmt 0 discriminator 3 view .LVU658
 2216 0114 0135     		adds	r5, r5, #1
 2217              	.LVL149:
 731:../../Drivers/STM32H7xx_HAL_Driver/Src/stm32h7xx_hal_flash_ex.c ****         {
 2218              		.loc 1 731 115 discriminator 3 view .LVU659
 2219 0116 F4E7     		b	.L177
 2220              	.LVL150:
 2221              	.L180:
 744:../../Drivers/STM32H7xx_HAL_Driver/Src/stm32h7xx_hal_flash_ex.c ****       }
 2222              		.loc 1 744 9 is_stmt 1 view .LVU660
 2223 0118 0122     		movs	r2, #1
 2224 011a A169     		ldr	r1, [r4, #24]
 2225 011c 6069     		ldr	r0, [r4, #20]
 2226 011e FFF7FEFF 		bl	FLASH_CRC_SelectAddress
 2227              	.LVL151:
 2228 0122 D4E7     		b	.L179
 2229              	.L188:
ARM GAS  /tmp/ccS8U376.s 			page 75


 777:../../Drivers/STM32H7xx_HAL_Driver/Src/stm32h7xx_hal_flash_ex.c **** 
 2230              		.loc 1 777 9 view .LVU661
 777:../../Drivers/STM32H7xx_HAL_Driver/Src/stm32h7xx_hal_flash_ex.c **** 
 2231              		.loc 1 777 23 is_stmt 0 view .LVU662
 2232 0124 0C4A     		ldr	r2, .L190
 2233 0126 D2F85031 		ldr	r3, [r2, #336]
 2234 012a 43F48063 		orr	r3, r3, #1024
 2235 012e C2F85031 		str	r3, [r2, #336]
 780:../../Drivers/STM32H7xx_HAL_Driver/Src/stm32h7xx_hal_flash_ex.c ****         {
 2236              		.loc 1 780 9 is_stmt 1 view .LVU663
 780:../../Drivers/STM32H7xx_HAL_Driver/Src/stm32h7xx_hal_flash_ex.c ****         {
 2237              		.loc 1 780 26 is_stmt 0 view .LVU664
 2238 0132 E568     		ldr	r5, [r4, #12]
 2239              	.LVL152:
 2240              	.L182:
 780:../../Drivers/STM32H7xx_HAL_Driver/Src/stm32h7xx_hal_flash_ex.c ****         {
 2241              		.loc 1 780 46 is_stmt 1 discriminator 1 view .LVU665
 780:../../Drivers/STM32H7xx_HAL_Driver/Src/stm32h7xx_hal_flash_ex.c ****         {
 2242              		.loc 1 780 70 is_stmt 0 discriminator 1 view .LVU666
 2243 0134 2369     		ldr	r3, [r4, #16]
 780:../../Drivers/STM32H7xx_HAL_Driver/Src/stm32h7xx_hal_flash_ex.c ****         {
 2244              		.loc 1 780 92 discriminator 1 view .LVU667
 2245 0136 E268     		ldr	r2, [r4, #12]
 780:../../Drivers/STM32H7xx_HAL_Driver/Src/stm32h7xx_hal_flash_ex.c ****         {
 2246              		.loc 1 780 82 discriminator 1 view .LVU668
 2247 0138 1344     		add	r3, r3, r2
 780:../../Drivers/STM32H7xx_HAL_Driver/Src/stm32h7xx_hal_flash_ex.c ****         {
 2248              		.loc 1 780 9 discriminator 1 view .LVU669
 2249 013a AB42     		cmp	r3, r5
 2250 013c 91D9     		bls	.L184
 782:../../Drivers/STM32H7xx_HAL_Driver/Src/stm32h7xx_hal_flash_ex.c ****         }
 2251              		.loc 1 782 11 is_stmt 1 discriminator 3 view .LVU670
 2252 013e 0221     		movs	r1, #2
 2253 0140 2846     		mov	r0, r5
 2254 0142 FFF7FEFF 		bl	FLASH_CRC_AddSector
 2255              	.LVL153:
 780:../../Drivers/STM32H7xx_HAL_Driver/Src/stm32h7xx_hal_flash_ex.c ****         {
 2256              		.loc 1 780 103 discriminator 3 view .LVU671
 780:../../Drivers/STM32H7xx_HAL_Driver/Src/stm32h7xx_hal_flash_ex.c ****         {
 2257              		.loc 1 780 115 is_stmt 0 discriminator 3 view .LVU672
 2258 0146 0135     		adds	r5, r5, #1
 2259              	.LVL154:
 780:../../Drivers/STM32H7xx_HAL_Driver/Src/stm32h7xx_hal_flash_ex.c ****         {
 2260              		.loc 1 780 115 discriminator 3 view .LVU673
 2261 0148 F4E7     		b	.L182
 2262              	.LVL155:
 2263              	.L185:
 793:../../Drivers/STM32H7xx_HAL_Driver/Src/stm32h7xx_hal_flash_ex.c ****       }
 2264              		.loc 1 793 9 is_stmt 1 view .LVU674
 2265 014a 0222     		movs	r2, #2
 2266 014c A169     		ldr	r1, [r4, #24]
 2267 014e 6069     		ldr	r0, [r4, #20]
 2268 0150 FFF7FEFF 		bl	FLASH_CRC_SelectAddress
 2269              	.LVL156:
 2270 0154 85E7     		b	.L184
 2271              	.L191:
 2272 0156 00BF     		.align	2
ARM GAS  /tmp/ccS8U376.s 			page 76


 2273              	.L190:
 2274 0158 00200052 		.word	1375739904
 2275 015c 00014000 		.word	4194560
 2276              		.cfi_endproc
 2277              	.LFE152:
 2279              		.section	.text.FLASH_Erase_Sector,"ax",%progbits
 2280              		.align	1
 2281              		.global	FLASH_Erase_Sector
 2282              		.syntax unified
 2283              		.thumb
 2284              		.thumb_func
 2285              		.fpu fpv5-d16
 2287              	FLASH_Erase_Sector:
 2288              	.LVL157:
 2289              	.LFB154:
 926:../../Drivers/STM32H7xx_HAL_Driver/Src/stm32h7xx_hal_flash_ex.c ****   assert_param(IS_FLASH_SECTOR(Sector));
 2290              		.loc 1 926 1 view -0
 2291              		.cfi_startproc
 2292              		@ args = 0, pretend = 0, frame = 0
 2293              		@ frame_needed = 0, uses_anonymous_args = 0
 2294              		@ link register save eliminated.
 926:../../Drivers/STM32H7xx_HAL_Driver/Src/stm32h7xx_hal_flash_ex.c ****   assert_param(IS_FLASH_SECTOR(Sector));
 2295              		.loc 1 926 1 is_stmt 0 view .LVU676
 2296 0000 30B4     		push	{r4, r5}
 2297              	.LCFI24:
 2298              		.cfi_def_cfa_offset 8
 2299              		.cfi_offset 4, -8
 2300              		.cfi_offset 5, -4
 927:../../Drivers/STM32H7xx_HAL_Driver/Src/stm32h7xx_hal_flash_ex.c ****   assert_param(IS_FLASH_BANK_EXCLUSIVE(Banks));
 2301              		.loc 1 927 3 is_stmt 1 view .LVU677
 928:../../Drivers/STM32H7xx_HAL_Driver/Src/stm32h7xx_hal_flash_ex.c **** #if defined (FLASH_CR_PSIZE)
 2302              		.loc 1 928 3 view .LVU678
 930:../../Drivers/STM32H7xx_HAL_Driver/Src/stm32h7xx_hal_flash_ex.c **** #else
 2303              		.loc 1 930 3 view .LVU679
 935:../../Drivers/STM32H7xx_HAL_Driver/Src/stm32h7xx_hal_flash_ex.c ****   {
 2304              		.loc 1 935 3 view .LVU680
 935:../../Drivers/STM32H7xx_HAL_Driver/Src/stm32h7xx_hal_flash_ex.c ****   {
 2305              		.loc 1 935 5 is_stmt 0 view .LVU681
 2306 0002 11F0010F 		tst	r1, #1
 2307 0006 0BD0     		beq	.L193
 939:../../Drivers/STM32H7xx_HAL_Driver/Src/stm32h7xx_hal_flash_ex.c **** 
 2308              		.loc 1 939 5 is_stmt 1 view .LVU682
 939:../../Drivers/STM32H7xx_HAL_Driver/Src/stm32h7xx_hal_flash_ex.c **** 
 2309              		.loc 1 939 16 is_stmt 0 view .LVU683
 2310 0008 104C     		ldr	r4, .L196
 2311 000a E368     		ldr	r3, [r4, #12]
 2312 000c 23F4E663 		bic	r3, r3, #1840
 2313 0010 E360     		str	r3, [r4, #12]
 941:../../Drivers/STM32H7xx_HAL_Driver/Src/stm32h7xx_hal_flash_ex.c **** #else
 2314              		.loc 1 941 5 is_stmt 1 view .LVU684
 941:../../Drivers/STM32H7xx_HAL_Driver/Src/stm32h7xx_hal_flash_ex.c **** #else
 2315              		.loc 1 941 16 is_stmt 0 view .LVU685
 2316 0012 E368     		ldr	r3, [r4, #12]
 941:../../Drivers/STM32H7xx_HAL_Driver/Src/stm32h7xx_hal_flash_ex.c **** #else
 2317              		.loc 1 941 48 view .LVU686
 2318 0014 42EA0025 		orr	r5, r2, r0, lsl #8
 941:../../Drivers/STM32H7xx_HAL_Driver/Src/stm32h7xx_hal_flash_ex.c **** #else
ARM GAS  /tmp/ccS8U376.s 			page 77


 2319              		.loc 1 941 16 view .LVU687
 2320 0018 2B43     		orrs	r3, r3, r5
 2321 001a 43F08403 		orr	r3, r3, #132
 2322 001e E360     		str	r3, [r4, #12]
 2323              	.L193:
 951:../../Drivers/STM32H7xx_HAL_Driver/Src/stm32h7xx_hal_flash_ex.c ****   {
 2324              		.loc 1 951 3 is_stmt 1 view .LVU688
 951:../../Drivers/STM32H7xx_HAL_Driver/Src/stm32h7xx_hal_flash_ex.c ****   {
 2325              		.loc 1 951 5 is_stmt 0 view .LVU689
 2326 0020 11F0020F 		tst	r1, #2
 2327 0024 0FD0     		beq	.L192
 955:../../Drivers/STM32H7xx_HAL_Driver/Src/stm32h7xx_hal_flash_ex.c **** 
 2328              		.loc 1 955 5 is_stmt 1 view .LVU690
 955:../../Drivers/STM32H7xx_HAL_Driver/Src/stm32h7xx_hal_flash_ex.c **** 
 2329              		.loc 1 955 16 is_stmt 0 view .LVU691
 2330 0026 0949     		ldr	r1, .L196
 2331              	.LVL158:
 955:../../Drivers/STM32H7xx_HAL_Driver/Src/stm32h7xx_hal_flash_ex.c **** 
 2332              		.loc 1 955 16 view .LVU692
 2333 0028 D1F80C31 		ldr	r3, [r1, #268]
 2334 002c 23F4E663 		bic	r3, r3, #1840
 2335 0030 C1F80C31 		str	r3, [r1, #268]
 957:../../Drivers/STM32H7xx_HAL_Driver/Src/stm32h7xx_hal_flash_ex.c **** #else
 2336              		.loc 1 957 5 is_stmt 1 view .LVU693
 957:../../Drivers/STM32H7xx_HAL_Driver/Src/stm32h7xx_hal_flash_ex.c **** #else
 2337              		.loc 1 957 16 is_stmt 0 view .LVU694
 2338 0034 D1F80C31 		ldr	r3, [r1, #268]
 957:../../Drivers/STM32H7xx_HAL_Driver/Src/stm32h7xx_hal_flash_ex.c **** #else
 2339              		.loc 1 957 49 view .LVU695
 2340 0038 42EA0022 		orr	r2, r2, r0, lsl #8
 2341              	.LVL159:
 957:../../Drivers/STM32H7xx_HAL_Driver/Src/stm32h7xx_hal_flash_ex.c **** #else
 2342              		.loc 1 957 16 view .LVU696
 2343 003c 1A43     		orrs	r2, r2, r3
 2344 003e 42F08402 		orr	r2, r2, #132
 2345 0042 C1F80C21 		str	r2, [r1, #268]
 2346              	.L192:
 966:../../Drivers/STM32H7xx_HAL_Driver/Src/stm32h7xx_hal_flash_ex.c **** 
 2347              		.loc 1 966 1 view .LVU697
 2348 0046 30BC     		pop	{r4, r5}
 2349              	.LCFI25:
 2350              		.cfi_restore 5
 2351              		.cfi_restore 4
 2352              		.cfi_def_cfa_offset 0
 2353 0048 7047     		bx	lr
 2354              	.L197:
 2355 004a 00BF     		.align	2
 2356              	.L196:
 2357 004c 00200052 		.word	1375739904
 2358              		.cfi_endproc
 2359              	.LFE154:
 2361              		.section	.text.HAL_FLASHEx_Erase,"ax",%progbits
 2362              		.align	1
 2363              		.global	HAL_FLASHEx_Erase
 2364              		.syntax unified
 2365              		.thumb
 2366              		.thumb_func
ARM GAS  /tmp/ccS8U376.s 			page 78


 2367              		.fpu fpv5-d16
 2369              	HAL_FLASHEx_Erase:
 2370              	.LVL160:
 2371              	.LFB144:
 177:../../Drivers/STM32H7xx_HAL_Driver/Src/stm32h7xx_hal_flash_ex.c ****   HAL_StatusTypeDef status = HAL_OK;
 2372              		.loc 1 177 1 is_stmt 1 view -0
 2373              		.cfi_startproc
 2374              		@ args = 0, pretend = 0, frame = 0
 2375              		@ frame_needed = 0, uses_anonymous_args = 0
 177:../../Drivers/STM32H7xx_HAL_Driver/Src/stm32h7xx_hal_flash_ex.c ****   HAL_StatusTypeDef status = HAL_OK;
 2376              		.loc 1 177 1 is_stmt 0 view .LVU699
 2377 0000 F8B5     		push	{r3, r4, r5, r6, r7, lr}
 2378              	.LCFI26:
 2379              		.cfi_def_cfa_offset 24
 2380              		.cfi_offset 3, -24
 2381              		.cfi_offset 4, -20
 2382              		.cfi_offset 5, -16
 2383              		.cfi_offset 6, -12
 2384              		.cfi_offset 7, -8
 2385              		.cfi_offset 14, -4
 178:../../Drivers/STM32H7xx_HAL_Driver/Src/stm32h7xx_hal_flash_ex.c ****   uint32_t sector_index;
 2386              		.loc 1 178 3 is_stmt 1 view .LVU700
 2387              	.LVL161:
 179:../../Drivers/STM32H7xx_HAL_Driver/Src/stm32h7xx_hal_flash_ex.c **** 
 2388              		.loc 1 179 3 view .LVU701
 182:../../Drivers/STM32H7xx_HAL_Driver/Src/stm32h7xx_hal_flash_ex.c ****   assert_param(IS_FLASH_BANK(pEraseInit->Banks));
 2389              		.loc 1 182 3 view .LVU702
 183:../../Drivers/STM32H7xx_HAL_Driver/Src/stm32h7xx_hal_flash_ex.c **** 
 2390              		.loc 1 183 3 view .LVU703
 186:../../Drivers/STM32H7xx_HAL_Driver/Src/stm32h7xx_hal_flash_ex.c **** 
 2391              		.loc 1 186 3 view .LVU704
 186:../../Drivers/STM32H7xx_HAL_Driver/Src/stm32h7xx_hal_flash_ex.c **** 
 2392              		.loc 1 186 3 view .LVU705
 2393 0002 474B     		ldr	r3, .L226
 2394 0004 1B7D     		ldrb	r3, [r3, #20]	@ zero_extendqisi2
 2395 0006 012B     		cmp	r3, #1
 2396 0008 00F08880 		beq	.L212
 2397 000c 0446     		mov	r4, r0
 2398 000e 0F46     		mov	r7, r1
 186:../../Drivers/STM32H7xx_HAL_Driver/Src/stm32h7xx_hal_flash_ex.c **** 
 2399              		.loc 1 186 3 discriminator 2 view .LVU706
 2400 0010 434B     		ldr	r3, .L226
 2401 0012 0122     		movs	r2, #1
 2402 0014 1A75     		strb	r2, [r3, #20]
 186:../../Drivers/STM32H7xx_HAL_Driver/Src/stm32h7xx_hal_flash_ex.c **** 
 2403              		.loc 1 186 3 discriminator 2 view .LVU707
 189:../../Drivers/STM32H7xx_HAL_Driver/Src/stm32h7xx_hal_flash_ex.c **** 
 2404              		.loc 1 189 3 discriminator 2 view .LVU708
 189:../../Drivers/STM32H7xx_HAL_Driver/Src/stm32h7xx_hal_flash_ex.c **** 
 2405              		.loc 1 189 20 is_stmt 0 discriminator 2 view .LVU709
 2406 0016 0022     		movs	r2, #0
 2407 0018 9A61     		str	r2, [r3, #24]
 192:../../Drivers/STM32H7xx_HAL_Driver/Src/stm32h7xx_hal_flash_ex.c ****   {
 2408              		.loc 1 192 3 is_stmt 1 discriminator 2 view .LVU710
 192:../../Drivers/STM32H7xx_HAL_Driver/Src/stm32h7xx_hal_flash_ex.c ****   {
 2409              		.loc 1 192 17 is_stmt 0 discriminator 2 view .LVU711
 2410 001a 4368     		ldr	r3, [r0, #4]
ARM GAS  /tmp/ccS8U376.s 			page 79


 192:../../Drivers/STM32H7xx_HAL_Driver/Src/stm32h7xx_hal_flash_ex.c ****   {
 2411              		.loc 1 192 5 discriminator 2 view .LVU712
 2412 001c 13F0010F 		tst	r3, #1
 2413 0020 0DD1     		bne	.L219
 178:../../Drivers/STM32H7xx_HAL_Driver/Src/stm32h7xx_hal_flash_ex.c ****   uint32_t sector_index;
 2414              		.loc 1 178 21 view .LVU713
 2415 0022 0025     		movs	r5, #0
 2416              	.LVL162:
 2417              	.L200:
 202:../../Drivers/STM32H7xx_HAL_Driver/Src/stm32h7xx_hal_flash_ex.c ****   {
 2418              		.loc 1 202 3 is_stmt 1 view .LVU714
 202:../../Drivers/STM32H7xx_HAL_Driver/Src/stm32h7xx_hal_flash_ex.c ****   {
 2419              		.loc 1 202 17 is_stmt 0 view .LVU715
 2420 0024 6368     		ldr	r3, [r4, #4]
 202:../../Drivers/STM32H7xx_HAL_Driver/Src/stm32h7xx_hal_flash_ex.c ****   {
 2421              		.loc 1 202 5 view .LVU716
 2422 0026 13F0020F 		tst	r3, #2
 2423 002a 12D1     		bne	.L220
 2424              	.L201:
 211:../../Drivers/STM32H7xx_HAL_Driver/Src/stm32h7xx_hal_flash_ex.c ****   {
 2425              		.loc 1 211 3 is_stmt 1 view .LVU717
 211:../../Drivers/STM32H7xx_HAL_Driver/Src/stm32h7xx_hal_flash_ex.c ****   {
 2426              		.loc 1 211 5 is_stmt 0 view .LVU718
 2427 002c CDB9     		cbnz	r5, .L202
 213:../../Drivers/STM32H7xx_HAL_Driver/Src/stm32h7xx_hal_flash_ex.c ****     {
 2428              		.loc 1 213 5 is_stmt 1 view .LVU719
 213:../../Drivers/STM32H7xx_HAL_Driver/Src/stm32h7xx_hal_flash_ex.c ****     {
 2429              		.loc 1 213 18 is_stmt 0 view .LVU720
 2430 002e 2368     		ldr	r3, [r4]
 213:../../Drivers/STM32H7xx_HAL_Driver/Src/stm32h7xx_hal_flash_ex.c ****     {
 2431              		.loc 1 213 7 view .LVU721
 2432 0030 012B     		cmp	r3, #1
 2433 0032 1BD0     		beq	.L221
 244:../../Drivers/STM32H7xx_HAL_Driver/Src/stm32h7xx_hal_flash_ex.c **** 
 2434              		.loc 1 244 7 is_stmt 1 view .LVU722
 244:../../Drivers/STM32H7xx_HAL_Driver/Src/stm32h7xx_hal_flash_ex.c **** 
 2435              		.loc 1 244 20 is_stmt 0 view .LVU723
 2436 0034 4FF0FF33 		mov	r3, #-1
 2437 0038 3B60     		str	r3, [r7]
 247:../../Drivers/STM32H7xx_HAL_Driver/Src/stm32h7xx_hal_flash_ex.c ****       {
 2438              		.loc 1 247 7 is_stmt 1 view .LVU724
 247:../../Drivers/STM32H7xx_HAL_Driver/Src/stm32h7xx_hal_flash_ex.c ****       {
 2439              		.loc 1 247 24 is_stmt 0 view .LVU725
 2440 003a A668     		ldr	r6, [r4, #8]
 2441              	.LVL163:
 247:../../Drivers/STM32H7xx_HAL_Driver/Src/stm32h7xx_hal_flash_ex.c ****       {
 2442              		.loc 1 247 7 view .LVU726
 2443 003c 59E0     		b	.L207
 2444              	.LVL164:
 2445              	.L219:
 194:../../Drivers/STM32H7xx_HAL_Driver/Src/stm32h7xx_hal_flash_ex.c ****     {
 2446              		.loc 1 194 5 is_stmt 1 view .LVU727
 194:../../Drivers/STM32H7xx_HAL_Driver/Src/stm32h7xx_hal_flash_ex.c ****     {
 2447              		.loc 1 194 8 is_stmt 0 view .LVU728
 2448 003e 0121     		movs	r1, #1
 2449              	.LVL165:
 194:../../Drivers/STM32H7xx_HAL_Driver/Src/stm32h7xx_hal_flash_ex.c ****     {
ARM GAS  /tmp/ccS8U376.s 			page 80


 2450              		.loc 1 194 8 view .LVU729
 2451 0040 4CF25030 		movw	r0, #50000
 2452              	.LVL166:
 194:../../Drivers/STM32H7xx_HAL_Driver/Src/stm32h7xx_hal_flash_ex.c ****     {
 2453              		.loc 1 194 8 view .LVU730
 2454 0044 FFF7FEFF 		bl	FLASH_WaitForLastOperation
 2455              	.LVL167:
 194:../../Drivers/STM32H7xx_HAL_Driver/Src/stm32h7xx_hal_flash_ex.c ****     {
 2456              		.loc 1 194 7 view .LVU731
 2457 0048 0546     		mov	r5, r0
 2458 004a 0028     		cmp	r0, #0
 2459 004c EAD0     		beq	.L200
 196:../../Drivers/STM32H7xx_HAL_Driver/Src/stm32h7xx_hal_flash_ex.c ****     }
 2460              		.loc 1 196 14 view .LVU732
 2461 004e 0125     		movs	r5, #1
 2462 0050 E8E7     		b	.L200
 2463              	.LVL168:
 2464              	.L220:
 204:../../Drivers/STM32H7xx_HAL_Driver/Src/stm32h7xx_hal_flash_ex.c ****     {
 2465              		.loc 1 204 5 is_stmt 1 view .LVU733
 204:../../Drivers/STM32H7xx_HAL_Driver/Src/stm32h7xx_hal_flash_ex.c ****     {
 2466              		.loc 1 204 8 is_stmt 0 view .LVU734
 2467 0052 0221     		movs	r1, #2
 2468 0054 4CF25030 		movw	r0, #50000
 2469 0058 FFF7FEFF 		bl	FLASH_WaitForLastOperation
 2470              	.LVL169:
 204:../../Drivers/STM32H7xx_HAL_Driver/Src/stm32h7xx_hal_flash_ex.c ****     {
 2471              		.loc 1 204 7 view .LVU735
 2472 005c 0028     		cmp	r0, #0
 2473 005e E5D0     		beq	.L201
 206:../../Drivers/STM32H7xx_HAL_Driver/Src/stm32h7xx_hal_flash_ex.c ****     }
 2474              		.loc 1 206 14 view .LVU736
 2475 0060 0125     		movs	r5, #1
 2476              	.LVL170:
 2477              	.L202:
 281:../../Drivers/STM32H7xx_HAL_Driver/Src/stm32h7xx_hal_flash_ex.c **** 
 2478              		.loc 1 281 3 is_stmt 1 view .LVU737
 281:../../Drivers/STM32H7xx_HAL_Driver/Src/stm32h7xx_hal_flash_ex.c **** 
 2479              		.loc 1 281 3 view .LVU738
 2480 0062 2F4B     		ldr	r3, .L226
 2481 0064 0022     		movs	r2, #0
 2482 0066 1A75     		strb	r2, [r3, #20]
 281:../../Drivers/STM32H7xx_HAL_Driver/Src/stm32h7xx_hal_flash_ex.c **** 
 2483              		.loc 1 281 3 view .LVU739
 283:../../Drivers/STM32H7xx_HAL_Driver/Src/stm32h7xx_hal_flash_ex.c **** }
 2484              		.loc 1 283 3 view .LVU740
 2485              	.LVL171:
 2486              	.L199:
 284:../../Drivers/STM32H7xx_HAL_Driver/Src/stm32h7xx_hal_flash_ex.c **** 
 2487              		.loc 1 284 1 is_stmt 0 view .LVU741
 2488 0068 2846     		mov	r0, r5
 2489 006a F8BD     		pop	{r3, r4, r5, r6, r7, pc}
 2490              	.LVL172:
 2491              	.L221:
 216:../../Drivers/STM32H7xx_HAL_Driver/Src/stm32h7xx_hal_flash_ex.c **** 
 2492              		.loc 1 216 7 is_stmt 1 view .LVU742
 2493 006c 6168     		ldr	r1, [r4, #4]
ARM GAS  /tmp/ccS8U376.s 			page 81


 2494 006e 2069     		ldr	r0, [r4, #16]
 2495 0070 FFF7FEFF 		bl	FLASH_MassErase
 2496              	.LVL173:
 219:../../Drivers/STM32H7xx_HAL_Driver/Src/stm32h7xx_hal_flash_ex.c ****       {
 2497              		.loc 1 219 7 view .LVU743
 219:../../Drivers/STM32H7xx_HAL_Driver/Src/stm32h7xx_hal_flash_ex.c ****       {
 2498              		.loc 1 219 21 is_stmt 0 view .LVU744
 2499 0074 6368     		ldr	r3, [r4, #4]
 219:../../Drivers/STM32H7xx_HAL_Driver/Src/stm32h7xx_hal_flash_ex.c ****       {
 2500              		.loc 1 219 9 view .LVU745
 2501 0076 13F0010F 		tst	r3, #1
 2502 007a 12D1     		bne	.L222
 2503              	.L204:
 230:../../Drivers/STM32H7xx_HAL_Driver/Src/stm32h7xx_hal_flash_ex.c ****       {
 2504              		.loc 1 230 7 is_stmt 1 view .LVU746
 230:../../Drivers/STM32H7xx_HAL_Driver/Src/stm32h7xx_hal_flash_ex.c ****       {
 2505              		.loc 1 230 21 is_stmt 0 view .LVU747
 2506 007c 6368     		ldr	r3, [r4, #4]
 230:../../Drivers/STM32H7xx_HAL_Driver/Src/stm32h7xx_hal_flash_ex.c ****       {
 2507              		.loc 1 230 9 view .LVU748
 2508 007e 13F0020F 		tst	r3, #2
 2509 0082 EED0     		beq	.L202
 232:../../Drivers/STM32H7xx_HAL_Driver/Src/stm32h7xx_hal_flash_ex.c ****         {
 2510              		.loc 1 232 9 is_stmt 1 view .LVU749
 232:../../Drivers/STM32H7xx_HAL_Driver/Src/stm32h7xx_hal_flash_ex.c ****         {
 2511              		.loc 1 232 12 is_stmt 0 view .LVU750
 2512 0084 0221     		movs	r1, #2
 2513 0086 4CF25030 		movw	r0, #50000
 2514 008a FFF7FEFF 		bl	FLASH_WaitForLastOperation
 2515              	.LVL174:
 232:../../Drivers/STM32H7xx_HAL_Driver/Src/stm32h7xx_hal_flash_ex.c ****         {
 2516              		.loc 1 232 11 view .LVU751
 2517 008e 00B1     		cbz	r0, .L206
 234:../../Drivers/STM32H7xx_HAL_Driver/Src/stm32h7xx_hal_flash_ex.c ****         }
 2518              		.loc 1 234 18 view .LVU752
 2519 0090 0125     		movs	r5, #1
 2520              	.LVL175:
 2521              	.L206:
 237:../../Drivers/STM32H7xx_HAL_Driver/Src/stm32h7xx_hal_flash_ex.c ****       }
 2522              		.loc 1 237 9 is_stmt 1 view .LVU753
 237:../../Drivers/STM32H7xx_HAL_Driver/Src/stm32h7xx_hal_flash_ex.c ****       }
 2523              		.loc 1 237 20 is_stmt 0 view .LVU754
 2524 0092 244A     		ldr	r2, .L226+4
 2525 0094 D2F80C31 		ldr	r3, [r2, #268]
 2526 0098 23F00803 		bic	r3, r3, #8
 2527 009c C2F80C31 		str	r3, [r2, #268]
 2528 00a0 DFE7     		b	.L202
 2529              	.L222:
 221:../../Drivers/STM32H7xx_HAL_Driver/Src/stm32h7xx_hal_flash_ex.c ****         {
 2530              		.loc 1 221 9 is_stmt 1 view .LVU755
 221:../../Drivers/STM32H7xx_HAL_Driver/Src/stm32h7xx_hal_flash_ex.c ****         {
 2531              		.loc 1 221 12 is_stmt 0 view .LVU756
 2532 00a2 0121     		movs	r1, #1
 2533 00a4 4CF25030 		movw	r0, #50000
 2534 00a8 FFF7FEFF 		bl	FLASH_WaitForLastOperation
 2535              	.LVL176:
 221:../../Drivers/STM32H7xx_HAL_Driver/Src/stm32h7xx_hal_flash_ex.c ****         {
ARM GAS  /tmp/ccS8U376.s 			page 82


 2536              		.loc 1 221 11 view .LVU757
 2537 00ac 00B1     		cbz	r0, .L205
 223:../../Drivers/STM32H7xx_HAL_Driver/Src/stm32h7xx_hal_flash_ex.c ****         }
 2538              		.loc 1 223 18 view .LVU758
 2539 00ae 0125     		movs	r5, #1
 2540              	.LVL177:
 2541              	.L205:
 226:../../Drivers/STM32H7xx_HAL_Driver/Src/stm32h7xx_hal_flash_ex.c ****       }
 2542              		.loc 1 226 9 is_stmt 1 view .LVU759
 226:../../Drivers/STM32H7xx_HAL_Driver/Src/stm32h7xx_hal_flash_ex.c ****       }
 2543              		.loc 1 226 20 is_stmt 0 view .LVU760
 2544 00b0 1C4A     		ldr	r2, .L226+4
 2545 00b2 D368     		ldr	r3, [r2, #12]
 2546 00b4 23F00803 		bic	r3, r3, #8
 2547 00b8 D360     		str	r3, [r2, #12]
 2548 00ba DFE7     		b	.L204
 2549              	.LVL178:
 2550              	.L224:
 254:../../Drivers/STM32H7xx_HAL_Driver/Src/stm32h7xx_hal_flash_ex.c **** 
 2551              		.loc 1 254 11 is_stmt 1 view .LVU761
 254:../../Drivers/STM32H7xx_HAL_Driver/Src/stm32h7xx_hal_flash_ex.c **** 
 2552              		.loc 1 254 20 is_stmt 0 view .LVU762
 2553 00bc 0121     		movs	r1, #1
 2554 00be 4CF25030 		movw	r0, #50000
 2555 00c2 FFF7FEFF 		bl	FLASH_WaitForLastOperation
 2556              	.LVL179:
 2557 00c6 0546     		mov	r5, r0
 2558              	.LVL180:
 257:../../Drivers/STM32H7xx_HAL_Driver/Src/stm32h7xx_hal_flash_ex.c ****         }
 2559              		.loc 1 257 11 is_stmt 1 view .LVU763
 257:../../Drivers/STM32H7xx_HAL_Driver/Src/stm32h7xx_hal_flash_ex.c ****         }
 2560              		.loc 1 257 22 is_stmt 0 view .LVU764
 2561 00c8 164A     		ldr	r2, .L226+4
 2562 00ca D168     		ldr	r1, [r2, #12]
 2563 00cc 164B     		ldr	r3, .L226+8
 2564 00ce 0B40     		ands	r3, r3, r1
 2565 00d0 D360     		str	r3, [r2, #12]
 2566 00d2 1CE0     		b	.L208
 2567              	.L225:
 263:../../Drivers/STM32H7xx_HAL_Driver/Src/stm32h7xx_hal_flash_ex.c **** 
 2568              		.loc 1 263 11 is_stmt 1 view .LVU765
 263:../../Drivers/STM32H7xx_HAL_Driver/Src/stm32h7xx_hal_flash_ex.c **** 
 2569              		.loc 1 263 20 is_stmt 0 view .LVU766
 2570 00d4 0221     		movs	r1, #2
 2571 00d6 4CF25030 		movw	r0, #50000
 2572 00da FFF7FEFF 		bl	FLASH_WaitForLastOperation
 2573              	.LVL181:
 2574 00de 0546     		mov	r5, r0
 2575              	.LVL182:
 266:../../Drivers/STM32H7xx_HAL_Driver/Src/stm32h7xx_hal_flash_ex.c ****         }
 2576              		.loc 1 266 11 is_stmt 1 view .LVU767
 266:../../Drivers/STM32H7xx_HAL_Driver/Src/stm32h7xx_hal_flash_ex.c ****         }
 2577              		.loc 1 266 22 is_stmt 0 view .LVU768
 2578 00e0 104A     		ldr	r2, .L226+4
 2579 00e2 D2F80C11 		ldr	r1, [r2, #268]
 2580 00e6 104B     		ldr	r3, .L226+8
 2581 00e8 0B40     		ands	r3, r3, r1
ARM GAS  /tmp/ccS8U376.s 			page 83


 2582 00ea C2F80C31 		str	r3, [r2, #268]
 2583              	.L209:
 270:../../Drivers/STM32H7xx_HAL_Driver/Src/stm32h7xx_hal_flash_ex.c ****         {
 2584              		.loc 1 270 9 is_stmt 1 view .LVU769
 270:../../Drivers/STM32H7xx_HAL_Driver/Src/stm32h7xx_hal_flash_ex.c ****         {
 2585              		.loc 1 270 11 is_stmt 0 view .LVU770
 2586 00ee 9DB9     		cbnz	r5, .L223
 247:../../Drivers/STM32H7xx_HAL_Driver/Src/stm32h7xx_hal_flash_ex.c ****       {
 2587              		.loc 1 247 107 is_stmt 1 discriminator 2 view .LVU771
 247:../../Drivers/STM32H7xx_HAL_Driver/Src/stm32h7xx_hal_flash_ex.c ****       {
 2588              		.loc 1 247 119 is_stmt 0 discriminator 2 view .LVU772
 2589 00f0 0136     		adds	r6, r6, #1
 2590              	.LVL183:
 2591              	.L207:
 247:../../Drivers/STM32H7xx_HAL_Driver/Src/stm32h7xx_hal_flash_ex.c ****       {
 2592              		.loc 1 247 46 is_stmt 1 discriminator 1 view .LVU773
 247:../../Drivers/STM32H7xx_HAL_Driver/Src/stm32h7xx_hal_flash_ex.c ****       {
 2593              		.loc 1 247 72 is_stmt 0 discriminator 1 view .LVU774
 2594 00f2 E368     		ldr	r3, [r4, #12]
 247:../../Drivers/STM32H7xx_HAL_Driver/Src/stm32h7xx_hal_flash_ex.c ****       {
 2595              		.loc 1 247 96 discriminator 1 view .LVU775
 2596 00f4 A268     		ldr	r2, [r4, #8]
 247:../../Drivers/STM32H7xx_HAL_Driver/Src/stm32h7xx_hal_flash_ex.c ****       {
 2597              		.loc 1 247 84 discriminator 1 view .LVU776
 2598 00f6 1344     		add	r3, r3, r2
 247:../../Drivers/STM32H7xx_HAL_Driver/Src/stm32h7xx_hal_flash_ex.c ****       {
 2599              		.loc 1 247 7 discriminator 1 view .LVU777
 2600 00f8 B342     		cmp	r3, r6
 2601 00fa B2D9     		bls	.L202
 249:../../Drivers/STM32H7xx_HAL_Driver/Src/stm32h7xx_hal_flash_ex.c **** 
 2602              		.loc 1 249 9 is_stmt 1 view .LVU778
 2603 00fc 2269     		ldr	r2, [r4, #16]
 2604 00fe 6168     		ldr	r1, [r4, #4]
 2605 0100 3046     		mov	r0, r6
 2606 0102 FFF7FEFF 		bl	FLASH_Erase_Sector
 2607              	.LVL184:
 251:../../Drivers/STM32H7xx_HAL_Driver/Src/stm32h7xx_hal_flash_ex.c ****         {
 2608              		.loc 1 251 9 view .LVU779
 251:../../Drivers/STM32H7xx_HAL_Driver/Src/stm32h7xx_hal_flash_ex.c ****         {
 2609              		.loc 1 251 23 is_stmt 0 view .LVU780
 2610 0106 6368     		ldr	r3, [r4, #4]
 251:../../Drivers/STM32H7xx_HAL_Driver/Src/stm32h7xx_hal_flash_ex.c ****         {
 2611              		.loc 1 251 11 view .LVU781
 2612 0108 13F0010F 		tst	r3, #1
 2613 010c D6D1     		bne	.L224
 2614              	.L208:
 260:../../Drivers/STM32H7xx_HAL_Driver/Src/stm32h7xx_hal_flash_ex.c ****         {
 2615              		.loc 1 260 9 is_stmt 1 view .LVU782
 260:../../Drivers/STM32H7xx_HAL_Driver/Src/stm32h7xx_hal_flash_ex.c ****         {
 2616              		.loc 1 260 23 is_stmt 0 view .LVU783
 2617 010e 6368     		ldr	r3, [r4, #4]
 260:../../Drivers/STM32H7xx_HAL_Driver/Src/stm32h7xx_hal_flash_ex.c ****         {
 2618              		.loc 1 260 11 view .LVU784
 2619 0110 13F0020F 		tst	r3, #2
 2620 0114 EBD0     		beq	.L209
 260:../../Drivers/STM32H7xx_HAL_Driver/Src/stm32h7xx_hal_flash_ex.c ****         {
 2621              		.loc 1 260 11 view .LVU785
ARM GAS  /tmp/ccS8U376.s 			page 84


 2622 0116 DDE7     		b	.L225
 2623              	.L223:
 273:../../Drivers/STM32H7xx_HAL_Driver/Src/stm32h7xx_hal_flash_ex.c ****           break;
 2624              		.loc 1 273 11 is_stmt 1 view .LVU786
 273:../../Drivers/STM32H7xx_HAL_Driver/Src/stm32h7xx_hal_flash_ex.c ****           break;
 2625              		.loc 1 273 24 is_stmt 0 view .LVU787
 2626 0118 3E60     		str	r6, [r7]
 274:../../Drivers/STM32H7xx_HAL_Driver/Src/stm32h7xx_hal_flash_ex.c ****         }
 2627              		.loc 1 274 11 is_stmt 1 view .LVU788
 2628 011a A2E7     		b	.L202
 2629              	.LVL185:
 2630              	.L212:
 186:../../Drivers/STM32H7xx_HAL_Driver/Src/stm32h7xx_hal_flash_ex.c **** 
 2631              		.loc 1 186 3 is_stmt 0 view .LVU789
 2632 011c 0225     		movs	r5, #2
 2633 011e A3E7     		b	.L199
 2634              	.L227:
 2635              		.align	2
 2636              	.L226:
 2637 0120 00000000 		.word	pFlash
 2638 0124 00200052 		.word	1375739904
 2639 0128 FBF8FFFF 		.word	-1797
 2640              		.cfi_endproc
 2641              	.LFE144:
 2643              		.section	.text.HAL_FLASHEx_Erase_IT,"ax",%progbits
 2644              		.align	1
 2645              		.global	HAL_FLASHEx_Erase_IT
 2646              		.syntax unified
 2647              		.thumb
 2648              		.thumb_func
 2649              		.fpu fpv5-d16
 2651              	HAL_FLASHEx_Erase_IT:
 2652              	.LVL186:
 2653              	.LFB145:
 294:../../Drivers/STM32H7xx_HAL_Driver/Src/stm32h7xx_hal_flash_ex.c ****   HAL_StatusTypeDef status = HAL_OK;
 2654              		.loc 1 294 1 is_stmt 1 view -0
 2655              		.cfi_startproc
 2656              		@ args = 0, pretend = 0, frame = 0
 2657              		@ frame_needed = 0, uses_anonymous_args = 0
 294:../../Drivers/STM32H7xx_HAL_Driver/Src/stm32h7xx_hal_flash_ex.c ****   HAL_StatusTypeDef status = HAL_OK;
 2658              		.loc 1 294 1 is_stmt 0 view .LVU791
 2659 0000 38B5     		push	{r3, r4, r5, lr}
 2660              	.LCFI27:
 2661              		.cfi_def_cfa_offset 16
 2662              		.cfi_offset 3, -16
 2663              		.cfi_offset 4, -12
 2664              		.cfi_offset 5, -8
 2665              		.cfi_offset 14, -4
 295:../../Drivers/STM32H7xx_HAL_Driver/Src/stm32h7xx_hal_flash_ex.c **** 
 2666              		.loc 1 295 3 is_stmt 1 view .LVU792
 2667              	.LVL187:
 298:../../Drivers/STM32H7xx_HAL_Driver/Src/stm32h7xx_hal_flash_ex.c ****   assert_param(IS_FLASH_BANK(pEraseInit->Banks));
 2668              		.loc 1 298 3 view .LVU793
 299:../../Drivers/STM32H7xx_HAL_Driver/Src/stm32h7xx_hal_flash_ex.c **** 
 2669              		.loc 1 299 3 view .LVU794
 302:../../Drivers/STM32H7xx_HAL_Driver/Src/stm32h7xx_hal_flash_ex.c **** 
 2670              		.loc 1 302 3 view .LVU795
ARM GAS  /tmp/ccS8U376.s 			page 85


 302:../../Drivers/STM32H7xx_HAL_Driver/Src/stm32h7xx_hal_flash_ex.c **** 
 2671              		.loc 1 302 3 view .LVU796
 2672 0002 374B     		ldr	r3, .L253
 2673 0004 1B7D     		ldrb	r3, [r3, #20]	@ zero_extendqisi2
 2674 0006 012B     		cmp	r3, #1
 2675 0008 68D0     		beq	.L242
 2676 000a 0446     		mov	r4, r0
 302:../../Drivers/STM32H7xx_HAL_Driver/Src/stm32h7xx_hal_flash_ex.c **** 
 2677              		.loc 1 302 3 discriminator 2 view .LVU797
 2678 000c 344B     		ldr	r3, .L253
 2679 000e 0122     		movs	r2, #1
 2680 0010 1A75     		strb	r2, [r3, #20]
 302:../../Drivers/STM32H7xx_HAL_Driver/Src/stm32h7xx_hal_flash_ex.c **** 
 2681              		.loc 1 302 3 discriminator 2 view .LVU798
 305:../../Drivers/STM32H7xx_HAL_Driver/Src/stm32h7xx_hal_flash_ex.c **** 
 2682              		.loc 1 305 3 discriminator 2 view .LVU799
 305:../../Drivers/STM32H7xx_HAL_Driver/Src/stm32h7xx_hal_flash_ex.c **** 
 2683              		.loc 1 305 20 is_stmt 0 discriminator 2 view .LVU800
 2684 0012 0022     		movs	r2, #0
 2685 0014 9A61     		str	r2, [r3, #24]
 308:../../Drivers/STM32H7xx_HAL_Driver/Src/stm32h7xx_hal_flash_ex.c ****   {
 2686              		.loc 1 308 3 is_stmt 1 discriminator 2 view .LVU801
 308:../../Drivers/STM32H7xx_HAL_Driver/Src/stm32h7xx_hal_flash_ex.c ****   {
 2687              		.loc 1 308 17 is_stmt 0 discriminator 2 view .LVU802
 2688 0016 4368     		ldr	r3, [r0, #4]
 308:../../Drivers/STM32H7xx_HAL_Driver/Src/stm32h7xx_hal_flash_ex.c ****   {
 2689              		.loc 1 308 5 discriminator 2 view .LVU803
 2690 0018 13F0010F 		tst	r3, #1
 2691 001c 0AD1     		bne	.L247
 295:../../Drivers/STM32H7xx_HAL_Driver/Src/stm32h7xx_hal_flash_ex.c **** 
 2692              		.loc 1 295 21 view .LVU804
 2693 001e 0025     		movs	r5, #0
 2694              	.LVL188:
 2695              	.L230:
 318:../../Drivers/STM32H7xx_HAL_Driver/Src/stm32h7xx_hal_flash_ex.c ****   {
 2696              		.loc 1 318 3 is_stmt 1 view .LVU805
 318:../../Drivers/STM32H7xx_HAL_Driver/Src/stm32h7xx_hal_flash_ex.c ****   {
 2697              		.loc 1 318 17 is_stmt 0 view .LVU806
 2698 0020 6368     		ldr	r3, [r4, #4]
 318:../../Drivers/STM32H7xx_HAL_Driver/Src/stm32h7xx_hal_flash_ex.c ****   {
 2699              		.loc 1 318 5 view .LVU807
 2700 0022 13F0020F 		tst	r3, #2
 2701 0026 0FD1     		bne	.L248
 2702              	.L231:
 327:../../Drivers/STM32H7xx_HAL_Driver/Src/stm32h7xx_hal_flash_ex.c ****   {
 2703              		.loc 1 327 3 is_stmt 1 view .LVU808
 327:../../Drivers/STM32H7xx_HAL_Driver/Src/stm32h7xx_hal_flash_ex.c ****   {
 2704              		.loc 1 327 6 is_stmt 0 view .LVU809
 2705 0028 BDB1     		cbz	r5, .L233
 2706              	.LVL189:
 2707              	.L232:
 330:../../Drivers/STM32H7xx_HAL_Driver/Src/stm32h7xx_hal_flash_ex.c ****   }
 2708              		.loc 1 330 5 is_stmt 1 view .LVU810
 330:../../Drivers/STM32H7xx_HAL_Driver/Src/stm32h7xx_hal_flash_ex.c ****   }
 2709              		.loc 1 330 5 view .LVU811
 2710 002a 2D4B     		ldr	r3, .L253
 2711 002c 0022     		movs	r2, #0
ARM GAS  /tmp/ccS8U376.s 			page 86


 2712 002e 1A75     		strb	r2, [r3, #20]
 330:../../Drivers/STM32H7xx_HAL_Driver/Src/stm32h7xx_hal_flash_ex.c ****   }
 2713              		.loc 1 330 5 view .LVU812
 2714              	.LVL190:
 2715              	.L229:
 405:../../Drivers/STM32H7xx_HAL_Driver/Src/stm32h7xx_hal_flash_ex.c **** 
 2716              		.loc 1 405 1 is_stmt 0 view .LVU813
 2717 0030 2846     		mov	r0, r5
 2718 0032 38BD     		pop	{r3, r4, r5, pc}
 2719              	.LVL191:
 2720              	.L247:
 310:../../Drivers/STM32H7xx_HAL_Driver/Src/stm32h7xx_hal_flash_ex.c ****     {
 2721              		.loc 1 310 5 is_stmt 1 view .LVU814
 310:../../Drivers/STM32H7xx_HAL_Driver/Src/stm32h7xx_hal_flash_ex.c ****     {
 2722              		.loc 1 310 8 is_stmt 0 view .LVU815
 2723 0034 0121     		movs	r1, #1
 2724 0036 4CF25030 		movw	r0, #50000
 2725              	.LVL192:
 310:../../Drivers/STM32H7xx_HAL_Driver/Src/stm32h7xx_hal_flash_ex.c ****     {
 2726              		.loc 1 310 8 view .LVU816
 2727 003a FFF7FEFF 		bl	FLASH_WaitForLastOperation
 2728              	.LVL193:
 310:../../Drivers/STM32H7xx_HAL_Driver/Src/stm32h7xx_hal_flash_ex.c ****     {
 2729              		.loc 1 310 7 view .LVU817
 2730 003e 0546     		mov	r5, r0
 2731 0040 0028     		cmp	r0, #0
 2732 0042 EDD0     		beq	.L230
 312:../../Drivers/STM32H7xx_HAL_Driver/Src/stm32h7xx_hal_flash_ex.c ****     }
 2733              		.loc 1 312 14 view .LVU818
 2734 0044 0125     		movs	r5, #1
 2735 0046 EBE7     		b	.L230
 2736              	.LVL194:
 2737              	.L248:
 320:../../Drivers/STM32H7xx_HAL_Driver/Src/stm32h7xx_hal_flash_ex.c ****     {
 2738              		.loc 1 320 5 is_stmt 1 view .LVU819
 320:../../Drivers/STM32H7xx_HAL_Driver/Src/stm32h7xx_hal_flash_ex.c ****     {
 2739              		.loc 1 320 8 is_stmt 0 view .LVU820
 2740 0048 0221     		movs	r1, #2
 2741 004a 4CF25030 		movw	r0, #50000
 2742 004e FFF7FEFF 		bl	FLASH_WaitForLastOperation
 2743              	.LVL195:
 320:../../Drivers/STM32H7xx_HAL_Driver/Src/stm32h7xx_hal_flash_ex.c ****     {
 2744              		.loc 1 320 7 view .LVU821
 2745 0052 0028     		cmp	r0, #0
 2746 0054 E8D0     		beq	.L231
 322:../../Drivers/STM32H7xx_HAL_Driver/Src/stm32h7xx_hal_flash_ex.c ****     }
 2747              		.loc 1 322 14 view .LVU822
 2748 0056 0125     		movs	r5, #1
 2749              	.LVL196:
 322:../../Drivers/STM32H7xx_HAL_Driver/Src/stm32h7xx_hal_flash_ex.c ****     }
 2750              		.loc 1 322 14 view .LVU823
 2751 0058 E7E7     		b	.L232
 2752              	.LVL197:
 2753              	.L233:
 334:../../Drivers/STM32H7xx_HAL_Driver/Src/stm32h7xx_hal_flash_ex.c ****     {
 2754              		.loc 1 334 5 is_stmt 1 view .LVU824
 334:../../Drivers/STM32H7xx_HAL_Driver/Src/stm32h7xx_hal_flash_ex.c ****     {
ARM GAS  /tmp/ccS8U376.s 			page 87


 2755              		.loc 1 334 19 is_stmt 0 view .LVU825
 2756 005a 6368     		ldr	r3, [r4, #4]
 334:../../Drivers/STM32H7xx_HAL_Driver/Src/stm32h7xx_hal_flash_ex.c ****     {
 2757              		.loc 1 334 7 view .LVU826
 2758 005c 13F0010F 		tst	r3, #1
 2759 0060 04D0     		beq	.L234
 338:../../Drivers/STM32H7xx_HAL_Driver/Src/stm32h7xx_hal_flash_ex.c ****                                   FLASH_IT_STRBERR_BANK1 | FLASH_IT_INCERR_BANK1 | FLASH_IT_OPERR_B
 2760              		.loc 1 338 7 is_stmt 1 view .LVU827
 2761 0062 204A     		ldr	r2, .L253+4
 2762 0064 D368     		ldr	r3, [r2, #12]
 2763 0066 43F4DE03 		orr	r3, r3, #7274496
 2764 006a D360     		str	r3, [r2, #12]
 2765              	.L234:
 346:../../Drivers/STM32H7xx_HAL_Driver/Src/stm32h7xx_hal_flash_ex.c ****     {
 2766              		.loc 1 346 5 view .LVU828
 346:../../Drivers/STM32H7xx_HAL_Driver/Src/stm32h7xx_hal_flash_ex.c ****     {
 2767              		.loc 1 346 19 is_stmt 0 view .LVU829
 2768 006c 6368     		ldr	r3, [r4, #4]
 346:../../Drivers/STM32H7xx_HAL_Driver/Src/stm32h7xx_hal_flash_ex.c ****     {
 2769              		.loc 1 346 7 view .LVU830
 2770 006e 13F0020F 		tst	r3, #2
 2771 0072 06D0     		beq	.L235
 350:../../Drivers/STM32H7xx_HAL_Driver/Src/stm32h7xx_hal_flash_ex.c ****                                   FLASH_IT_STRBERR_BANK2 | FLASH_IT_INCERR_BANK2 | FLASH_IT_OPERR_B
 2772              		.loc 1 350 7 is_stmt 1 view .LVU831
 2773 0074 1B4A     		ldr	r2, .L253+4
 2774 0076 D2F80C31 		ldr	r3, [r2, #268]
 2775 007a 43F4DE03 		orr	r3, r3, #7274496
 2776 007e C2F80C31 		str	r3, [r2, #268]
 2777              	.L235:
 359:../../Drivers/STM32H7xx_HAL_Driver/Src/stm32h7xx_hal_flash_ex.c ****     {
 2778              		.loc 1 359 5 view .LVU832
 359:../../Drivers/STM32H7xx_HAL_Driver/Src/stm32h7xx_hal_flash_ex.c ****     {
 2779              		.loc 1 359 18 is_stmt 0 view .LVU833
 2780 0082 2368     		ldr	r3, [r4]
 359:../../Drivers/STM32H7xx_HAL_Driver/Src/stm32h7xx_hal_flash_ex.c ****     {
 2781              		.loc 1 359 7 view .LVU834
 2782 0084 012B     		cmp	r3, #1
 2783 0086 11D0     		beq	.L249
 383:../../Drivers/STM32H7xx_HAL_Driver/Src/stm32h7xx_hal_flash_ex.c ****       {
 2784              		.loc 1 383 7 is_stmt 1 view .LVU835
 383:../../Drivers/STM32H7xx_HAL_Driver/Src/stm32h7xx_hal_flash_ex.c ****       {
 2785              		.loc 1 383 20 is_stmt 0 view .LVU836
 2786 0088 6368     		ldr	r3, [r4, #4]
 383:../../Drivers/STM32H7xx_HAL_Driver/Src/stm32h7xx_hal_flash_ex.c ****       {
 2787              		.loc 1 383 9 view .LVU837
 2788 008a 012B     		cmp	r3, #1
 2789 008c 22D0     		beq	.L250
 389:../../Drivers/STM32H7xx_HAL_Driver/Src/stm32h7xx_hal_flash_ex.c ****       }
 2790              		.loc 1 389 9 is_stmt 1 view .LVU838
 389:../../Drivers/STM32H7xx_HAL_Driver/Src/stm32h7xx_hal_flash_ex.c ****       }
 2791              		.loc 1 389 33 is_stmt 0 view .LVU839
 2792 008e 144B     		ldr	r3, .L253
 2793 0090 0422     		movs	r2, #4
 2794 0092 1A70     		strb	r2, [r3]
 2795              	.L241:
 395:../../Drivers/STM32H7xx_HAL_Driver/Src/stm32h7xx_hal_flash_ex.c ****       pFlash.Sector = pEraseInit->Sector;
 2796              		.loc 1 395 7 is_stmt 1 view .LVU840
ARM GAS  /tmp/ccS8U376.s 			page 88


 395:../../Drivers/STM32H7xx_HAL_Driver/Src/stm32h7xx_hal_flash_ex.c ****       pFlash.Sector = pEraseInit->Sector;
 2797              		.loc 1 395 43 is_stmt 0 view .LVU841
 2798 0094 E268     		ldr	r2, [r4, #12]
 395:../../Drivers/STM32H7xx_HAL_Driver/Src/stm32h7xx_hal_flash_ex.c ****       pFlash.Sector = pEraseInit->Sector;
 2799              		.loc 1 395 31 view .LVU842
 2800 0096 124B     		ldr	r3, .L253
 2801 0098 5A60     		str	r2, [r3, #4]
 396:../../Drivers/STM32H7xx_HAL_Driver/Src/stm32h7xx_hal_flash_ex.c ****       pFlash.VoltageForErase = pEraseInit->VoltageRange;
 2802              		.loc 1 396 7 is_stmt 1 view .LVU843
 396:../../Drivers/STM32H7xx_HAL_Driver/Src/stm32h7xx_hal_flash_ex.c ****       pFlash.VoltageForErase = pEraseInit->VoltageRange;
 2803              		.loc 1 396 33 is_stmt 0 view .LVU844
 2804 009a A268     		ldr	r2, [r4, #8]
 396:../../Drivers/STM32H7xx_HAL_Driver/Src/stm32h7xx_hal_flash_ex.c ****       pFlash.VoltageForErase = pEraseInit->VoltageRange;
 2805              		.loc 1 396 21 view .LVU845
 2806 009c DA60     		str	r2, [r3, #12]
 397:../../Drivers/STM32H7xx_HAL_Driver/Src/stm32h7xx_hal_flash_ex.c **** 
 2807              		.loc 1 397 7 is_stmt 1 view .LVU846
 397:../../Drivers/STM32H7xx_HAL_Driver/Src/stm32h7xx_hal_flash_ex.c **** 
 2808              		.loc 1 397 42 is_stmt 0 view .LVU847
 2809 009e 2269     		ldr	r2, [r4, #16]
 397:../../Drivers/STM32H7xx_HAL_Driver/Src/stm32h7xx_hal_flash_ex.c **** 
 2810              		.loc 1 397 30 view .LVU848
 2811 00a0 9A60     		str	r2, [r3, #8]
 400:../../Drivers/STM32H7xx_HAL_Driver/Src/stm32h7xx_hal_flash_ex.c ****     }
 2812              		.loc 1 400 7 is_stmt 1 view .LVU849
 2813 00a2 6168     		ldr	r1, [r4, #4]
 2814 00a4 A068     		ldr	r0, [r4, #8]
 2815 00a6 FFF7FEFF 		bl	FLASH_Erase_Sector
 2816              	.LVL198:
 2817 00aa C1E7     		b	.L229
 2818              	.L249:
 362:../../Drivers/STM32H7xx_HAL_Driver/Src/stm32h7xx_hal_flash_ex.c ****       {
 2819              		.loc 1 362 7 view .LVU850
 362:../../Drivers/STM32H7xx_HAL_Driver/Src/stm32h7xx_hal_flash_ex.c ****       {
 2820              		.loc 1 362 20 is_stmt 0 view .LVU851
 2821 00ac 6168     		ldr	r1, [r4, #4]
 362:../../Drivers/STM32H7xx_HAL_Driver/Src/stm32h7xx_hal_flash_ex.c ****       {
 2822              		.loc 1 362 9 view .LVU852
 2823 00ae 0129     		cmp	r1, #1
 2824 00b0 08D0     		beq	.L251
 367:../../Drivers/STM32H7xx_HAL_Driver/Src/stm32h7xx_hal_flash_ex.c ****       {
 2825              		.loc 1 367 12 is_stmt 1 view .LVU853
 367:../../Drivers/STM32H7xx_HAL_Driver/Src/stm32h7xx_hal_flash_ex.c ****       {
 2826              		.loc 1 367 14 is_stmt 0 view .LVU854
 2827 00b2 0229     		cmp	r1, #2
 2828 00b4 0AD0     		beq	.L252
 374:../../Drivers/STM32H7xx_HAL_Driver/Src/stm32h7xx_hal_flash_ex.c ****       }
 2829              		.loc 1 374 9 is_stmt 1 view .LVU855
 374:../../Drivers/STM32H7xx_HAL_Driver/Src/stm32h7xx_hal_flash_ex.c ****       }
 2830              		.loc 1 374 33 is_stmt 0 view .LVU856
 2831 00b6 0A4B     		ldr	r3, .L253
 2832 00b8 0722     		movs	r2, #7
 2833 00ba 1A70     		strb	r2, [r3]
 2834              	.L238:
 377:../../Drivers/STM32H7xx_HAL_Driver/Src/stm32h7xx_hal_flash_ex.c ****     }
 2835              		.loc 1 377 7 is_stmt 1 view .LVU857
 2836 00bc 2069     		ldr	r0, [r4, #16]
ARM GAS  /tmp/ccS8U376.s 			page 89


 2837 00be FFF7FEFF 		bl	FLASH_MassErase
 2838              	.LVL199:
 2839 00c2 B5E7     		b	.L229
 2840              	.L251:
 364:../../Drivers/STM32H7xx_HAL_Driver/Src/stm32h7xx_hal_flash_ex.c ****       }
 2841              		.loc 1 364 9 view .LVU858
 364:../../Drivers/STM32H7xx_HAL_Driver/Src/stm32h7xx_hal_flash_ex.c ****       }
 2842              		.loc 1 364 33 is_stmt 0 view .LVU859
 2843 00c4 064B     		ldr	r3, .L253
 2844 00c6 0222     		movs	r2, #2
 2845 00c8 1A70     		strb	r2, [r3]
 2846 00ca F7E7     		b	.L238
 2847              	.L252:
 369:../../Drivers/STM32H7xx_HAL_Driver/Src/stm32h7xx_hal_flash_ex.c ****       }
 2848              		.loc 1 369 9 is_stmt 1 view .LVU860
 369:../../Drivers/STM32H7xx_HAL_Driver/Src/stm32h7xx_hal_flash_ex.c ****       }
 2849              		.loc 1 369 33 is_stmt 0 view .LVU861
 2850 00cc 044B     		ldr	r3, .L253
 2851 00ce 0522     		movs	r2, #5
 2852 00d0 1A70     		strb	r2, [r3]
 2853 00d2 F3E7     		b	.L238
 2854              	.L250:
 385:../../Drivers/STM32H7xx_HAL_Driver/Src/stm32h7xx_hal_flash_ex.c ****       }
 2855              		.loc 1 385 9 is_stmt 1 view .LVU862
 385:../../Drivers/STM32H7xx_HAL_Driver/Src/stm32h7xx_hal_flash_ex.c ****       }
 2856              		.loc 1 385 33 is_stmt 0 view .LVU863
 2857 00d4 024B     		ldr	r3, .L253
 2858 00d6 0122     		movs	r2, #1
 2859 00d8 1A70     		strb	r2, [r3]
 2860 00da DBE7     		b	.L241
 2861              	.LVL200:
 2862              	.L242:
 302:../../Drivers/STM32H7xx_HAL_Driver/Src/stm32h7xx_hal_flash_ex.c **** 
 2863              		.loc 1 302 3 view .LVU864
 2864 00dc 0225     		movs	r5, #2
 2865 00de A7E7     		b	.L229
 2866              	.L254:
 2867              		.align	2
 2868              	.L253:
 2869 00e0 00000000 		.word	pFlash
 2870 00e4 00200052 		.word	1375739904
 2871              		.cfi_endproc
 2872              	.LFE145:
 2874              		.text
 2875              	.Letext0:
 2876              		.file 2 "/home/im/Programs/gcc-arm-none-eabi/gcc-arm-none-eabi-9-2020-q2-update/arm-none-eabi/incl
 2877              		.file 3 "/home/im/Programs/gcc-arm-none-eabi/gcc-arm-none-eabi-9-2020-q2-update/arm-none-eabi/incl
 2878              		.file 4 "../../Drivers/CMSIS/Include/core_cm7.h"
 2879              		.file 5 "../../Drivers/CMSIS/Device/ST/STM32H7xx/Include/system_stm32h7xx.h"
 2880              		.file 6 "../../Drivers/CMSIS/Device/ST/STM32H7xx/Include/stm32h747xx.h"
 2881              		.file 7 "/home/im/Programs/gcc-arm-none-eabi/gcc-arm-none-eabi-9-2020-q2-update/lib/gcc/arm-none-e
 2882              		.file 8 "/home/im/Programs/gcc-arm-none-eabi/gcc-arm-none-eabi-9-2020-q2-update/arm-none-eabi/incl
 2883              		.file 9 "/home/im/Programs/gcc-arm-none-eabi/gcc-arm-none-eabi-9-2020-q2-update/arm-none-eabi/incl
 2884              		.file 10 "/home/im/Programs/gcc-arm-none-eabi/gcc-arm-none-eabi-9-2020-q2-update/arm-none-eabi/inc
 2885              		.file 11 "/home/im/Programs/gcc-arm-none-eabi/gcc-arm-none-eabi-9-2020-q2-update/arm-none-eabi/inc
 2886              		.file 12 "../../Drivers/STM32H7xx_HAL_Driver/Inc/stm32h7xx_hal_def.h"
 2887              		.file 13 "../../Drivers/STM32H7xx_HAL_Driver/Inc/stm32h7xx_hal_flash.h"
ARM GAS  /tmp/ccS8U376.s 			page 90


 2888              		.file 14 "../../Drivers/STM32H7xx_HAL_Driver/Inc/stm32h7xx_hal_flash_ex.h"
 2889              		.file 15 "../../Drivers/STM32H7xx_HAL_Driver/Inc/stm32h7xx_hal_uart.h"
 2890              		.file 16 "../../Drivers/STM32H7xx_HAL_Driver/Inc/stm32h7xx_hal.h"
ARM GAS  /tmp/ccS8U376.s 			page 91


DEFINED SYMBOLS
                            *ABS*:0000000000000000 stm32h7xx_hal_flash_ex.c
     /tmp/ccS8U376.s:17     .text.FLASH_MassErase:0000000000000000 $t
     /tmp/ccS8U376.s:24     .text.FLASH_MassErase:0000000000000000 FLASH_MassErase
     /tmp/ccS8U376.s:121    .text.FLASH_MassErase:0000000000000084 $d
     /tmp/ccS8U376.s:126    .text.FLASH_OB_EnableWRP:0000000000000000 $t
     /tmp/ccS8U376.s:132    .text.FLASH_OB_EnableWRP:0000000000000000 FLASH_OB_EnableWRP
     /tmp/ccS8U376.s:185    .text.FLASH_OB_EnableWRP:0000000000000030 $d
     /tmp/ccS8U376.s:190    .text.FLASH_OB_DisableWRP:0000000000000000 $t
     /tmp/ccS8U376.s:196    .text.FLASH_OB_DisableWRP:0000000000000000 FLASH_OB_DisableWRP
     /tmp/ccS8U376.s:249    .text.FLASH_OB_DisableWRP:000000000000002c $d
     /tmp/ccS8U376.s:254    .text.FLASH_OB_GetWRP:0000000000000000 $t
     /tmp/ccS8U376.s:260    .text.FLASH_OB_GetWRP:0000000000000000 FLASH_OB_GetWRP
     /tmp/ccS8U376.s:328    .text.FLASH_OB_GetWRP:000000000000002c $d
     /tmp/ccS8U376.s:333    .text.FLASH_OB_RDPConfig:0000000000000000 $t
     /tmp/ccS8U376.s:339    .text.FLASH_OB_RDPConfig:0000000000000000 FLASH_OB_RDPConfig
     /tmp/ccS8U376.s:359    .text.FLASH_OB_RDPConfig:0000000000000010 $d
     /tmp/ccS8U376.s:364    .text.FLASH_OB_GetRDP:0000000000000000 $t
     /tmp/ccS8U376.s:370    .text.FLASH_OB_GetRDP:0000000000000000 FLASH_OB_GetRDP
     /tmp/ccS8U376.s:404    .text.FLASH_OB_GetRDP:000000000000001c $d
     /tmp/ccS8U376.s:409    .text.FLASH_OB_UserConfig:0000000000000000 $t
     /tmp/ccS8U376.s:415    .text.FLASH_OB_UserConfig:0000000000000000 FLASH_OB_UserConfig
     /tmp/ccS8U376.s:682    .text.FLASH_OB_UserConfig:00000000000000f4 $d
     /tmp/ccS8U376.s:687    .text.FLASH_OB_GetUser:0000000000000000 $t
     /tmp/ccS8U376.s:693    .text.FLASH_OB_GetUser:0000000000000000 FLASH_OB_GetUser
     /tmp/ccS8U376.s:716    .text.FLASH_OB_GetUser:000000000000000c $d
     /tmp/ccS8U376.s:722    .text.FLASH_OB_PCROPConfig:0000000000000000 $t
     /tmp/ccS8U376.s:728    .text.FLASH_OB_PCROPConfig:0000000000000000 FLASH_OB_PCROPConfig
     /tmp/ccS8U376.s:807    .text.FLASH_OB_PCROPConfig:0000000000000040 $d
     /tmp/ccS8U376.s:812    .text.FLASH_OB_GetPCROP:0000000000000000 $t
     /tmp/ccS8U376.s:818    .text.FLASH_OB_GetPCROP:0000000000000000 FLASH_OB_GetPCROP
     /tmp/ccS8U376.s:912    .text.FLASH_OB_GetPCROP:0000000000000044 $d
     /tmp/ccS8U376.s:918    .text.FLASH_OB_BOR_LevelConfig:0000000000000000 $t
     /tmp/ccS8U376.s:924    .text.FLASH_OB_BOR_LevelConfig:0000000000000000 FLASH_OB_BOR_LevelConfig
     /tmp/ccS8U376.s:944    .text.FLASH_OB_BOR_LevelConfig:0000000000000010 $d
     /tmp/ccS8U376.s:949    .text.FLASH_OB_GetBOR:0000000000000000 $t
     /tmp/ccS8U376.s:955    .text.FLASH_OB_GetBOR:0000000000000000 FLASH_OB_GetBOR
     /tmp/ccS8U376.s:972    .text.FLASH_OB_GetBOR:000000000000000c $d
     /tmp/ccS8U376.s:977    .text.FLASH_OB_BootAddConfig:0000000000000000 $t
     /tmp/ccS8U376.s:983    .text.FLASH_OB_BootAddConfig:0000000000000000 FLASH_OB_BootAddConfig
     /tmp/ccS8U376.s:1037   .text.FLASH_OB_BootAddConfig:000000000000002c $d
     /tmp/ccS8U376.s:1043   .text.FLASH_OB_GetBootAdd:0000000000000000 $t
     /tmp/ccS8U376.s:1049   .text.FLASH_OB_GetBootAdd:0000000000000000 FLASH_OB_GetBootAdd
     /tmp/ccS8U376.s:1079   .text.FLASH_OB_GetBootAdd:0000000000000010 $d
     /tmp/ccS8U376.s:1085   .text.FLASH_OB_CM4BootAddConfig:0000000000000000 $t
     /tmp/ccS8U376.s:1091   .text.FLASH_OB_CM4BootAddConfig:0000000000000000 FLASH_OB_CM4BootAddConfig
     /tmp/ccS8U376.s:1145   .text.FLASH_OB_CM4BootAddConfig:000000000000002c $d
     /tmp/ccS8U376.s:1151   .text.FLASH_OB_GetCM4BootAdd:0000000000000000 $t
     /tmp/ccS8U376.s:1157   .text.FLASH_OB_GetCM4BootAdd:0000000000000000 FLASH_OB_GetCM4BootAdd
     /tmp/ccS8U376.s:1187   .text.FLASH_OB_GetCM4BootAdd:0000000000000010 $d
     /tmp/ccS8U376.s:1193   .text.FLASH_OB_SecureAreaConfig:0000000000000000 $t
     /tmp/ccS8U376.s:1199   .text.FLASH_OB_SecureAreaConfig:0000000000000000 FLASH_OB_SecureAreaConfig
     /tmp/ccS8U376.s:1282   .text.FLASH_OB_SecureAreaConfig:0000000000000048 $d
     /tmp/ccS8U376.s:1287   .text.FLASH_OB_GetSecureArea:0000000000000000 $t
     /tmp/ccS8U376.s:1293   .text.FLASH_OB_GetSecureArea:0000000000000000 FLASH_OB_GetSecureArea
     /tmp/ccS8U376.s:1387   .text.FLASH_OB_GetSecureArea:0000000000000044 $d
     /tmp/ccS8U376.s:1393   .text.FLASH_CRC_AddSector:0000000000000000 $t
ARM GAS  /tmp/ccS8U376.s 			page 92


     /tmp/ccS8U376.s:1399   .text.FLASH_CRC_AddSector:0000000000000000 FLASH_CRC_AddSector
     /tmp/ccS8U376.s:1448   .text.FLASH_CRC_AddSector:0000000000000038 $d
     /tmp/ccS8U376.s:1453   .text.FLASH_CRC_SelectAddress:0000000000000000 $t
     /tmp/ccS8U376.s:1459   .text.FLASH_CRC_SelectAddress:0000000000000000 FLASH_CRC_SelectAddress
     /tmp/ccS8U376.s:1496   .text.FLASH_CRC_SelectAddress:0000000000000018 $d
     /tmp/ccS8U376.s:1501   .text.HAL_FLASHEx_OBProgram:0000000000000000 $t
     /tmp/ccS8U376.s:1508   .text.HAL_FLASHEx_OBProgram:0000000000000000 HAL_FLASHEx_OBProgram
     /tmp/ccS8U376.s:1720   .text.HAL_FLASHEx_OBProgram:00000000000000ec $d
     /tmp/ccS8U376.s:1725   .text.HAL_FLASHEx_OBGetConfig:0000000000000000 $t
     /tmp/ccS8U376.s:1732   .text.HAL_FLASHEx_OBGetConfig:0000000000000000 HAL_FLASHEx_OBGetConfig
     /tmp/ccS8U376.s:1825   .text.HAL_FLASHEx_Unlock_Bank1:0000000000000000 $t
     /tmp/ccS8U376.s:1832   .text.HAL_FLASHEx_Unlock_Bank1:0000000000000000 HAL_FLASHEx_Unlock_Bank1
     /tmp/ccS8U376.s:1873   .text.HAL_FLASHEx_Unlock_Bank1:000000000000002c $d
     /tmp/ccS8U376.s:1879   .text.HAL_FLASHEx_Lock_Bank1:0000000000000000 $t
     /tmp/ccS8U376.s:1886   .text.HAL_FLASHEx_Lock_Bank1:0000000000000000 HAL_FLASHEx_Lock_Bank1
     /tmp/ccS8U376.s:1905   .text.HAL_FLASHEx_Lock_Bank1:0000000000000010 $d
     /tmp/ccS8U376.s:1910   .text.HAL_FLASHEx_Unlock_Bank2:0000000000000000 $t
     /tmp/ccS8U376.s:1917   .text.HAL_FLASHEx_Unlock_Bank2:0000000000000000 HAL_FLASHEx_Unlock_Bank2
     /tmp/ccS8U376.s:1958   .text.HAL_FLASHEx_Unlock_Bank2:0000000000000034 $d
     /tmp/ccS8U376.s:1964   .text.HAL_FLASHEx_Lock_Bank2:0000000000000000 $t
     /tmp/ccS8U376.s:1971   .text.HAL_FLASHEx_Lock_Bank2:0000000000000000 HAL_FLASHEx_Lock_Bank2
     /tmp/ccS8U376.s:1990   .text.HAL_FLASHEx_Lock_Bank2:0000000000000014 $d
     /tmp/ccS8U376.s:1995   .text.HAL_FLASHEx_ComputeCRC:0000000000000000 $t
     /tmp/ccS8U376.s:2002   .text.HAL_FLASHEx_ComputeCRC:0000000000000000 HAL_FLASHEx_ComputeCRC
     /tmp/ccS8U376.s:2274   .text.HAL_FLASHEx_ComputeCRC:0000000000000158 $d
     /tmp/ccS8U376.s:2280   .text.FLASH_Erase_Sector:0000000000000000 $t
     /tmp/ccS8U376.s:2287   .text.FLASH_Erase_Sector:0000000000000000 FLASH_Erase_Sector
     /tmp/ccS8U376.s:2357   .text.FLASH_Erase_Sector:000000000000004c $d
     /tmp/ccS8U376.s:2362   .text.HAL_FLASHEx_Erase:0000000000000000 $t
     /tmp/ccS8U376.s:2369   .text.HAL_FLASHEx_Erase:0000000000000000 HAL_FLASHEx_Erase
     /tmp/ccS8U376.s:2637   .text.HAL_FLASHEx_Erase:0000000000000120 $d
     /tmp/ccS8U376.s:2644   .text.HAL_FLASHEx_Erase_IT:0000000000000000 $t
     /tmp/ccS8U376.s:2651   .text.HAL_FLASHEx_Erase_IT:0000000000000000 HAL_FLASHEx_Erase_IT
     /tmp/ccS8U376.s:2869   .text.HAL_FLASHEx_Erase_IT:00000000000000e0 $d

UNDEFINED SYMBOLS
FLASH_WaitForLastOperation
pFlash
FLASH_OB_WaitForLastOperation
FLASH_CRC_WaitForLastOperation
