ARM GAS  /tmp/ccJ8mj6U.s 			page 1


   1              		.cpu cortex-m7
   2              		.eabi_attribute 28, 1
   3              		.eabi_attribute 20, 1
   4              		.eabi_attribute 21, 1
   5              		.eabi_attribute 23, 3
   6              		.eabi_attribute 24, 1
   7              		.eabi_attribute 25, 1
   8              		.eabi_attribute 26, 1
   9              		.eabi_attribute 30, 1
  10              		.eabi_attribute 34, 1
  11              		.eabi_attribute 18, 4
  12              		.file	"stm32h7xx_hal.c"
  13              		.text
  14              	.Ltext0:
  15              		.cfi_sections	.debug_frame
  16              		.section	.text.HAL_MspInit,"ax",%progbits
  17              		.align	1
  18              		.weak	HAL_MspInit
  19              		.arch armv7e-m
  20              		.syntax unified
  21              		.thumb
  22              		.thumb_func
  23              		.fpu fpv5-d16
  25              	HAL_MspInit:
  26              	.LFB146:
  27              		.file 1 "../../Drivers/STM32H7xx_HAL_Driver/Src/stm32h7xx_hal.c"
   1:../../Drivers/STM32H7xx_HAL_Driver/Src/stm32h7xx_hal.c **** /**
   2:../../Drivers/STM32H7xx_HAL_Driver/Src/stm32h7xx_hal.c ****   ******************************************************************************
   3:../../Drivers/STM32H7xx_HAL_Driver/Src/stm32h7xx_hal.c ****   * @file    stm32h7xx_hal.c
   4:../../Drivers/STM32H7xx_HAL_Driver/Src/stm32h7xx_hal.c ****   * @author  MCD Application Team
   5:../../Drivers/STM32H7xx_HAL_Driver/Src/stm32h7xx_hal.c ****   * @brief   HAL module driver.
   6:../../Drivers/STM32H7xx_HAL_Driver/Src/stm32h7xx_hal.c ****   *          This is the common part of the HAL initialization
   7:../../Drivers/STM32H7xx_HAL_Driver/Src/stm32h7xx_hal.c ****   *
   8:../../Drivers/STM32H7xx_HAL_Driver/Src/stm32h7xx_hal.c ****   ******************************************************************************
   9:../../Drivers/STM32H7xx_HAL_Driver/Src/stm32h7xx_hal.c ****   * @attention
  10:../../Drivers/STM32H7xx_HAL_Driver/Src/stm32h7xx_hal.c ****   *
  11:../../Drivers/STM32H7xx_HAL_Driver/Src/stm32h7xx_hal.c ****   * Copyright (c) 2017 STMicroelectronics.
  12:../../Drivers/STM32H7xx_HAL_Driver/Src/stm32h7xx_hal.c ****   * All rights reserved.
  13:../../Drivers/STM32H7xx_HAL_Driver/Src/stm32h7xx_hal.c ****   *
  14:../../Drivers/STM32H7xx_HAL_Driver/Src/stm32h7xx_hal.c ****   * This software is licensed under terms that can be found in the LICENSE file
  15:../../Drivers/STM32H7xx_HAL_Driver/Src/stm32h7xx_hal.c ****   * in the root directory of this software component.
  16:../../Drivers/STM32H7xx_HAL_Driver/Src/stm32h7xx_hal.c ****   * If no LICENSE file comes with this software, it is provided AS-IS.
  17:../../Drivers/STM32H7xx_HAL_Driver/Src/stm32h7xx_hal.c ****   *
  18:../../Drivers/STM32H7xx_HAL_Driver/Src/stm32h7xx_hal.c ****   ******************************************************************************
  19:../../Drivers/STM32H7xx_HAL_Driver/Src/stm32h7xx_hal.c ****   @verbatim
  20:../../Drivers/STM32H7xx_HAL_Driver/Src/stm32h7xx_hal.c ****   ==============================================================================
  21:../../Drivers/STM32H7xx_HAL_Driver/Src/stm32h7xx_hal.c ****                      ##### How to use this driver #####
  22:../../Drivers/STM32H7xx_HAL_Driver/Src/stm32h7xx_hal.c ****   ==============================================================================
  23:../../Drivers/STM32H7xx_HAL_Driver/Src/stm32h7xx_hal.c ****     [..]
  24:../../Drivers/STM32H7xx_HAL_Driver/Src/stm32h7xx_hal.c ****     The common HAL driver contains a set of generic and common APIs that can be
  25:../../Drivers/STM32H7xx_HAL_Driver/Src/stm32h7xx_hal.c ****     used by the PPP peripheral drivers and the user to start using the HAL.
  26:../../Drivers/STM32H7xx_HAL_Driver/Src/stm32h7xx_hal.c ****     [..]
  27:../../Drivers/STM32H7xx_HAL_Driver/Src/stm32h7xx_hal.c ****     The HAL contains two APIs' categories:
  28:../../Drivers/STM32H7xx_HAL_Driver/Src/stm32h7xx_hal.c ****          (+) Common HAL APIs
  29:../../Drivers/STM32H7xx_HAL_Driver/Src/stm32h7xx_hal.c ****          (+) Services HAL APIs
  30:../../Drivers/STM32H7xx_HAL_Driver/Src/stm32h7xx_hal.c **** 
  31:../../Drivers/STM32H7xx_HAL_Driver/Src/stm32h7xx_hal.c ****   @endverbatim
ARM GAS  /tmp/ccJ8mj6U.s 			page 2


  32:../../Drivers/STM32H7xx_HAL_Driver/Src/stm32h7xx_hal.c ****   ******************************************************************************
  33:../../Drivers/STM32H7xx_HAL_Driver/Src/stm32h7xx_hal.c ****   */
  34:../../Drivers/STM32H7xx_HAL_Driver/Src/stm32h7xx_hal.c **** 
  35:../../Drivers/STM32H7xx_HAL_Driver/Src/stm32h7xx_hal.c **** /* Includes ------------------------------------------------------------------*/
  36:../../Drivers/STM32H7xx_HAL_Driver/Src/stm32h7xx_hal.c **** #include "stm32h7xx_hal.h"
  37:../../Drivers/STM32H7xx_HAL_Driver/Src/stm32h7xx_hal.c **** 
  38:../../Drivers/STM32H7xx_HAL_Driver/Src/stm32h7xx_hal.c **** /** @addtogroup STM32H7xx_HAL_Driver
  39:../../Drivers/STM32H7xx_HAL_Driver/Src/stm32h7xx_hal.c ****   * @{
  40:../../Drivers/STM32H7xx_HAL_Driver/Src/stm32h7xx_hal.c ****   */
  41:../../Drivers/STM32H7xx_HAL_Driver/Src/stm32h7xx_hal.c **** 
  42:../../Drivers/STM32H7xx_HAL_Driver/Src/stm32h7xx_hal.c **** /** @defgroup HAL  HAL
  43:../../Drivers/STM32H7xx_HAL_Driver/Src/stm32h7xx_hal.c ****   * @brief HAL module driver.
  44:../../Drivers/STM32H7xx_HAL_Driver/Src/stm32h7xx_hal.c ****   * @{
  45:../../Drivers/STM32H7xx_HAL_Driver/Src/stm32h7xx_hal.c ****   */
  46:../../Drivers/STM32H7xx_HAL_Driver/Src/stm32h7xx_hal.c **** 
  47:../../Drivers/STM32H7xx_HAL_Driver/Src/stm32h7xx_hal.c **** /* Private typedef -----------------------------------------------------------*/
  48:../../Drivers/STM32H7xx_HAL_Driver/Src/stm32h7xx_hal.c **** /* Private define ------------------------------------------------------------*/
  49:../../Drivers/STM32H7xx_HAL_Driver/Src/stm32h7xx_hal.c **** /**
  50:../../Drivers/STM32H7xx_HAL_Driver/Src/stm32h7xx_hal.c ****  * @brief STM32H7xx HAL Driver version number V1.11.1
  51:../../Drivers/STM32H7xx_HAL_Driver/Src/stm32h7xx_hal.c ****    */
  52:../../Drivers/STM32H7xx_HAL_Driver/Src/stm32h7xx_hal.c **** #define __STM32H7xx_HAL_VERSION_MAIN   (0x01UL) /*!< [31:24] main version */
  53:../../Drivers/STM32H7xx_HAL_Driver/Src/stm32h7xx_hal.c **** #define __STM32H7xx_HAL_VERSION_SUB1   (0x0BUL) /*!< [23:16] sub1 version */
  54:../../Drivers/STM32H7xx_HAL_Driver/Src/stm32h7xx_hal.c **** #define __STM32H7xx_HAL_VERSION_SUB2   (0x01UL) /*!< [15:8]  sub2 version */
  55:../../Drivers/STM32H7xx_HAL_Driver/Src/stm32h7xx_hal.c **** #define __STM32H7xx_HAL_VERSION_RC     (0x00UL) /*!< [7:0]  release candidate */
  56:../../Drivers/STM32H7xx_HAL_Driver/Src/stm32h7xx_hal.c **** #define __STM32H7xx_HAL_VERSION         ((__STM32H7xx_HAL_VERSION_MAIN << 24)\
  57:../../Drivers/STM32H7xx_HAL_Driver/Src/stm32h7xx_hal.c ****                                         |(__STM32H7xx_HAL_VERSION_SUB1 << 16)\
  58:../../Drivers/STM32H7xx_HAL_Driver/Src/stm32h7xx_hal.c ****                                         |(__STM32H7xx_HAL_VERSION_SUB2 << 8 )\
  59:../../Drivers/STM32H7xx_HAL_Driver/Src/stm32h7xx_hal.c ****                                         |(__STM32H7xx_HAL_VERSION_RC))
  60:../../Drivers/STM32H7xx_HAL_Driver/Src/stm32h7xx_hal.c **** 
  61:../../Drivers/STM32H7xx_HAL_Driver/Src/stm32h7xx_hal.c **** #define IDCODE_DEVID_MASK    ((uint32_t)0x00000FFF)
  62:../../Drivers/STM32H7xx_HAL_Driver/Src/stm32h7xx_hal.c **** #define VREFBUF_TIMEOUT_VALUE     (uint32_t)10   /* 10 ms  */
  63:../../Drivers/STM32H7xx_HAL_Driver/Src/stm32h7xx_hal.c **** 
  64:../../Drivers/STM32H7xx_HAL_Driver/Src/stm32h7xx_hal.c **** /* Private macro -------------------------------------------------------------*/
  65:../../Drivers/STM32H7xx_HAL_Driver/Src/stm32h7xx_hal.c **** /* Private variables ---------------------------------------------------------*/
  66:../../Drivers/STM32H7xx_HAL_Driver/Src/stm32h7xx_hal.c **** /* Exported variables --------------------------------------------------------*/
  67:../../Drivers/STM32H7xx_HAL_Driver/Src/stm32h7xx_hal.c **** 
  68:../../Drivers/STM32H7xx_HAL_Driver/Src/stm32h7xx_hal.c **** /** @defgroup HAL_Exported_Variables HAL Exported Variables
  69:../../Drivers/STM32H7xx_HAL_Driver/Src/stm32h7xx_hal.c ****   * @{
  70:../../Drivers/STM32H7xx_HAL_Driver/Src/stm32h7xx_hal.c ****   */
  71:../../Drivers/STM32H7xx_HAL_Driver/Src/stm32h7xx_hal.c **** __IO uint32_t uwTick;
  72:../../Drivers/STM32H7xx_HAL_Driver/Src/stm32h7xx_hal.c **** uint32_t uwTickPrio   = (1UL << __NVIC_PRIO_BITS); /* Invalid PRIO */
  73:../../Drivers/STM32H7xx_HAL_Driver/Src/stm32h7xx_hal.c **** HAL_TickFreqTypeDef uwTickFreq = HAL_TICK_FREQ_DEFAULT;  /* 1KHz */
  74:../../Drivers/STM32H7xx_HAL_Driver/Src/stm32h7xx_hal.c **** /**
  75:../../Drivers/STM32H7xx_HAL_Driver/Src/stm32h7xx_hal.c ****   * @}
  76:../../Drivers/STM32H7xx_HAL_Driver/Src/stm32h7xx_hal.c ****   */
  77:../../Drivers/STM32H7xx_HAL_Driver/Src/stm32h7xx_hal.c **** 
  78:../../Drivers/STM32H7xx_HAL_Driver/Src/stm32h7xx_hal.c **** /* Private function prototypes -----------------------------------------------*/
  79:../../Drivers/STM32H7xx_HAL_Driver/Src/stm32h7xx_hal.c **** /* Private functions ---------------------------------------------------------*/
  80:../../Drivers/STM32H7xx_HAL_Driver/Src/stm32h7xx_hal.c **** 
  81:../../Drivers/STM32H7xx_HAL_Driver/Src/stm32h7xx_hal.c **** /** @addtogroup HAL_Exported_Functions
  82:../../Drivers/STM32H7xx_HAL_Driver/Src/stm32h7xx_hal.c ****   * @{
  83:../../Drivers/STM32H7xx_HAL_Driver/Src/stm32h7xx_hal.c ****   */
  84:../../Drivers/STM32H7xx_HAL_Driver/Src/stm32h7xx_hal.c **** 
  85:../../Drivers/STM32H7xx_HAL_Driver/Src/stm32h7xx_hal.c **** /** @addtogroup HAL_Group1
  86:../../Drivers/STM32H7xx_HAL_Driver/Src/stm32h7xx_hal.c ****  *  @brief    Initialization and de-initialization functions
  87:../../Drivers/STM32H7xx_HAL_Driver/Src/stm32h7xx_hal.c ****  *
  88:../../Drivers/STM32H7xx_HAL_Driver/Src/stm32h7xx_hal.c **** @verbatim
ARM GAS  /tmp/ccJ8mj6U.s 			page 3


  89:../../Drivers/STM32H7xx_HAL_Driver/Src/stm32h7xx_hal.c ****  ===============================================================================
  90:../../Drivers/STM32H7xx_HAL_Driver/Src/stm32h7xx_hal.c ****               ##### Initialization and de-initialization functions #####
  91:../../Drivers/STM32H7xx_HAL_Driver/Src/stm32h7xx_hal.c ****  ===============================================================================
  92:../../Drivers/STM32H7xx_HAL_Driver/Src/stm32h7xx_hal.c ****     [..]  This section provides functions allowing to:
  93:../../Drivers/STM32H7xx_HAL_Driver/Src/stm32h7xx_hal.c ****       (+) Initializes the Flash interface the NVIC allocation and initial clock
  94:../../Drivers/STM32H7xx_HAL_Driver/Src/stm32h7xx_hal.c ****           configuration. It initializes the systick also when timeout is needed
  95:../../Drivers/STM32H7xx_HAL_Driver/Src/stm32h7xx_hal.c ****           and the backup domain when enabled.
  96:../../Drivers/STM32H7xx_HAL_Driver/Src/stm32h7xx_hal.c ****       (+) De-Initializes common part of the HAL.
  97:../../Drivers/STM32H7xx_HAL_Driver/Src/stm32h7xx_hal.c ****       (+) Configure The time base source to have 1ms time base with a dedicated
  98:../../Drivers/STM32H7xx_HAL_Driver/Src/stm32h7xx_hal.c ****           Tick interrupt priority.
  99:../../Drivers/STM32H7xx_HAL_Driver/Src/stm32h7xx_hal.c ****         (++) SysTick timer is used by default as source of time base, but user
 100:../../Drivers/STM32H7xx_HAL_Driver/Src/stm32h7xx_hal.c ****              can eventually implement his proper time base source (a general purpose
 101:../../Drivers/STM32H7xx_HAL_Driver/Src/stm32h7xx_hal.c ****              timer for example or other time source), keeping in mind that Time base
 102:../../Drivers/STM32H7xx_HAL_Driver/Src/stm32h7xx_hal.c ****              duration should be kept 1ms since PPP_TIMEOUT_VALUEs are defined and
 103:../../Drivers/STM32H7xx_HAL_Driver/Src/stm32h7xx_hal.c ****              handled in milliseconds basis.
 104:../../Drivers/STM32H7xx_HAL_Driver/Src/stm32h7xx_hal.c ****         (++) Time base configuration function (HAL_InitTick ()) is called automatically
 105:../../Drivers/STM32H7xx_HAL_Driver/Src/stm32h7xx_hal.c ****              at the beginning of the program after reset by HAL_Init() or at any time
 106:../../Drivers/STM32H7xx_HAL_Driver/Src/stm32h7xx_hal.c ****              when clock is configured, by HAL_RCC_ClockConfig().
 107:../../Drivers/STM32H7xx_HAL_Driver/Src/stm32h7xx_hal.c ****         (++) Source of time base is configured  to generate interrupts at regular
 108:../../Drivers/STM32H7xx_HAL_Driver/Src/stm32h7xx_hal.c ****              time intervals. Care must be taken if HAL_Delay() is called from a
 109:../../Drivers/STM32H7xx_HAL_Driver/Src/stm32h7xx_hal.c ****              peripheral ISR process, the Tick interrupt line must have higher priority
 110:../../Drivers/STM32H7xx_HAL_Driver/Src/stm32h7xx_hal.c ****             (numerically lower) than the peripheral interrupt. Otherwise the caller
 111:../../Drivers/STM32H7xx_HAL_Driver/Src/stm32h7xx_hal.c ****             ISR process will be blocked.
 112:../../Drivers/STM32H7xx_HAL_Driver/Src/stm32h7xx_hal.c ****        (++) functions affecting time base configurations are declared as __weak
 113:../../Drivers/STM32H7xx_HAL_Driver/Src/stm32h7xx_hal.c ****              to make  override possible  in case of other  implementations in user file.
 114:../../Drivers/STM32H7xx_HAL_Driver/Src/stm32h7xx_hal.c **** @endverbatim
 115:../../Drivers/STM32H7xx_HAL_Driver/Src/stm32h7xx_hal.c ****   * @{
 116:../../Drivers/STM32H7xx_HAL_Driver/Src/stm32h7xx_hal.c ****   */
 117:../../Drivers/STM32H7xx_HAL_Driver/Src/stm32h7xx_hal.c **** 
 118:../../Drivers/STM32H7xx_HAL_Driver/Src/stm32h7xx_hal.c **** /**
 119:../../Drivers/STM32H7xx_HAL_Driver/Src/stm32h7xx_hal.c ****   * @brief  This function is used to initialize the HAL Library; it must be the first
 120:../../Drivers/STM32H7xx_HAL_Driver/Src/stm32h7xx_hal.c ****   *         instruction to be executed in the main program (before to call any other
 121:../../Drivers/STM32H7xx_HAL_Driver/Src/stm32h7xx_hal.c ****   *         HAL function), it performs the following:
 122:../../Drivers/STM32H7xx_HAL_Driver/Src/stm32h7xx_hal.c ****   *           Configures the SysTick to generate an interrupt each 1 millisecond,
 123:../../Drivers/STM32H7xx_HAL_Driver/Src/stm32h7xx_hal.c ****   *           which is clocked by the HSI (at this stage, the clock is not yet
 124:../../Drivers/STM32H7xx_HAL_Driver/Src/stm32h7xx_hal.c ****   *           configured and thus the system is running from the internal HSI at 16 MHz).
 125:../../Drivers/STM32H7xx_HAL_Driver/Src/stm32h7xx_hal.c ****   *           Set NVIC Group Priority to 4.
 126:../../Drivers/STM32H7xx_HAL_Driver/Src/stm32h7xx_hal.c ****   *           Calls the HAL_MspInit() callback function defined in user file
 127:../../Drivers/STM32H7xx_HAL_Driver/Src/stm32h7xx_hal.c ****   *           "stm32h7xx_hal_msp.c" to do the global low level hardware initialization
 128:../../Drivers/STM32H7xx_HAL_Driver/Src/stm32h7xx_hal.c ****   *
 129:../../Drivers/STM32H7xx_HAL_Driver/Src/stm32h7xx_hal.c ****   * @note   SysTick is used as time base for the HAL_Delay() function, the application
 130:../../Drivers/STM32H7xx_HAL_Driver/Src/stm32h7xx_hal.c ****   *         need to ensure that the SysTick time base is always set to 1 millisecond
 131:../../Drivers/STM32H7xx_HAL_Driver/Src/stm32h7xx_hal.c ****   *         to have correct HAL operation.
 132:../../Drivers/STM32H7xx_HAL_Driver/Src/stm32h7xx_hal.c ****   * @retval HAL status
 133:../../Drivers/STM32H7xx_HAL_Driver/Src/stm32h7xx_hal.c ****   */
 134:../../Drivers/STM32H7xx_HAL_Driver/Src/stm32h7xx_hal.c **** HAL_StatusTypeDef HAL_Init(void)
 135:../../Drivers/STM32H7xx_HAL_Driver/Src/stm32h7xx_hal.c **** {
 136:../../Drivers/STM32H7xx_HAL_Driver/Src/stm32h7xx_hal.c **** 
 137:../../Drivers/STM32H7xx_HAL_Driver/Src/stm32h7xx_hal.c **** uint32_t common_system_clock;
 138:../../Drivers/STM32H7xx_HAL_Driver/Src/stm32h7xx_hal.c **** 
 139:../../Drivers/STM32H7xx_HAL_Driver/Src/stm32h7xx_hal.c **** #if defined(DUAL_CORE) && defined(CORE_CM4)
 140:../../Drivers/STM32H7xx_HAL_Driver/Src/stm32h7xx_hal.c ****    /* Configure Cortex-M4 Instruction cache through ART accelerator */
 141:../../Drivers/STM32H7xx_HAL_Driver/Src/stm32h7xx_hal.c ****    __HAL_RCC_ART_CLK_ENABLE();                   /* Enable the Cortex-M4 ART Clock */
 142:../../Drivers/STM32H7xx_HAL_Driver/Src/stm32h7xx_hal.c ****    __HAL_ART_CONFIG_BASE_ADDRESS(0x08100000UL);  /* Configure the Cortex-M4 ART Base address to the
 143:../../Drivers/STM32H7xx_HAL_Driver/Src/stm32h7xx_hal.c ****    __HAL_ART_ENABLE();                           /* Enable the Cortex-M4 ART */
 144:../../Drivers/STM32H7xx_HAL_Driver/Src/stm32h7xx_hal.c **** #endif /* DUAL_CORE &&  CORE_CM4 */
 145:../../Drivers/STM32H7xx_HAL_Driver/Src/stm32h7xx_hal.c **** 
ARM GAS  /tmp/ccJ8mj6U.s 			page 4


 146:../../Drivers/STM32H7xx_HAL_Driver/Src/stm32h7xx_hal.c ****   /* Set Interrupt Group Priority */
 147:../../Drivers/STM32H7xx_HAL_Driver/Src/stm32h7xx_hal.c ****   HAL_NVIC_SetPriorityGrouping(NVIC_PRIORITYGROUP_4);
 148:../../Drivers/STM32H7xx_HAL_Driver/Src/stm32h7xx_hal.c **** 
 149:../../Drivers/STM32H7xx_HAL_Driver/Src/stm32h7xx_hal.c ****   /* Update the SystemCoreClock global variable */
 150:../../Drivers/STM32H7xx_HAL_Driver/Src/stm32h7xx_hal.c **** #if defined(RCC_D1CFGR_D1CPRE)
 151:../../Drivers/STM32H7xx_HAL_Driver/Src/stm32h7xx_hal.c ****   common_system_clock = HAL_RCC_GetSysClockFreq() >> ((D1CorePrescTable[(RCC->D1CFGR & RCC_D1CFGR_D
 152:../../Drivers/STM32H7xx_HAL_Driver/Src/stm32h7xx_hal.c **** #else
 153:../../Drivers/STM32H7xx_HAL_Driver/Src/stm32h7xx_hal.c ****   common_system_clock = HAL_RCC_GetSysClockFreq() >> ((D1CorePrescTable[(RCC->CDCFGR1 & RCC_CDCFGR1
 154:../../Drivers/STM32H7xx_HAL_Driver/Src/stm32h7xx_hal.c **** #endif
 155:../../Drivers/STM32H7xx_HAL_Driver/Src/stm32h7xx_hal.c **** 
 156:../../Drivers/STM32H7xx_HAL_Driver/Src/stm32h7xx_hal.c ****   /* Update the SystemD2Clock global variable */
 157:../../Drivers/STM32H7xx_HAL_Driver/Src/stm32h7xx_hal.c **** #if defined(RCC_D1CFGR_HPRE)
 158:../../Drivers/STM32H7xx_HAL_Driver/Src/stm32h7xx_hal.c ****   SystemD2Clock = (common_system_clock >> ((D1CorePrescTable[(RCC->D1CFGR & RCC_D1CFGR_HPRE)>> RCC_
 159:../../Drivers/STM32H7xx_HAL_Driver/Src/stm32h7xx_hal.c **** #else
 160:../../Drivers/STM32H7xx_HAL_Driver/Src/stm32h7xx_hal.c ****   SystemD2Clock = (common_system_clock >> ((D1CorePrescTable[(RCC->CDCFGR1 & RCC_CDCFGR1_HPRE)>> RC
 161:../../Drivers/STM32H7xx_HAL_Driver/Src/stm32h7xx_hal.c **** #endif
 162:../../Drivers/STM32H7xx_HAL_Driver/Src/stm32h7xx_hal.c **** 
 163:../../Drivers/STM32H7xx_HAL_Driver/Src/stm32h7xx_hal.c **** #if defined(DUAL_CORE) && defined(CORE_CM4)
 164:../../Drivers/STM32H7xx_HAL_Driver/Src/stm32h7xx_hal.c ****   SystemCoreClock = SystemD2Clock;
 165:../../Drivers/STM32H7xx_HAL_Driver/Src/stm32h7xx_hal.c **** #else
 166:../../Drivers/STM32H7xx_HAL_Driver/Src/stm32h7xx_hal.c ****   SystemCoreClock = common_system_clock;
 167:../../Drivers/STM32H7xx_HAL_Driver/Src/stm32h7xx_hal.c **** #endif /* DUAL_CORE && CORE_CM4 */
 168:../../Drivers/STM32H7xx_HAL_Driver/Src/stm32h7xx_hal.c **** 
 169:../../Drivers/STM32H7xx_HAL_Driver/Src/stm32h7xx_hal.c ****   /* Use systick as time base source and configure 1ms tick (default clock after Reset is HSI) */
 170:../../Drivers/STM32H7xx_HAL_Driver/Src/stm32h7xx_hal.c ****   if(HAL_InitTick(TICK_INT_PRIORITY) != HAL_OK)
 171:../../Drivers/STM32H7xx_HAL_Driver/Src/stm32h7xx_hal.c ****   {
 172:../../Drivers/STM32H7xx_HAL_Driver/Src/stm32h7xx_hal.c ****     return HAL_ERROR;
 173:../../Drivers/STM32H7xx_HAL_Driver/Src/stm32h7xx_hal.c ****   }
 174:../../Drivers/STM32H7xx_HAL_Driver/Src/stm32h7xx_hal.c **** 
 175:../../Drivers/STM32H7xx_HAL_Driver/Src/stm32h7xx_hal.c ****   /* Init the low level hardware */
 176:../../Drivers/STM32H7xx_HAL_Driver/Src/stm32h7xx_hal.c ****   HAL_MspInit();
 177:../../Drivers/STM32H7xx_HAL_Driver/Src/stm32h7xx_hal.c **** 
 178:../../Drivers/STM32H7xx_HAL_Driver/Src/stm32h7xx_hal.c ****   /* Return function status */
 179:../../Drivers/STM32H7xx_HAL_Driver/Src/stm32h7xx_hal.c ****   return HAL_OK;
 180:../../Drivers/STM32H7xx_HAL_Driver/Src/stm32h7xx_hal.c **** }
 181:../../Drivers/STM32H7xx_HAL_Driver/Src/stm32h7xx_hal.c **** 
 182:../../Drivers/STM32H7xx_HAL_Driver/Src/stm32h7xx_hal.c **** /**
 183:../../Drivers/STM32H7xx_HAL_Driver/Src/stm32h7xx_hal.c ****   * @brief  This function de-Initializes common part of the HAL and stops the systick.
 184:../../Drivers/STM32H7xx_HAL_Driver/Src/stm32h7xx_hal.c ****   *         This function is optional.
 185:../../Drivers/STM32H7xx_HAL_Driver/Src/stm32h7xx_hal.c ****   * @retval HAL status
 186:../../Drivers/STM32H7xx_HAL_Driver/Src/stm32h7xx_hal.c ****   */
 187:../../Drivers/STM32H7xx_HAL_Driver/Src/stm32h7xx_hal.c **** HAL_StatusTypeDef HAL_DeInit(void)
 188:../../Drivers/STM32H7xx_HAL_Driver/Src/stm32h7xx_hal.c **** {
 189:../../Drivers/STM32H7xx_HAL_Driver/Src/stm32h7xx_hal.c ****   /* Reset of all peripherals */
 190:../../Drivers/STM32H7xx_HAL_Driver/Src/stm32h7xx_hal.c ****   __HAL_RCC_AHB3_FORCE_RESET();
 191:../../Drivers/STM32H7xx_HAL_Driver/Src/stm32h7xx_hal.c ****   __HAL_RCC_AHB3_RELEASE_RESET();
 192:../../Drivers/STM32H7xx_HAL_Driver/Src/stm32h7xx_hal.c **** 
 193:../../Drivers/STM32H7xx_HAL_Driver/Src/stm32h7xx_hal.c ****   __HAL_RCC_AHB1_FORCE_RESET();
 194:../../Drivers/STM32H7xx_HAL_Driver/Src/stm32h7xx_hal.c ****   __HAL_RCC_AHB1_RELEASE_RESET();
 195:../../Drivers/STM32H7xx_HAL_Driver/Src/stm32h7xx_hal.c **** 
 196:../../Drivers/STM32H7xx_HAL_Driver/Src/stm32h7xx_hal.c ****   __HAL_RCC_AHB2_FORCE_RESET();
 197:../../Drivers/STM32H7xx_HAL_Driver/Src/stm32h7xx_hal.c ****   __HAL_RCC_AHB2_RELEASE_RESET();
 198:../../Drivers/STM32H7xx_HAL_Driver/Src/stm32h7xx_hal.c **** 
 199:../../Drivers/STM32H7xx_HAL_Driver/Src/stm32h7xx_hal.c ****   __HAL_RCC_AHB4_FORCE_RESET();
 200:../../Drivers/STM32H7xx_HAL_Driver/Src/stm32h7xx_hal.c ****  __HAL_RCC_AHB4_RELEASE_RESET();
 201:../../Drivers/STM32H7xx_HAL_Driver/Src/stm32h7xx_hal.c **** 
 202:../../Drivers/STM32H7xx_HAL_Driver/Src/stm32h7xx_hal.c ****   __HAL_RCC_APB3_FORCE_RESET();
ARM GAS  /tmp/ccJ8mj6U.s 			page 5


 203:../../Drivers/STM32H7xx_HAL_Driver/Src/stm32h7xx_hal.c ****   __HAL_RCC_APB3_RELEASE_RESET();
 204:../../Drivers/STM32H7xx_HAL_Driver/Src/stm32h7xx_hal.c **** 
 205:../../Drivers/STM32H7xx_HAL_Driver/Src/stm32h7xx_hal.c ****   __HAL_RCC_APB1L_FORCE_RESET();
 206:../../Drivers/STM32H7xx_HAL_Driver/Src/stm32h7xx_hal.c ****   __HAL_RCC_APB1L_RELEASE_RESET();
 207:../../Drivers/STM32H7xx_HAL_Driver/Src/stm32h7xx_hal.c **** 
 208:../../Drivers/STM32H7xx_HAL_Driver/Src/stm32h7xx_hal.c ****   __HAL_RCC_APB1H_FORCE_RESET();
 209:../../Drivers/STM32H7xx_HAL_Driver/Src/stm32h7xx_hal.c ****   __HAL_RCC_APB1H_RELEASE_RESET();
 210:../../Drivers/STM32H7xx_HAL_Driver/Src/stm32h7xx_hal.c **** 
 211:../../Drivers/STM32H7xx_HAL_Driver/Src/stm32h7xx_hal.c ****    __HAL_RCC_APB2_FORCE_RESET();
 212:../../Drivers/STM32H7xx_HAL_Driver/Src/stm32h7xx_hal.c ****    __HAL_RCC_APB2_RELEASE_RESET();
 213:../../Drivers/STM32H7xx_HAL_Driver/Src/stm32h7xx_hal.c **** 
 214:../../Drivers/STM32H7xx_HAL_Driver/Src/stm32h7xx_hal.c ****   __HAL_RCC_APB4_FORCE_RESET();
 215:../../Drivers/STM32H7xx_HAL_Driver/Src/stm32h7xx_hal.c ****   __HAL_RCC_APB4_RELEASE_RESET();
 216:../../Drivers/STM32H7xx_HAL_Driver/Src/stm32h7xx_hal.c **** 
 217:../../Drivers/STM32H7xx_HAL_Driver/Src/stm32h7xx_hal.c ****   /* De-Init the low level hardware */
 218:../../Drivers/STM32H7xx_HAL_Driver/Src/stm32h7xx_hal.c ****   HAL_MspDeInit();
 219:../../Drivers/STM32H7xx_HAL_Driver/Src/stm32h7xx_hal.c **** 
 220:../../Drivers/STM32H7xx_HAL_Driver/Src/stm32h7xx_hal.c ****   /* Return function status */
 221:../../Drivers/STM32H7xx_HAL_Driver/Src/stm32h7xx_hal.c ****   return HAL_OK;
 222:../../Drivers/STM32H7xx_HAL_Driver/Src/stm32h7xx_hal.c **** }
 223:../../Drivers/STM32H7xx_HAL_Driver/Src/stm32h7xx_hal.c **** 
 224:../../Drivers/STM32H7xx_HAL_Driver/Src/stm32h7xx_hal.c **** /**
 225:../../Drivers/STM32H7xx_HAL_Driver/Src/stm32h7xx_hal.c ****   * @brief  Initializes the MSP.
 226:../../Drivers/STM32H7xx_HAL_Driver/Src/stm32h7xx_hal.c ****   * @retval None
 227:../../Drivers/STM32H7xx_HAL_Driver/Src/stm32h7xx_hal.c ****   */
 228:../../Drivers/STM32H7xx_HAL_Driver/Src/stm32h7xx_hal.c **** __weak void HAL_MspInit(void)
 229:../../Drivers/STM32H7xx_HAL_Driver/Src/stm32h7xx_hal.c **** {
  28              		.loc 1 229 1 view -0
  29              		.cfi_startproc
  30              		@ args = 0, pretend = 0, frame = 0
  31              		@ frame_needed = 0, uses_anonymous_args = 0
  32              		@ link register save eliminated.
 230:../../Drivers/STM32H7xx_HAL_Driver/Src/stm32h7xx_hal.c ****   /* NOTE : This function Should not be modified, when the callback is needed,
 231:../../Drivers/STM32H7xx_HAL_Driver/Src/stm32h7xx_hal.c ****             the HAL_MspInit could be implemented in the user file
 232:../../Drivers/STM32H7xx_HAL_Driver/Src/stm32h7xx_hal.c ****    */
 233:../../Drivers/STM32H7xx_HAL_Driver/Src/stm32h7xx_hal.c **** }
  33              		.loc 1 233 1 view .LVU1
  34 0000 7047     		bx	lr
  35              		.cfi_endproc
  36              	.LFE146:
  38              		.section	.text.HAL_MspDeInit,"ax",%progbits
  39              		.align	1
  40              		.weak	HAL_MspDeInit
  41              		.syntax unified
  42              		.thumb
  43              		.thumb_func
  44              		.fpu fpv5-d16
  46              	HAL_MspDeInit:
  47              	.LFB147:
 234:../../Drivers/STM32H7xx_HAL_Driver/Src/stm32h7xx_hal.c **** 
 235:../../Drivers/STM32H7xx_HAL_Driver/Src/stm32h7xx_hal.c **** /**
 236:../../Drivers/STM32H7xx_HAL_Driver/Src/stm32h7xx_hal.c ****   * @brief  DeInitializes the MSP.
 237:../../Drivers/STM32H7xx_HAL_Driver/Src/stm32h7xx_hal.c ****   * @retval None
 238:../../Drivers/STM32H7xx_HAL_Driver/Src/stm32h7xx_hal.c ****   */
 239:../../Drivers/STM32H7xx_HAL_Driver/Src/stm32h7xx_hal.c **** __weak void HAL_MspDeInit(void)
 240:../../Drivers/STM32H7xx_HAL_Driver/Src/stm32h7xx_hal.c **** {
  48              		.loc 1 240 1 view -0
ARM GAS  /tmp/ccJ8mj6U.s 			page 6


  49              		.cfi_startproc
  50              		@ args = 0, pretend = 0, frame = 0
  51              		@ frame_needed = 0, uses_anonymous_args = 0
  52              		@ link register save eliminated.
 241:../../Drivers/STM32H7xx_HAL_Driver/Src/stm32h7xx_hal.c ****   /* NOTE : This function Should not be modified, when the callback is needed,
 242:../../Drivers/STM32H7xx_HAL_Driver/Src/stm32h7xx_hal.c ****             the HAL_MspDeInit could be implemented in the user file
 243:../../Drivers/STM32H7xx_HAL_Driver/Src/stm32h7xx_hal.c ****    */
 244:../../Drivers/STM32H7xx_HAL_Driver/Src/stm32h7xx_hal.c **** }
  53              		.loc 1 244 1 view .LVU3
  54 0000 7047     		bx	lr
  55              		.cfi_endproc
  56              	.LFE147:
  58              		.section	.text.HAL_DeInit,"ax",%progbits
  59              		.align	1
  60              		.global	HAL_DeInit
  61              		.syntax unified
  62              		.thumb
  63              		.thumb_func
  64              		.fpu fpv5-d16
  66              	HAL_DeInit:
  67              	.LFB145:
 188:../../Drivers/STM32H7xx_HAL_Driver/Src/stm32h7xx_hal.c ****   /* Reset of all peripherals */
  68              		.loc 1 188 1 view -0
  69              		.cfi_startproc
  70              		@ args = 0, pretend = 0, frame = 0
  71              		@ frame_needed = 0, uses_anonymous_args = 0
  72 0000 10B5     		push	{r4, lr}
  73              	.LCFI0:
  74              		.cfi_def_cfa_offset 8
  75              		.cfi_offset 4, -8
  76              		.cfi_offset 14, -4
 190:../../Drivers/STM32H7xx_HAL_Driver/Src/stm32h7xx_hal.c ****   __HAL_RCC_AHB3_RELEASE_RESET();
  77              		.loc 1 190 3 view .LVU5
  78 0002 194B     		ldr	r3, .L5
  79 0004 194A     		ldr	r2, .L5+4
  80 0006 DA67     		str	r2, [r3, #124]
 191:../../Drivers/STM32H7xx_HAL_Driver/Src/stm32h7xx_hal.c **** 
  81              		.loc 1 191 3 view .LVU6
  82 0008 0024     		movs	r4, #0
  83 000a DC67     		str	r4, [r3, #124]
 193:../../Drivers/STM32H7xx_HAL_Driver/Src/stm32h7xx_hal.c ****   __HAL_RCC_AHB1_RELEASE_RESET();
  84              		.loc 1 193 3 view .LVU7
  85 000c 184A     		ldr	r2, .L5+8
  86 000e C3F88020 		str	r2, [r3, #128]
 194:../../Drivers/STM32H7xx_HAL_Driver/Src/stm32h7xx_hal.c **** 
  87              		.loc 1 194 3 view .LVU8
  88 0012 C3F88040 		str	r4, [r3, #128]
 196:../../Drivers/STM32H7xx_HAL_Driver/Src/stm32h7xx_hal.c ****   __HAL_RCC_AHB2_RELEASE_RESET();
  89              		.loc 1 196 3 view .LVU9
  90 0016 40F27122 		movw	r2, #625
  91 001a C3F88420 		str	r2, [r3, #132]
 197:../../Drivers/STM32H7xx_HAL_Driver/Src/stm32h7xx_hal.c **** 
  92              		.loc 1 197 3 view .LVU10
  93 001e C3F88440 		str	r4, [r3, #132]
 199:../../Drivers/STM32H7xx_HAL_Driver/Src/stm32h7xx_hal.c ****  __HAL_RCC_AHB4_RELEASE_RESET();
  94              		.loc 1 199 3 view .LVU11
  95 0022 144A     		ldr	r2, .L5+12
ARM GAS  /tmp/ccJ8mj6U.s 			page 7


  96 0024 C3F88820 		str	r2, [r3, #136]
 200:../../Drivers/STM32H7xx_HAL_Driver/Src/stm32h7xx_hal.c **** 
  97              		.loc 1 200 2 view .LVU12
  98 0028 C3F88840 		str	r4, [r3, #136]
 202:../../Drivers/STM32H7xx_HAL_Driver/Src/stm32h7xx_hal.c ****   __HAL_RCC_APB3_RELEASE_RESET();
  99              		.loc 1 202 3 view .LVU13
 100 002c 1822     		movs	r2, #24
 101 002e C3F88C20 		str	r2, [r3, #140]
 203:../../Drivers/STM32H7xx_HAL_Driver/Src/stm32h7xx_hal.c **** 
 102              		.loc 1 203 3 view .LVU14
 103 0032 C3F88C40 		str	r4, [r3, #140]
 205:../../Drivers/STM32H7xx_HAL_Driver/Src/stm32h7xx_hal.c ****   __HAL_RCC_APB1L_RELEASE_RESET();
 104              		.loc 1 205 3 view .LVU15
 105 0036 104A     		ldr	r2, .L5+16
 106 0038 C3F89020 		str	r2, [r3, #144]
 206:../../Drivers/STM32H7xx_HAL_Driver/Src/stm32h7xx_hal.c **** 
 107              		.loc 1 206 3 view .LVU16
 108 003c C3F89040 		str	r4, [r3, #144]
 208:../../Drivers/STM32H7xx_HAL_Driver/Src/stm32h7xx_hal.c ****   __HAL_RCC_APB1H_RELEASE_RESET();
 109              		.loc 1 208 3 view .LVU17
 110 0040 4FF49B72 		mov	r2, #310
 111 0044 C3F89420 		str	r2, [r3, #148]
 209:../../Drivers/STM32H7xx_HAL_Driver/Src/stm32h7xx_hal.c **** 
 112              		.loc 1 209 3 view .LVU18
 113 0048 C3F89440 		str	r4, [r3, #148]
 211:../../Drivers/STM32H7xx_HAL_Driver/Src/stm32h7xx_hal.c ****    __HAL_RCC_APB2_RELEASE_RESET();
 114              		.loc 1 211 4 view .LVU19
 115 004c 0B4A     		ldr	r2, .L5+20
 116 004e C3F89820 		str	r2, [r3, #152]
 212:../../Drivers/STM32H7xx_HAL_Driver/Src/stm32h7xx_hal.c **** 
 117              		.loc 1 212 4 view .LVU20
 118 0052 C3F89840 		str	r4, [r3, #152]
 214:../../Drivers/STM32H7xx_HAL_Driver/Src/stm32h7xx_hal.c ****   __HAL_RCC_APB4_RELEASE_RESET();
 119              		.loc 1 214 3 view .LVU21
 120 0056 0A4A     		ldr	r2, .L5+24
 121 0058 C3F89C20 		str	r2, [r3, #156]
 215:../../Drivers/STM32H7xx_HAL_Driver/Src/stm32h7xx_hal.c **** 
 122              		.loc 1 215 3 view .LVU22
 123 005c C3F89C40 		str	r4, [r3, #156]
 218:../../Drivers/STM32H7xx_HAL_Driver/Src/stm32h7xx_hal.c **** 
 124              		.loc 1 218 3 view .LVU23
 125 0060 FFF7FEFF 		bl	HAL_MspDeInit
 126              	.LVL0:
 221:../../Drivers/STM32H7xx_HAL_Driver/Src/stm32h7xx_hal.c **** }
 127              		.loc 1 221 3 view .LVU24
 222:../../Drivers/STM32H7xx_HAL_Driver/Src/stm32h7xx_hal.c **** 
 128              		.loc 1 222 1 is_stmt 0 view .LVU25
 129 0064 2046     		mov	r0, r4
 130 0066 10BD     		pop	{r4, pc}
 131              	.L6:
 132              		.align	2
 133              	.L5:
 134 0068 00440258 		.word	1476543488
 135 006c 31500100 		.word	86065
 136 0070 23C0000A 		.word	167821347
 137 0074 FF072803 		.word	52955135
 138 0078 FFC3FFE8 		.word	-385891329
ARM GAS  /tmp/ccJ8mj6U.s 			page 8


 139 007c 3330D731 		.word	836186163
 140 0080 AADE2000 		.word	2154154
 141              		.cfi_endproc
 142              	.LFE145:
 144              		.section	.text.HAL_InitTick,"ax",%progbits
 145              		.align	1
 146              		.weak	HAL_InitTick
 147              		.syntax unified
 148              		.thumb
 149              		.thumb_func
 150              		.fpu fpv5-d16
 152              	HAL_InitTick:
 153              	.LVL1:
 154              	.LFB148:
 245:../../Drivers/STM32H7xx_HAL_Driver/Src/stm32h7xx_hal.c **** 
 246:../../Drivers/STM32H7xx_HAL_Driver/Src/stm32h7xx_hal.c **** /**
 247:../../Drivers/STM32H7xx_HAL_Driver/Src/stm32h7xx_hal.c ****   * @brief This function configures the source of the time base.
 248:../../Drivers/STM32H7xx_HAL_Driver/Src/stm32h7xx_hal.c ****   *        The time source is configured  to have 1ms time base with a dedicated
 249:../../Drivers/STM32H7xx_HAL_Driver/Src/stm32h7xx_hal.c ****   *        Tick interrupt priority.
 250:../../Drivers/STM32H7xx_HAL_Driver/Src/stm32h7xx_hal.c ****   * @note This function is called  automatically at the beginning of program after
 251:../../Drivers/STM32H7xx_HAL_Driver/Src/stm32h7xx_hal.c ****   *       reset by HAL_Init() or at any time when clock is reconfigured  by HAL_RCC_ClockConfig().
 252:../../Drivers/STM32H7xx_HAL_Driver/Src/stm32h7xx_hal.c ****   * @note In the default implementation, SysTick timer is the source of time base.
 253:../../Drivers/STM32H7xx_HAL_Driver/Src/stm32h7xx_hal.c ****   *       It is used to generate interrupts at regular time intervals.
 254:../../Drivers/STM32H7xx_HAL_Driver/Src/stm32h7xx_hal.c ****   *       Care must be taken if HAL_Delay() is called from a peripheral ISR process,
 255:../../Drivers/STM32H7xx_HAL_Driver/Src/stm32h7xx_hal.c ****   *       the SysTick interrupt must have higher priority (numerically lower)
 256:../../Drivers/STM32H7xx_HAL_Driver/Src/stm32h7xx_hal.c ****   *       than the peripheral interrupt. Otherwise the caller ISR process will be blocked.
 257:../../Drivers/STM32H7xx_HAL_Driver/Src/stm32h7xx_hal.c ****   *       The function is declared as __weak  to be overwritten  in case of other
 258:../../Drivers/STM32H7xx_HAL_Driver/Src/stm32h7xx_hal.c ****   *       implementation  in user file.
 259:../../Drivers/STM32H7xx_HAL_Driver/Src/stm32h7xx_hal.c ****   * @param TickPriority: Tick interrupt priority.
 260:../../Drivers/STM32H7xx_HAL_Driver/Src/stm32h7xx_hal.c ****   * @retval HAL status
 261:../../Drivers/STM32H7xx_HAL_Driver/Src/stm32h7xx_hal.c ****   */
 262:../../Drivers/STM32H7xx_HAL_Driver/Src/stm32h7xx_hal.c **** __weak HAL_StatusTypeDef HAL_InitTick(uint32_t TickPriority)
 263:../../Drivers/STM32H7xx_HAL_Driver/Src/stm32h7xx_hal.c **** {
 155              		.loc 1 263 1 is_stmt 1 view -0
 156              		.cfi_startproc
 157              		@ args = 0, pretend = 0, frame = 0
 158              		@ frame_needed = 0, uses_anonymous_args = 0
 264:../../Drivers/STM32H7xx_HAL_Driver/Src/stm32h7xx_hal.c ****   /* Check uwTickFreq for MisraC 2012 (even if uwTickFreq is a enum type that don't take the value 
 265:../../Drivers/STM32H7xx_HAL_Driver/Src/stm32h7xx_hal.c ****   if((uint32_t)uwTickFreq == 0UL)
 159              		.loc 1 265 3 view .LVU27
 160              		.loc 1 265 27 is_stmt 0 view .LVU28
 161 0000 104B     		ldr	r3, .L18
 162 0002 1B78     		ldrb	r3, [r3]	@ zero_extendqisi2
 163              		.loc 1 265 5 view .LVU29
 164 0004 0BB9     		cbnz	r3, .L16
 266:../../Drivers/STM32H7xx_HAL_Driver/Src/stm32h7xx_hal.c ****   {
 267:../../Drivers/STM32H7xx_HAL_Driver/Src/stm32h7xx_hal.c ****     return HAL_ERROR;
 165              		.loc 1 267 12 view .LVU30
 166 0006 0120     		movs	r0, #1
 167              	.LVL2:
 268:../../Drivers/STM32H7xx_HAL_Driver/Src/stm32h7xx_hal.c ****   }
 269:../../Drivers/STM32H7xx_HAL_Driver/Src/stm32h7xx_hal.c **** 
 270:../../Drivers/STM32H7xx_HAL_Driver/Src/stm32h7xx_hal.c ****     /* Configure the SysTick to have interrupt in 1ms time basis*/
 271:../../Drivers/STM32H7xx_HAL_Driver/Src/stm32h7xx_hal.c ****     if (HAL_SYSTICK_Config(SystemCoreClock / (1000UL / (uint32_t)uwTickFreq)) > 0U)
 272:../../Drivers/STM32H7xx_HAL_Driver/Src/stm32h7xx_hal.c ****     {
 273:../../Drivers/STM32H7xx_HAL_Driver/Src/stm32h7xx_hal.c ****       return HAL_ERROR;
 274:../../Drivers/STM32H7xx_HAL_Driver/Src/stm32h7xx_hal.c ****     }
ARM GAS  /tmp/ccJ8mj6U.s 			page 9


 275:../../Drivers/STM32H7xx_HAL_Driver/Src/stm32h7xx_hal.c **** 
 276:../../Drivers/STM32H7xx_HAL_Driver/Src/stm32h7xx_hal.c ****   /* Configure the SysTick IRQ priority */
 277:../../Drivers/STM32H7xx_HAL_Driver/Src/stm32h7xx_hal.c ****   if (TickPriority < (1UL << __NVIC_PRIO_BITS))
 278:../../Drivers/STM32H7xx_HAL_Driver/Src/stm32h7xx_hal.c ****   {
 279:../../Drivers/STM32H7xx_HAL_Driver/Src/stm32h7xx_hal.c ****     HAL_NVIC_SetPriority(SysTick_IRQn, TickPriority, 0U);
 280:../../Drivers/STM32H7xx_HAL_Driver/Src/stm32h7xx_hal.c ****     uwTickPrio = TickPriority;
 281:../../Drivers/STM32H7xx_HAL_Driver/Src/stm32h7xx_hal.c ****   }
 282:../../Drivers/STM32H7xx_HAL_Driver/Src/stm32h7xx_hal.c ****   else
 283:../../Drivers/STM32H7xx_HAL_Driver/Src/stm32h7xx_hal.c ****   {
 284:../../Drivers/STM32H7xx_HAL_Driver/Src/stm32h7xx_hal.c ****     return HAL_ERROR;
 285:../../Drivers/STM32H7xx_HAL_Driver/Src/stm32h7xx_hal.c ****   }
 286:../../Drivers/STM32H7xx_HAL_Driver/Src/stm32h7xx_hal.c **** 
 287:../../Drivers/STM32H7xx_HAL_Driver/Src/stm32h7xx_hal.c ****   /* Return function status */
 288:../../Drivers/STM32H7xx_HAL_Driver/Src/stm32h7xx_hal.c ****   return HAL_OK;
 289:../../Drivers/STM32H7xx_HAL_Driver/Src/stm32h7xx_hal.c **** }
 168              		.loc 1 289 1 view .LVU31
 169 0008 7047     		bx	lr
 170              	.LVL3:
 171              	.L16:
 263:../../Drivers/STM32H7xx_HAL_Driver/Src/stm32h7xx_hal.c ****   /* Check uwTickFreq for MisraC 2012 (even if uwTickFreq is a enum type that don't take the value 
 172              		.loc 1 263 1 view .LVU32
 173 000a 10B5     		push	{r4, lr}
 174              	.LCFI1:
 175              		.cfi_def_cfa_offset 8
 176              		.cfi_offset 4, -8
 177              		.cfi_offset 14, -4
 178 000c 0446     		mov	r4, r0
 271:../../Drivers/STM32H7xx_HAL_Driver/Src/stm32h7xx_hal.c ****     {
 179              		.loc 1 271 5 is_stmt 1 view .LVU33
 271:../../Drivers/STM32H7xx_HAL_Driver/Src/stm32h7xx_hal.c ****     {
 180              		.loc 1 271 54 is_stmt 0 view .LVU34
 181 000e 4FF47A70 		mov	r0, #1000
 182              	.LVL4:
 271:../../Drivers/STM32H7xx_HAL_Driver/Src/stm32h7xx_hal.c ****     {
 183              		.loc 1 271 54 view .LVU35
 184 0012 B0FBF3F3 		udiv	r3, r0, r3
 271:../../Drivers/STM32H7xx_HAL_Driver/Src/stm32h7xx_hal.c ****     {
 185              		.loc 1 271 9 view .LVU36
 186 0016 0C4A     		ldr	r2, .L18+4
 187 0018 1068     		ldr	r0, [r2]
 188 001a B0FBF3F0 		udiv	r0, r0, r3
 189 001e FFF7FEFF 		bl	HAL_SYSTICK_Config
 190              	.LVL5:
 271:../../Drivers/STM32H7xx_HAL_Driver/Src/stm32h7xx_hal.c ****     {
 191              		.loc 1 271 8 view .LVU37
 192 0022 68B9     		cbnz	r0, .L10
 277:../../Drivers/STM32H7xx_HAL_Driver/Src/stm32h7xx_hal.c ****   {
 193              		.loc 1 277 3 is_stmt 1 view .LVU38
 277:../../Drivers/STM32H7xx_HAL_Driver/Src/stm32h7xx_hal.c ****   {
 194              		.loc 1 277 6 is_stmt 0 view .LVU39
 195 0024 0F2C     		cmp	r4, #15
 196 0026 01D9     		bls	.L17
 284:../../Drivers/STM32H7xx_HAL_Driver/Src/stm32h7xx_hal.c ****   }
 197              		.loc 1 284 12 view .LVU40
 198 0028 0120     		movs	r0, #1
 199 002a 0AE0     		b	.L8
 200              	.L17:
ARM GAS  /tmp/ccJ8mj6U.s 			page 10


 279:../../Drivers/STM32H7xx_HAL_Driver/Src/stm32h7xx_hal.c ****     uwTickPrio = TickPriority;
 201              		.loc 1 279 5 is_stmt 1 view .LVU41
 202 002c 0022     		movs	r2, #0
 203 002e 2146     		mov	r1, r4
 204 0030 4FF0FF30 		mov	r0, #-1
 205 0034 FFF7FEFF 		bl	HAL_NVIC_SetPriority
 206              	.LVL6:
 280:../../Drivers/STM32H7xx_HAL_Driver/Src/stm32h7xx_hal.c ****   }
 207              		.loc 1 280 5 view .LVU42
 280:../../Drivers/STM32H7xx_HAL_Driver/Src/stm32h7xx_hal.c ****   }
 208              		.loc 1 280 16 is_stmt 0 view .LVU43
 209 0038 044B     		ldr	r3, .L18+8
 210 003a 1C60     		str	r4, [r3]
 288:../../Drivers/STM32H7xx_HAL_Driver/Src/stm32h7xx_hal.c **** }
 211              		.loc 1 288 3 is_stmt 1 view .LVU44
 288:../../Drivers/STM32H7xx_HAL_Driver/Src/stm32h7xx_hal.c **** }
 212              		.loc 1 288 10 is_stmt 0 view .LVU45
 213 003c 0020     		movs	r0, #0
 214 003e 00E0     		b	.L8
 215              	.L10:
 273:../../Drivers/STM32H7xx_HAL_Driver/Src/stm32h7xx_hal.c ****     }
 216              		.loc 1 273 14 view .LVU46
 217 0040 0120     		movs	r0, #1
 218              	.L8:
 219              		.loc 1 289 1 view .LVU47
 220 0042 10BD     		pop	{r4, pc}
 221              	.LVL7:
 222              	.L19:
 223              		.loc 1 289 1 view .LVU48
 224              		.align	2
 225              	.L18:
 226 0044 00000000 		.word	.LANCHOR0
 227 0048 00000000 		.word	SystemCoreClock
 228 004c 00000000 		.word	.LANCHOR1
 229              		.cfi_endproc
 230              	.LFE148:
 232              		.section	.text.HAL_Init,"ax",%progbits
 233              		.align	1
 234              		.global	HAL_Init
 235              		.syntax unified
 236              		.thumb
 237              		.thumb_func
 238              		.fpu fpv5-d16
 240              	HAL_Init:
 241              	.LFB144:
 135:../../Drivers/STM32H7xx_HAL_Driver/Src/stm32h7xx_hal.c **** 
 242              		.loc 1 135 1 is_stmt 1 view -0
 243              		.cfi_startproc
 244              		@ args = 0, pretend = 0, frame = 0
 245              		@ frame_needed = 0, uses_anonymous_args = 0
 246 0000 10B5     		push	{r4, lr}
 247              	.LCFI2:
 248              		.cfi_def_cfa_offset 8
 249              		.cfi_offset 4, -8
 250              		.cfi_offset 14, -4
 137:../../Drivers/STM32H7xx_HAL_Driver/Src/stm32h7xx_hal.c **** 
 251              		.loc 1 137 1 view .LVU50
ARM GAS  /tmp/ccJ8mj6U.s 			page 11


 147:../../Drivers/STM32H7xx_HAL_Driver/Src/stm32h7xx_hal.c **** 
 252              		.loc 1 147 3 view .LVU51
 253 0002 0320     		movs	r0, #3
 254 0004 FFF7FEFF 		bl	HAL_NVIC_SetPriorityGrouping
 255              	.LVL8:
 151:../../Drivers/STM32H7xx_HAL_Driver/Src/stm32h7xx_hal.c **** #else
 256              		.loc 1 151 3 view .LVU52
 151:../../Drivers/STM32H7xx_HAL_Driver/Src/stm32h7xx_hal.c **** #else
 257              		.loc 1 151 25 is_stmt 0 view .LVU53
 258 0008 FFF7FEFF 		bl	HAL_RCC_GetSysClockFreq
 259              	.LVL9:
 151:../../Drivers/STM32H7xx_HAL_Driver/Src/stm32h7xx_hal.c **** #else
 260              		.loc 1 151 77 view .LVU54
 261 000c 0F49     		ldr	r1, .L25
 262 000e 8B69     		ldr	r3, [r1, #24]
 151:../../Drivers/STM32H7xx_HAL_Driver/Src/stm32h7xx_hal.c **** #else
 263              		.loc 1 151 106 view .LVU55
 264 0010 C3F30323 		ubfx	r3, r3, #8, #4
 151:../../Drivers/STM32H7xx_HAL_Driver/Src/stm32h7xx_hal.c **** #else
 265              		.loc 1 151 72 view .LVU56
 266 0014 0E4A     		ldr	r2, .L25+4
 267 0016 D35C     		ldrb	r3, [r2, r3]	@ zero_extendqisi2
 151:../../Drivers/STM32H7xx_HAL_Driver/Src/stm32h7xx_hal.c **** #else
 268              		.loc 1 151 133 view .LVU57
 269 0018 03F01F03 		and	r3, r3, #31
 151:../../Drivers/STM32H7xx_HAL_Driver/Src/stm32h7xx_hal.c **** #else
 270              		.loc 1 151 23 view .LVU58
 271 001c D840     		lsrs	r0, r0, r3
 272              	.LVL10:
 158:../../Drivers/STM32H7xx_HAL_Driver/Src/stm32h7xx_hal.c **** #else
 273              		.loc 1 158 3 is_stmt 1 view .LVU59
 158:../../Drivers/STM32H7xx_HAL_Driver/Src/stm32h7xx_hal.c **** #else
 274              		.loc 1 158 66 is_stmt 0 view .LVU60
 275 001e 8B69     		ldr	r3, [r1, #24]
 158:../../Drivers/STM32H7xx_HAL_Driver/Src/stm32h7xx_hal.c **** #else
 276              		.loc 1 158 93 view .LVU61
 277 0020 03F00F03 		and	r3, r3, #15
 158:../../Drivers/STM32H7xx_HAL_Driver/Src/stm32h7xx_hal.c **** #else
 278              		.loc 1 158 61 view .LVU62
 279 0024 D35C     		ldrb	r3, [r2, r3]	@ zero_extendqisi2
 158:../../Drivers/STM32H7xx_HAL_Driver/Src/stm32h7xx_hal.c **** #else
 280              		.loc 1 158 118 view .LVU63
 281 0026 03F01F03 		and	r3, r3, #31
 158:../../Drivers/STM32H7xx_HAL_Driver/Src/stm32h7xx_hal.c **** #else
 282              		.loc 1 158 40 view .LVU64
 283 002a 20FA03F3 		lsr	r3, r0, r3
 158:../../Drivers/STM32H7xx_HAL_Driver/Src/stm32h7xx_hal.c **** #else
 284              		.loc 1 158 17 view .LVU65
 285 002e 094A     		ldr	r2, .L25+8
 286 0030 1360     		str	r3, [r2]
 166:../../Drivers/STM32H7xx_HAL_Driver/Src/stm32h7xx_hal.c **** #endif /* DUAL_CORE && CORE_CM4 */
 287              		.loc 1 166 3 is_stmt 1 view .LVU66
 166:../../Drivers/STM32H7xx_HAL_Driver/Src/stm32h7xx_hal.c **** #endif /* DUAL_CORE && CORE_CM4 */
 288              		.loc 1 166 19 is_stmt 0 view .LVU67
 289 0032 094B     		ldr	r3, .L25+12
 290 0034 1860     		str	r0, [r3]
 170:../../Drivers/STM32H7xx_HAL_Driver/Src/stm32h7xx_hal.c ****   {
ARM GAS  /tmp/ccJ8mj6U.s 			page 12


 291              		.loc 1 170 3 is_stmt 1 view .LVU68
 170:../../Drivers/STM32H7xx_HAL_Driver/Src/stm32h7xx_hal.c ****   {
 292              		.loc 1 170 6 is_stmt 0 view .LVU69
 293 0036 0F20     		movs	r0, #15
 294              	.LVL11:
 170:../../Drivers/STM32H7xx_HAL_Driver/Src/stm32h7xx_hal.c ****   {
 295              		.loc 1 170 6 view .LVU70
 296 0038 FFF7FEFF 		bl	HAL_InitTick
 297              	.LVL12:
 170:../../Drivers/STM32H7xx_HAL_Driver/Src/stm32h7xx_hal.c ****   {
 298              		.loc 1 170 5 view .LVU71
 299 003c 10B1     		cbz	r0, .L24
 172:../../Drivers/STM32H7xx_HAL_Driver/Src/stm32h7xx_hal.c ****   }
 300              		.loc 1 172 12 view .LVU72
 301 003e 0124     		movs	r4, #1
 302              	.L21:
 180:../../Drivers/STM32H7xx_HAL_Driver/Src/stm32h7xx_hal.c **** 
 303              		.loc 1 180 1 view .LVU73
 304 0040 2046     		mov	r0, r4
 305 0042 10BD     		pop	{r4, pc}
 306              	.L24:
 307 0044 0446     		mov	r4, r0
 176:../../Drivers/STM32H7xx_HAL_Driver/Src/stm32h7xx_hal.c **** 
 308              		.loc 1 176 3 is_stmt 1 view .LVU74
 309 0046 FFF7FEFF 		bl	HAL_MspInit
 310              	.LVL13:
 179:../../Drivers/STM32H7xx_HAL_Driver/Src/stm32h7xx_hal.c **** }
 311              		.loc 1 179 3 view .LVU75
 179:../../Drivers/STM32H7xx_HAL_Driver/Src/stm32h7xx_hal.c **** }
 312              		.loc 1 179 10 is_stmt 0 view .LVU76
 313 004a F9E7     		b	.L21
 314              	.L26:
 315              		.align	2
 316              	.L25:
 317 004c 00440258 		.word	1476543488
 318 0050 00000000 		.word	D1CorePrescTable
 319 0054 00000000 		.word	SystemD2Clock
 320 0058 00000000 		.word	SystemCoreClock
 321              		.cfi_endproc
 322              	.LFE144:
 324              		.section	.text.HAL_IncTick,"ax",%progbits
 325              		.align	1
 326              		.weak	HAL_IncTick
 327              		.syntax unified
 328              		.thumb
 329              		.thumb_func
 330              		.fpu fpv5-d16
 332              	HAL_IncTick:
 333              	.LFB149:
 290:../../Drivers/STM32H7xx_HAL_Driver/Src/stm32h7xx_hal.c **** 
 291:../../Drivers/STM32H7xx_HAL_Driver/Src/stm32h7xx_hal.c **** /**
 292:../../Drivers/STM32H7xx_HAL_Driver/Src/stm32h7xx_hal.c ****   * @}
 293:../../Drivers/STM32H7xx_HAL_Driver/Src/stm32h7xx_hal.c ****   */
 294:../../Drivers/STM32H7xx_HAL_Driver/Src/stm32h7xx_hal.c **** 
 295:../../Drivers/STM32H7xx_HAL_Driver/Src/stm32h7xx_hal.c **** /** @addtogroup HAL_Group2
 296:../../Drivers/STM32H7xx_HAL_Driver/Src/stm32h7xx_hal.c ****  *  @brief    HAL Control functions
 297:../../Drivers/STM32H7xx_HAL_Driver/Src/stm32h7xx_hal.c ****  *
ARM GAS  /tmp/ccJ8mj6U.s 			page 13


 298:../../Drivers/STM32H7xx_HAL_Driver/Src/stm32h7xx_hal.c **** @verbatim
 299:../../Drivers/STM32H7xx_HAL_Driver/Src/stm32h7xx_hal.c ****  ===============================================================================
 300:../../Drivers/STM32H7xx_HAL_Driver/Src/stm32h7xx_hal.c ****                       ##### HAL Control functions #####
 301:../../Drivers/STM32H7xx_HAL_Driver/Src/stm32h7xx_hal.c ****  ===============================================================================
 302:../../Drivers/STM32H7xx_HAL_Driver/Src/stm32h7xx_hal.c ****     [..]  This section provides functions allowing to:
 303:../../Drivers/STM32H7xx_HAL_Driver/Src/stm32h7xx_hal.c ****       (+) Provide a tick value in millisecond
 304:../../Drivers/STM32H7xx_HAL_Driver/Src/stm32h7xx_hal.c ****       (+) Provide a blocking delay in millisecond
 305:../../Drivers/STM32H7xx_HAL_Driver/Src/stm32h7xx_hal.c ****       (+) Suspend the time base source interrupt
 306:../../Drivers/STM32H7xx_HAL_Driver/Src/stm32h7xx_hal.c ****       (+) Resume the time base source interrupt
 307:../../Drivers/STM32H7xx_HAL_Driver/Src/stm32h7xx_hal.c ****       (+) Get the HAL API driver version
 308:../../Drivers/STM32H7xx_HAL_Driver/Src/stm32h7xx_hal.c ****       (+) Get the device identifier
 309:../../Drivers/STM32H7xx_HAL_Driver/Src/stm32h7xx_hal.c ****       (+) Get the device revision identifier
 310:../../Drivers/STM32H7xx_HAL_Driver/Src/stm32h7xx_hal.c ****       (+) Enable/Disable Debug module during SLEEP mode
 311:../../Drivers/STM32H7xx_HAL_Driver/Src/stm32h7xx_hal.c ****       (+) Enable/Disable Debug module during STOP mode
 312:../../Drivers/STM32H7xx_HAL_Driver/Src/stm32h7xx_hal.c ****       (+) Enable/Disable Debug module during STANDBY mode
 313:../../Drivers/STM32H7xx_HAL_Driver/Src/stm32h7xx_hal.c **** 
 314:../../Drivers/STM32H7xx_HAL_Driver/Src/stm32h7xx_hal.c **** @endverbatim
 315:../../Drivers/STM32H7xx_HAL_Driver/Src/stm32h7xx_hal.c ****   * @{
 316:../../Drivers/STM32H7xx_HAL_Driver/Src/stm32h7xx_hal.c ****   */
 317:../../Drivers/STM32H7xx_HAL_Driver/Src/stm32h7xx_hal.c **** 
 318:../../Drivers/STM32H7xx_HAL_Driver/Src/stm32h7xx_hal.c **** /**
 319:../../Drivers/STM32H7xx_HAL_Driver/Src/stm32h7xx_hal.c ****   * @brief This function is called to increment  a global variable "uwTick"
 320:../../Drivers/STM32H7xx_HAL_Driver/Src/stm32h7xx_hal.c ****   *        used as application time base.
 321:../../Drivers/STM32H7xx_HAL_Driver/Src/stm32h7xx_hal.c ****   * @note In the default implementation, this variable is incremented each 1ms
 322:../../Drivers/STM32H7xx_HAL_Driver/Src/stm32h7xx_hal.c ****   *       in Systick ISR.
 323:../../Drivers/STM32H7xx_HAL_Driver/Src/stm32h7xx_hal.c ****  * @note This function is declared as __weak to be overwritten in case of other
 324:../../Drivers/STM32H7xx_HAL_Driver/Src/stm32h7xx_hal.c ****   *      implementations in user file.
 325:../../Drivers/STM32H7xx_HAL_Driver/Src/stm32h7xx_hal.c ****   * @retval None
 326:../../Drivers/STM32H7xx_HAL_Driver/Src/stm32h7xx_hal.c ****   */
 327:../../Drivers/STM32H7xx_HAL_Driver/Src/stm32h7xx_hal.c **** __weak void HAL_IncTick(void)
 328:../../Drivers/STM32H7xx_HAL_Driver/Src/stm32h7xx_hal.c **** {
 334              		.loc 1 328 1 is_stmt 1 view -0
 335              		.cfi_startproc
 336              		@ args = 0, pretend = 0, frame = 0
 337              		@ frame_needed = 0, uses_anonymous_args = 0
 338              		@ link register save eliminated.
 329:../../Drivers/STM32H7xx_HAL_Driver/Src/stm32h7xx_hal.c ****   uwTick += (uint32_t)uwTickFreq;
 339              		.loc 1 329 3 view .LVU78
 340              		.loc 1 329 13 is_stmt 0 view .LVU79
 341 0000 034B     		ldr	r3, .L28
 342 0002 1B78     		ldrb	r3, [r3]	@ zero_extendqisi2
 343              		.loc 1 329 10 view .LVU80
 344 0004 034A     		ldr	r2, .L28+4
 345 0006 1168     		ldr	r1, [r2]
 346 0008 0B44     		add	r3, r3, r1
 347 000a 1360     		str	r3, [r2]
 330:../../Drivers/STM32H7xx_HAL_Driver/Src/stm32h7xx_hal.c **** }
 348              		.loc 1 330 1 view .LVU81
 349 000c 7047     		bx	lr
 350              	.L29:
 351 000e 00BF     		.align	2
 352              	.L28:
 353 0010 00000000 		.word	.LANCHOR0
 354 0014 00000000 		.word	uwTick
 355              		.cfi_endproc
 356              	.LFE149:
 358              		.section	.text.HAL_GetTick,"ax",%progbits
ARM GAS  /tmp/ccJ8mj6U.s 			page 14


 359              		.align	1
 360              		.weak	HAL_GetTick
 361              		.syntax unified
 362              		.thumb
 363              		.thumb_func
 364              		.fpu fpv5-d16
 366              	HAL_GetTick:
 367              	.LFB150:
 331:../../Drivers/STM32H7xx_HAL_Driver/Src/stm32h7xx_hal.c **** 
 332:../../Drivers/STM32H7xx_HAL_Driver/Src/stm32h7xx_hal.c **** /**
 333:../../Drivers/STM32H7xx_HAL_Driver/Src/stm32h7xx_hal.c ****   * @brief Provides a tick value in millisecond.
 334:../../Drivers/STM32H7xx_HAL_Driver/Src/stm32h7xx_hal.c ****   * @note This function is declared as __weak to be overwritten in case of other
 335:../../Drivers/STM32H7xx_HAL_Driver/Src/stm32h7xx_hal.c ****   *       implementations in user file.
 336:../../Drivers/STM32H7xx_HAL_Driver/Src/stm32h7xx_hal.c ****   * @retval tick value
 337:../../Drivers/STM32H7xx_HAL_Driver/Src/stm32h7xx_hal.c ****   */
 338:../../Drivers/STM32H7xx_HAL_Driver/Src/stm32h7xx_hal.c **** __weak uint32_t HAL_GetTick(void)
 339:../../Drivers/STM32H7xx_HAL_Driver/Src/stm32h7xx_hal.c **** {
 368              		.loc 1 339 1 is_stmt 1 view -0
 369              		.cfi_startproc
 370              		@ args = 0, pretend = 0, frame = 0
 371              		@ frame_needed = 0, uses_anonymous_args = 0
 372              		@ link register save eliminated.
 340:../../Drivers/STM32H7xx_HAL_Driver/Src/stm32h7xx_hal.c ****   return uwTick;
 373              		.loc 1 340 3 view .LVU83
 374              		.loc 1 340 10 is_stmt 0 view .LVU84
 375 0000 014B     		ldr	r3, .L31
 376 0002 1868     		ldr	r0, [r3]
 341:../../Drivers/STM32H7xx_HAL_Driver/Src/stm32h7xx_hal.c **** }
 377              		.loc 1 341 1 view .LVU85
 378 0004 7047     		bx	lr
 379              	.L32:
 380 0006 00BF     		.align	2
 381              	.L31:
 382 0008 00000000 		.word	uwTick
 383              		.cfi_endproc
 384              	.LFE150:
 386              		.section	.text.HAL_GetTickPrio,"ax",%progbits
 387              		.align	1
 388              		.global	HAL_GetTickPrio
 389              		.syntax unified
 390              		.thumb
 391              		.thumb_func
 392              		.fpu fpv5-d16
 394              	HAL_GetTickPrio:
 395              	.LFB151:
 342:../../Drivers/STM32H7xx_HAL_Driver/Src/stm32h7xx_hal.c **** 
 343:../../Drivers/STM32H7xx_HAL_Driver/Src/stm32h7xx_hal.c **** /**
 344:../../Drivers/STM32H7xx_HAL_Driver/Src/stm32h7xx_hal.c ****   * @brief This function returns a tick priority.
 345:../../Drivers/STM32H7xx_HAL_Driver/Src/stm32h7xx_hal.c ****   * @retval tick priority
 346:../../Drivers/STM32H7xx_HAL_Driver/Src/stm32h7xx_hal.c ****   */
 347:../../Drivers/STM32H7xx_HAL_Driver/Src/stm32h7xx_hal.c **** uint32_t HAL_GetTickPrio(void)
 348:../../Drivers/STM32H7xx_HAL_Driver/Src/stm32h7xx_hal.c **** {
 396              		.loc 1 348 1 is_stmt 1 view -0
 397              		.cfi_startproc
 398              		@ args = 0, pretend = 0, frame = 0
 399              		@ frame_needed = 0, uses_anonymous_args = 0
 400              		@ link register save eliminated.
ARM GAS  /tmp/ccJ8mj6U.s 			page 15


 349:../../Drivers/STM32H7xx_HAL_Driver/Src/stm32h7xx_hal.c ****   return uwTickPrio;
 401              		.loc 1 349 3 view .LVU87
 350:../../Drivers/STM32H7xx_HAL_Driver/Src/stm32h7xx_hal.c **** }
 402              		.loc 1 350 1 is_stmt 0 view .LVU88
 403 0000 014B     		ldr	r3, .L34
 404 0002 1868     		ldr	r0, [r3]
 405 0004 7047     		bx	lr
 406              	.L35:
 407 0006 00BF     		.align	2
 408              	.L34:
 409 0008 00000000 		.word	.LANCHOR1
 410              		.cfi_endproc
 411              	.LFE151:
 413              		.section	.text.HAL_SetTickFreq,"ax",%progbits
 414              		.align	1
 415              		.global	HAL_SetTickFreq
 416              		.syntax unified
 417              		.thumb
 418              		.thumb_func
 419              		.fpu fpv5-d16
 421              	HAL_SetTickFreq:
 422              	.LVL14:
 423              	.LFB152:
 351:../../Drivers/STM32H7xx_HAL_Driver/Src/stm32h7xx_hal.c **** 
 352:../../Drivers/STM32H7xx_HAL_Driver/Src/stm32h7xx_hal.c **** /**
 353:../../Drivers/STM32H7xx_HAL_Driver/Src/stm32h7xx_hal.c ****   * @brief Set new tick Freq.
 354:../../Drivers/STM32H7xx_HAL_Driver/Src/stm32h7xx_hal.c ****   * @retval Status
 355:../../Drivers/STM32H7xx_HAL_Driver/Src/stm32h7xx_hal.c ****   */
 356:../../Drivers/STM32H7xx_HAL_Driver/Src/stm32h7xx_hal.c **** HAL_StatusTypeDef HAL_SetTickFreq(HAL_TickFreqTypeDef Freq)
 357:../../Drivers/STM32H7xx_HAL_Driver/Src/stm32h7xx_hal.c **** {
 424              		.loc 1 357 1 is_stmt 1 view -0
 425              		.cfi_startproc
 426              		@ args = 0, pretend = 0, frame = 0
 427              		@ frame_needed = 0, uses_anonymous_args = 0
 428              		.loc 1 357 1 is_stmt 0 view .LVU90
 429 0000 10B5     		push	{r4, lr}
 430              	.LCFI3:
 431              		.cfi_def_cfa_offset 8
 432              		.cfi_offset 4, -8
 433              		.cfi_offset 14, -4
 358:../../Drivers/STM32H7xx_HAL_Driver/Src/stm32h7xx_hal.c ****   HAL_StatusTypeDef status  = HAL_OK;
 434              		.loc 1 358 3 is_stmt 1 view .LVU91
 435              	.LVL15:
 359:../../Drivers/STM32H7xx_HAL_Driver/Src/stm32h7xx_hal.c ****   HAL_TickFreqTypeDef prevTickFreq;
 436              		.loc 1 359 3 view .LVU92
 360:../../Drivers/STM32H7xx_HAL_Driver/Src/stm32h7xx_hal.c **** 
 361:../../Drivers/STM32H7xx_HAL_Driver/Src/stm32h7xx_hal.c ****   assert_param(IS_TICKFREQ(Freq));
 437              		.loc 1 361 3 view .LVU93
 362:../../Drivers/STM32H7xx_HAL_Driver/Src/stm32h7xx_hal.c **** 
 363:../../Drivers/STM32H7xx_HAL_Driver/Src/stm32h7xx_hal.c ****   if (uwTickFreq != Freq)
 438              		.loc 1 363 3 view .LVU94
 439              		.loc 1 363 18 is_stmt 0 view .LVU95
 440 0002 084B     		ldr	r3, .L41
 441 0004 1C78     		ldrb	r4, [r3]	@ zero_extendqisi2
 442              		.loc 1 363 6 view .LVU96
 443 0006 8442     		cmp	r4, r0
 444 0008 01D1     		bne	.L40
ARM GAS  /tmp/ccJ8mj6U.s 			page 16


 358:../../Drivers/STM32H7xx_HAL_Driver/Src/stm32h7xx_hal.c ****   HAL_TickFreqTypeDef prevTickFreq;
 445              		.loc 1 358 21 view .LVU97
 446 000a 0020     		movs	r0, #0
 447              	.LVL16:
 448              	.L37:
 364:../../Drivers/STM32H7xx_HAL_Driver/Src/stm32h7xx_hal.c ****   {
 365:../../Drivers/STM32H7xx_HAL_Driver/Src/stm32h7xx_hal.c **** 
 366:../../Drivers/STM32H7xx_HAL_Driver/Src/stm32h7xx_hal.c ****     /* Back up uwTickFreq frequency */
 367:../../Drivers/STM32H7xx_HAL_Driver/Src/stm32h7xx_hal.c ****     prevTickFreq = uwTickFreq;
 368:../../Drivers/STM32H7xx_HAL_Driver/Src/stm32h7xx_hal.c **** 
 369:../../Drivers/STM32H7xx_HAL_Driver/Src/stm32h7xx_hal.c ****     /* Update uwTickFreq global variable used by HAL_InitTick() */
 370:../../Drivers/STM32H7xx_HAL_Driver/Src/stm32h7xx_hal.c ****     uwTickFreq = Freq;
 371:../../Drivers/STM32H7xx_HAL_Driver/Src/stm32h7xx_hal.c **** 
 372:../../Drivers/STM32H7xx_HAL_Driver/Src/stm32h7xx_hal.c ****     /* Apply the new tick Freq  */
 373:../../Drivers/STM32H7xx_HAL_Driver/Src/stm32h7xx_hal.c ****     status = HAL_InitTick(uwTickPrio);
 374:../../Drivers/STM32H7xx_HAL_Driver/Src/stm32h7xx_hal.c ****     if (status != HAL_OK)
 375:../../Drivers/STM32H7xx_HAL_Driver/Src/stm32h7xx_hal.c ****     {
 376:../../Drivers/STM32H7xx_HAL_Driver/Src/stm32h7xx_hal.c ****       /* Restore previous tick frequency */
 377:../../Drivers/STM32H7xx_HAL_Driver/Src/stm32h7xx_hal.c ****       uwTickFreq = prevTickFreq;
 378:../../Drivers/STM32H7xx_HAL_Driver/Src/stm32h7xx_hal.c ****     }
 379:../../Drivers/STM32H7xx_HAL_Driver/Src/stm32h7xx_hal.c ****   }
 380:../../Drivers/STM32H7xx_HAL_Driver/Src/stm32h7xx_hal.c **** 
 381:../../Drivers/STM32H7xx_HAL_Driver/Src/stm32h7xx_hal.c ****   return status;
 449              		.loc 1 381 3 is_stmt 1 view .LVU98
 382:../../Drivers/STM32H7xx_HAL_Driver/Src/stm32h7xx_hal.c **** }
 450              		.loc 1 382 1 is_stmt 0 view .LVU99
 451 000c 10BD     		pop	{r4, pc}
 452              	.LVL17:
 453              	.L40:
 367:../../Drivers/STM32H7xx_HAL_Driver/Src/stm32h7xx_hal.c **** 
 454              		.loc 1 367 5 is_stmt 1 view .LVU100
 370:../../Drivers/STM32H7xx_HAL_Driver/Src/stm32h7xx_hal.c **** 
 455              		.loc 1 370 5 view .LVU101
 370:../../Drivers/STM32H7xx_HAL_Driver/Src/stm32h7xx_hal.c **** 
 456              		.loc 1 370 16 is_stmt 0 view .LVU102
 457 000e 1870     		strb	r0, [r3]
 373:../../Drivers/STM32H7xx_HAL_Driver/Src/stm32h7xx_hal.c ****     if (status != HAL_OK)
 458              		.loc 1 373 5 is_stmt 1 view .LVU103
 373:../../Drivers/STM32H7xx_HAL_Driver/Src/stm32h7xx_hal.c ****     if (status != HAL_OK)
 459              		.loc 1 373 14 is_stmt 0 view .LVU104
 460 0010 054B     		ldr	r3, .L41+4
 461 0012 1868     		ldr	r0, [r3]
 462              	.LVL18:
 373:../../Drivers/STM32H7xx_HAL_Driver/Src/stm32h7xx_hal.c ****     if (status != HAL_OK)
 463              		.loc 1 373 14 view .LVU105
 464 0014 FFF7FEFF 		bl	HAL_InitTick
 465              	.LVL19:
 374:../../Drivers/STM32H7xx_HAL_Driver/Src/stm32h7xx_hal.c ****     {
 466              		.loc 1 374 5 is_stmt 1 view .LVU106
 374:../../Drivers/STM32H7xx_HAL_Driver/Src/stm32h7xx_hal.c ****     {
 467              		.loc 1 374 8 is_stmt 0 view .LVU107
 468 0018 0028     		cmp	r0, #0
 469 001a F7D0     		beq	.L37
 377:../../Drivers/STM32H7xx_HAL_Driver/Src/stm32h7xx_hal.c ****     }
 470              		.loc 1 377 7 is_stmt 1 view .LVU108
 377:../../Drivers/STM32H7xx_HAL_Driver/Src/stm32h7xx_hal.c ****     }
 471              		.loc 1 377 18 is_stmt 0 view .LVU109
ARM GAS  /tmp/ccJ8mj6U.s 			page 17


 472 001c 014B     		ldr	r3, .L41
 473 001e 1C70     		strb	r4, [r3]
 474 0020 F4E7     		b	.L37
 475              	.L42:
 476 0022 00BF     		.align	2
 477              	.L41:
 478 0024 00000000 		.word	.LANCHOR0
 479 0028 00000000 		.word	.LANCHOR1
 480              		.cfi_endproc
 481              	.LFE152:
 483              		.section	.text.HAL_GetTickFreq,"ax",%progbits
 484              		.align	1
 485              		.global	HAL_GetTickFreq
 486              		.syntax unified
 487              		.thumb
 488              		.thumb_func
 489              		.fpu fpv5-d16
 491              	HAL_GetTickFreq:
 492              	.LFB153:
 383:../../Drivers/STM32H7xx_HAL_Driver/Src/stm32h7xx_hal.c **** 
 384:../../Drivers/STM32H7xx_HAL_Driver/Src/stm32h7xx_hal.c **** /**
 385:../../Drivers/STM32H7xx_HAL_Driver/Src/stm32h7xx_hal.c ****   * @brief Return tick frequency.
 386:../../Drivers/STM32H7xx_HAL_Driver/Src/stm32h7xx_hal.c ****   * @retval tick period in Hz
 387:../../Drivers/STM32H7xx_HAL_Driver/Src/stm32h7xx_hal.c ****   */
 388:../../Drivers/STM32H7xx_HAL_Driver/Src/stm32h7xx_hal.c **** HAL_TickFreqTypeDef HAL_GetTickFreq(void)
 389:../../Drivers/STM32H7xx_HAL_Driver/Src/stm32h7xx_hal.c **** {
 493              		.loc 1 389 1 is_stmt 1 view -0
 494              		.cfi_startproc
 495              		@ args = 0, pretend = 0, frame = 0
 496              		@ frame_needed = 0, uses_anonymous_args = 0
 497              		@ link register save eliminated.
 390:../../Drivers/STM32H7xx_HAL_Driver/Src/stm32h7xx_hal.c ****   return uwTickFreq;
 498              		.loc 1 390 3 view .LVU111
 391:../../Drivers/STM32H7xx_HAL_Driver/Src/stm32h7xx_hal.c **** }
 499              		.loc 1 391 1 is_stmt 0 view .LVU112
 500 0000 014B     		ldr	r3, .L44
 501 0002 1878     		ldrb	r0, [r3]	@ zero_extendqisi2
 502 0004 7047     		bx	lr
 503              	.L45:
 504 0006 00BF     		.align	2
 505              	.L44:
 506 0008 00000000 		.word	.LANCHOR0
 507              		.cfi_endproc
 508              	.LFE153:
 510              		.section	.text.HAL_Delay,"ax",%progbits
 511              		.align	1
 512              		.weak	HAL_Delay
 513              		.syntax unified
 514              		.thumb
 515              		.thumb_func
 516              		.fpu fpv5-d16
 518              	HAL_Delay:
 519              	.LVL20:
 520              	.LFB154:
 392:../../Drivers/STM32H7xx_HAL_Driver/Src/stm32h7xx_hal.c **** 
 393:../../Drivers/STM32H7xx_HAL_Driver/Src/stm32h7xx_hal.c **** /**
 394:../../Drivers/STM32H7xx_HAL_Driver/Src/stm32h7xx_hal.c ****   * @brief This function provides minimum delay (in milliseconds) based
ARM GAS  /tmp/ccJ8mj6U.s 			page 18


 395:../../Drivers/STM32H7xx_HAL_Driver/Src/stm32h7xx_hal.c ****   *        on variable incremented.
 396:../../Drivers/STM32H7xx_HAL_Driver/Src/stm32h7xx_hal.c ****   * @note In the default implementation , SysTick timer is the source of time base.
 397:../../Drivers/STM32H7xx_HAL_Driver/Src/stm32h7xx_hal.c ****   *       It is used to generate interrupts at regular time intervals where uwTick
 398:../../Drivers/STM32H7xx_HAL_Driver/Src/stm32h7xx_hal.c ****   *       is incremented.
 399:../../Drivers/STM32H7xx_HAL_Driver/Src/stm32h7xx_hal.c ****   * @note This function is declared as __weak to be overwritten in case of other
 400:../../Drivers/STM32H7xx_HAL_Driver/Src/stm32h7xx_hal.c ****   *       implementations in user file.
 401:../../Drivers/STM32H7xx_HAL_Driver/Src/stm32h7xx_hal.c ****   * @param Delay  specifies the delay time length, in milliseconds.
 402:../../Drivers/STM32H7xx_HAL_Driver/Src/stm32h7xx_hal.c ****   * @retval None
 403:../../Drivers/STM32H7xx_HAL_Driver/Src/stm32h7xx_hal.c ****   */
 404:../../Drivers/STM32H7xx_HAL_Driver/Src/stm32h7xx_hal.c **** __weak void HAL_Delay(uint32_t Delay)
 405:../../Drivers/STM32H7xx_HAL_Driver/Src/stm32h7xx_hal.c **** {
 521              		.loc 1 405 1 is_stmt 1 view -0
 522              		.cfi_startproc
 523              		@ args = 0, pretend = 0, frame = 0
 524              		@ frame_needed = 0, uses_anonymous_args = 0
 525              		.loc 1 405 1 is_stmt 0 view .LVU114
 526 0000 38B5     		push	{r3, r4, r5, lr}
 527              	.LCFI4:
 528              		.cfi_def_cfa_offset 16
 529              		.cfi_offset 3, -16
 530              		.cfi_offset 4, -12
 531              		.cfi_offset 5, -8
 532              		.cfi_offset 14, -4
 533 0002 0446     		mov	r4, r0
 406:../../Drivers/STM32H7xx_HAL_Driver/Src/stm32h7xx_hal.c ****   uint32_t tickstart = HAL_GetTick();
 534              		.loc 1 406 3 is_stmt 1 view .LVU115
 535              		.loc 1 406 24 is_stmt 0 view .LVU116
 536 0004 FFF7FEFF 		bl	HAL_GetTick
 537              	.LVL21:
 538              		.loc 1 406 24 view .LVU117
 539 0008 0546     		mov	r5, r0
 540              	.LVL22:
 407:../../Drivers/STM32H7xx_HAL_Driver/Src/stm32h7xx_hal.c ****   uint32_t wait = Delay;
 541              		.loc 1 407 3 is_stmt 1 view .LVU118
 408:../../Drivers/STM32H7xx_HAL_Driver/Src/stm32h7xx_hal.c **** 
 409:../../Drivers/STM32H7xx_HAL_Driver/Src/stm32h7xx_hal.c ****   /* Add a freq to guarantee minimum wait */
 410:../../Drivers/STM32H7xx_HAL_Driver/Src/stm32h7xx_hal.c ****   if (wait < HAL_MAX_DELAY)
 542              		.loc 1 410 3 view .LVU119
 543              		.loc 1 410 6 is_stmt 0 view .LVU120
 544 000a B4F1FF3F 		cmp	r4, #-1
 545 000e 02D0     		beq	.L48
 411:../../Drivers/STM32H7xx_HAL_Driver/Src/stm32h7xx_hal.c ****   {
 412:../../Drivers/STM32H7xx_HAL_Driver/Src/stm32h7xx_hal.c ****     wait += (uint32_t)(uwTickFreq);
 546              		.loc 1 412 5 is_stmt 1 view .LVU121
 547              		.loc 1 412 13 is_stmt 0 view .LVU122
 548 0010 044B     		ldr	r3, .L50
 549 0012 1B78     		ldrb	r3, [r3]	@ zero_extendqisi2
 550              		.loc 1 412 10 view .LVU123
 551 0014 1C44     		add	r4, r4, r3
 552              	.LVL23:
 553              	.L48:
 413:../../Drivers/STM32H7xx_HAL_Driver/Src/stm32h7xx_hal.c ****   }
 414:../../Drivers/STM32H7xx_HAL_Driver/Src/stm32h7xx_hal.c **** 
 415:../../Drivers/STM32H7xx_HAL_Driver/Src/stm32h7xx_hal.c ****   while ((HAL_GetTick() - tickstart) < wait)
 416:../../Drivers/STM32H7xx_HAL_Driver/Src/stm32h7xx_hal.c ****   {
 417:../../Drivers/STM32H7xx_HAL_Driver/Src/stm32h7xx_hal.c ****   }
 554              		.loc 1 417 3 is_stmt 1 discriminator 1 view .LVU124
ARM GAS  /tmp/ccJ8mj6U.s 			page 19


 415:../../Drivers/STM32H7xx_HAL_Driver/Src/stm32h7xx_hal.c ****   {
 555              		.loc 1 415 9 discriminator 1 view .LVU125
 415:../../Drivers/STM32H7xx_HAL_Driver/Src/stm32h7xx_hal.c ****   {
 556              		.loc 1 415 11 is_stmt 0 discriminator 1 view .LVU126
 557 0016 FFF7FEFF 		bl	HAL_GetTick
 558              	.LVL24:
 415:../../Drivers/STM32H7xx_HAL_Driver/Src/stm32h7xx_hal.c ****   {
 559              		.loc 1 415 25 discriminator 1 view .LVU127
 560 001a 401B     		subs	r0, r0, r5
 415:../../Drivers/STM32H7xx_HAL_Driver/Src/stm32h7xx_hal.c ****   {
 561              		.loc 1 415 9 discriminator 1 view .LVU128
 562 001c A042     		cmp	r0, r4
 563 001e FAD3     		bcc	.L48
 418:../../Drivers/STM32H7xx_HAL_Driver/Src/stm32h7xx_hal.c **** }
 564              		.loc 1 418 1 view .LVU129
 565 0020 38BD     		pop	{r3, r4, r5, pc}
 566              	.LVL25:
 567              	.L51:
 568              		.loc 1 418 1 view .LVU130
 569 0022 00BF     		.align	2
 570              	.L50:
 571 0024 00000000 		.word	.LANCHOR0
 572              		.cfi_endproc
 573              	.LFE154:
 575              		.section	.text.HAL_SuspendTick,"ax",%progbits
 576              		.align	1
 577              		.weak	HAL_SuspendTick
 578              		.syntax unified
 579              		.thumb
 580              		.thumb_func
 581              		.fpu fpv5-d16
 583              	HAL_SuspendTick:
 584              	.LFB155:
 419:../../Drivers/STM32H7xx_HAL_Driver/Src/stm32h7xx_hal.c **** 
 420:../../Drivers/STM32H7xx_HAL_Driver/Src/stm32h7xx_hal.c **** /**
 421:../../Drivers/STM32H7xx_HAL_Driver/Src/stm32h7xx_hal.c ****   * @brief Suspend Tick increment.
 422:../../Drivers/STM32H7xx_HAL_Driver/Src/stm32h7xx_hal.c ****   * @note In the default implementation , SysTick timer is the source of time base. It is
 423:../../Drivers/STM32H7xx_HAL_Driver/Src/stm32h7xx_hal.c ****   *       used to generate interrupts at regular time intervals. Once HAL_SuspendTick()
 424:../../Drivers/STM32H7xx_HAL_Driver/Src/stm32h7xx_hal.c ****   *       is called, the SysTick interrupt will be disabled and so Tick increment
 425:../../Drivers/STM32H7xx_HAL_Driver/Src/stm32h7xx_hal.c ****   *       is suspended.
 426:../../Drivers/STM32H7xx_HAL_Driver/Src/stm32h7xx_hal.c ****   * @note This function is declared as __weak to be overwritten in case of other
 427:../../Drivers/STM32H7xx_HAL_Driver/Src/stm32h7xx_hal.c ****   *       implementations in user file.
 428:../../Drivers/STM32H7xx_HAL_Driver/Src/stm32h7xx_hal.c ****   * @retval None
 429:../../Drivers/STM32H7xx_HAL_Driver/Src/stm32h7xx_hal.c ****   */
 430:../../Drivers/STM32H7xx_HAL_Driver/Src/stm32h7xx_hal.c **** __weak void HAL_SuspendTick(void)
 431:../../Drivers/STM32H7xx_HAL_Driver/Src/stm32h7xx_hal.c **** {
 585              		.loc 1 431 1 is_stmt 1 view -0
 586              		.cfi_startproc
 587              		@ args = 0, pretend = 0, frame = 0
 588              		@ frame_needed = 0, uses_anonymous_args = 0
 589              		@ link register save eliminated.
 432:../../Drivers/STM32H7xx_HAL_Driver/Src/stm32h7xx_hal.c ****   /* Disable SysTick Interrupt */
 433:../../Drivers/STM32H7xx_HAL_Driver/Src/stm32h7xx_hal.c ****   SysTick->CTRL &= ~SysTick_CTRL_TICKINT_Msk;
 590              		.loc 1 433 3 view .LVU132
 591              		.loc 1 433 17 is_stmt 0 view .LVU133
 592 0000 024A     		ldr	r2, .L53
 593 0002 1368     		ldr	r3, [r2]
ARM GAS  /tmp/ccJ8mj6U.s 			page 20


 594 0004 23F00203 		bic	r3, r3, #2
 595 0008 1360     		str	r3, [r2]
 434:../../Drivers/STM32H7xx_HAL_Driver/Src/stm32h7xx_hal.c **** }
 596              		.loc 1 434 1 view .LVU134
 597 000a 7047     		bx	lr
 598              	.L54:
 599              		.align	2
 600              	.L53:
 601 000c 10E000E0 		.word	-536813552
 602              		.cfi_endproc
 603              	.LFE155:
 605              		.section	.text.HAL_ResumeTick,"ax",%progbits
 606              		.align	1
 607              		.weak	HAL_ResumeTick
 608              		.syntax unified
 609              		.thumb
 610              		.thumb_func
 611              		.fpu fpv5-d16
 613              	HAL_ResumeTick:
 614              	.LFB156:
 435:../../Drivers/STM32H7xx_HAL_Driver/Src/stm32h7xx_hal.c **** 
 436:../../Drivers/STM32H7xx_HAL_Driver/Src/stm32h7xx_hal.c **** /**
 437:../../Drivers/STM32H7xx_HAL_Driver/Src/stm32h7xx_hal.c ****   * @brief Resume Tick increment.
 438:../../Drivers/STM32H7xx_HAL_Driver/Src/stm32h7xx_hal.c ****   * @note In the default implementation , SysTick timer is the source of time base. It is
 439:../../Drivers/STM32H7xx_HAL_Driver/Src/stm32h7xx_hal.c ****   *       used to generate interrupts at regular time intervals. Once HAL_ResumeTick()
 440:../../Drivers/STM32H7xx_HAL_Driver/Src/stm32h7xx_hal.c ****   *       is called, the SysTick interrupt will be enabled and so Tick increment
 441:../../Drivers/STM32H7xx_HAL_Driver/Src/stm32h7xx_hal.c ****   *       is resumed.
 442:../../Drivers/STM32H7xx_HAL_Driver/Src/stm32h7xx_hal.c ****   * @note This function is declared as __weak to be overwritten in case of other
 443:../../Drivers/STM32H7xx_HAL_Driver/Src/stm32h7xx_hal.c ****   *       implementations in user file.
 444:../../Drivers/STM32H7xx_HAL_Driver/Src/stm32h7xx_hal.c ****   * @retval None
 445:../../Drivers/STM32H7xx_HAL_Driver/Src/stm32h7xx_hal.c ****   */
 446:../../Drivers/STM32H7xx_HAL_Driver/Src/stm32h7xx_hal.c **** __weak void HAL_ResumeTick(void)
 447:../../Drivers/STM32H7xx_HAL_Driver/Src/stm32h7xx_hal.c **** {
 615              		.loc 1 447 1 is_stmt 1 view -0
 616              		.cfi_startproc
 617              		@ args = 0, pretend = 0, frame = 0
 618              		@ frame_needed = 0, uses_anonymous_args = 0
 619              		@ link register save eliminated.
 448:../../Drivers/STM32H7xx_HAL_Driver/Src/stm32h7xx_hal.c ****   /* Enable SysTick Interrupt */
 449:../../Drivers/STM32H7xx_HAL_Driver/Src/stm32h7xx_hal.c ****   SysTick->CTRL  |= SysTick_CTRL_TICKINT_Msk;
 620              		.loc 1 449 3 view .LVU136
 621              		.loc 1 449 18 is_stmt 0 view .LVU137
 622 0000 024A     		ldr	r2, .L56
 623 0002 1368     		ldr	r3, [r2]
 624 0004 43F00203 		orr	r3, r3, #2
 625 0008 1360     		str	r3, [r2]
 450:../../Drivers/STM32H7xx_HAL_Driver/Src/stm32h7xx_hal.c **** }
 626              		.loc 1 450 1 view .LVU138
 627 000a 7047     		bx	lr
 628              	.L57:
 629              		.align	2
 630              	.L56:
 631 000c 10E000E0 		.word	-536813552
 632              		.cfi_endproc
 633              	.LFE156:
 635              		.section	.text.HAL_GetHalVersion,"ax",%progbits
 636              		.align	1
ARM GAS  /tmp/ccJ8mj6U.s 			page 21


 637              		.global	HAL_GetHalVersion
 638              		.syntax unified
 639              		.thumb
 640              		.thumb_func
 641              		.fpu fpv5-d16
 643              	HAL_GetHalVersion:
 644              	.LFB157:
 451:../../Drivers/STM32H7xx_HAL_Driver/Src/stm32h7xx_hal.c **** 
 452:../../Drivers/STM32H7xx_HAL_Driver/Src/stm32h7xx_hal.c **** /**
 453:../../Drivers/STM32H7xx_HAL_Driver/Src/stm32h7xx_hal.c ****   * @brief  Returns the HAL revision
 454:../../Drivers/STM32H7xx_HAL_Driver/Src/stm32h7xx_hal.c ****   * @retval version : 0xXYZR (8bits for each decimal, R for RC)
 455:../../Drivers/STM32H7xx_HAL_Driver/Src/stm32h7xx_hal.c ****   */
 456:../../Drivers/STM32H7xx_HAL_Driver/Src/stm32h7xx_hal.c **** uint32_t HAL_GetHalVersion(void)
 457:../../Drivers/STM32H7xx_HAL_Driver/Src/stm32h7xx_hal.c **** {
 645              		.loc 1 457 1 is_stmt 1 view -0
 646              		.cfi_startproc
 647              		@ args = 0, pretend = 0, frame = 0
 648              		@ frame_needed = 0, uses_anonymous_args = 0
 649              		@ link register save eliminated.
 458:../../Drivers/STM32H7xx_HAL_Driver/Src/stm32h7xx_hal.c ****  return __STM32H7xx_HAL_VERSION;
 650              		.loc 1 458 2 view .LVU140
 459:../../Drivers/STM32H7xx_HAL_Driver/Src/stm32h7xx_hal.c **** }
 651              		.loc 1 459 1 is_stmt 0 view .LVU141
 652 0000 0048     		ldr	r0, .L59
 653 0002 7047     		bx	lr
 654              	.L60:
 655              		.align	2
 656              	.L59:
 657 0004 00010B01 		.word	17498368
 658              		.cfi_endproc
 659              	.LFE157:
 661              		.section	.text.HAL_GetREVID,"ax",%progbits
 662              		.align	1
 663              		.global	HAL_GetREVID
 664              		.syntax unified
 665              		.thumb
 666              		.thumb_func
 667              		.fpu fpv5-d16
 669              	HAL_GetREVID:
 670              	.LFB158:
 460:../../Drivers/STM32H7xx_HAL_Driver/Src/stm32h7xx_hal.c **** 
 461:../../Drivers/STM32H7xx_HAL_Driver/Src/stm32h7xx_hal.c **** /**
 462:../../Drivers/STM32H7xx_HAL_Driver/Src/stm32h7xx_hal.c ****   * @brief  Returns the device revision identifier.
 463:../../Drivers/STM32H7xx_HAL_Driver/Src/stm32h7xx_hal.c ****   * @retval Device revision identifier
 464:../../Drivers/STM32H7xx_HAL_Driver/Src/stm32h7xx_hal.c ****   */
 465:../../Drivers/STM32H7xx_HAL_Driver/Src/stm32h7xx_hal.c **** uint32_t HAL_GetREVID(void)
 466:../../Drivers/STM32H7xx_HAL_Driver/Src/stm32h7xx_hal.c **** {
 671              		.loc 1 466 1 is_stmt 1 view -0
 672              		.cfi_startproc
 673              		@ args = 0, pretend = 0, frame = 0
 674              		@ frame_needed = 0, uses_anonymous_args = 0
 675              		@ link register save eliminated.
 467:../../Drivers/STM32H7xx_HAL_Driver/Src/stm32h7xx_hal.c ****    return((DBGMCU->IDCODE) >> 16);
 676              		.loc 1 467 4 view .LVU143
 677              		.loc 1 467 18 is_stmt 0 view .LVU144
 678 0000 014B     		ldr	r3, .L62
 679 0002 1868     		ldr	r0, [r3]
ARM GAS  /tmp/ccJ8mj6U.s 			page 22


 468:../../Drivers/STM32H7xx_HAL_Driver/Src/stm32h7xx_hal.c **** }
 680              		.loc 1 468 1 view .LVU145
 681 0004 000C     		lsrs	r0, r0, #16
 682 0006 7047     		bx	lr
 683              	.L63:
 684              		.align	2
 685              	.L62:
 686 0008 0010005C 		.word	1543507968
 687              		.cfi_endproc
 688              	.LFE158:
 690              		.section	.text.HAL_GetDEVID,"ax",%progbits
 691              		.align	1
 692              		.global	HAL_GetDEVID
 693              		.syntax unified
 694              		.thumb
 695              		.thumb_func
 696              		.fpu fpv5-d16
 698              	HAL_GetDEVID:
 699              	.LFB159:
 469:../../Drivers/STM32H7xx_HAL_Driver/Src/stm32h7xx_hal.c **** 
 470:../../Drivers/STM32H7xx_HAL_Driver/Src/stm32h7xx_hal.c **** /**
 471:../../Drivers/STM32H7xx_HAL_Driver/Src/stm32h7xx_hal.c ****   * @brief  Returns the device identifier.
 472:../../Drivers/STM32H7xx_HAL_Driver/Src/stm32h7xx_hal.c ****   * @retval Device identifier
 473:../../Drivers/STM32H7xx_HAL_Driver/Src/stm32h7xx_hal.c ****   */
 474:../../Drivers/STM32H7xx_HAL_Driver/Src/stm32h7xx_hal.c **** uint32_t HAL_GetDEVID(void)
 475:../../Drivers/STM32H7xx_HAL_Driver/Src/stm32h7xx_hal.c **** {
 700              		.loc 1 475 1 is_stmt 1 view -0
 701              		.cfi_startproc
 702              		@ args = 0, pretend = 0, frame = 0
 703              		@ frame_needed = 0, uses_anonymous_args = 0
 704              		@ link register save eliminated.
 476:../../Drivers/STM32H7xx_HAL_Driver/Src/stm32h7xx_hal.c ****    return((DBGMCU->IDCODE) & IDCODE_DEVID_MASK);
 705              		.loc 1 476 4 view .LVU147
 706              		.loc 1 476 18 is_stmt 0 view .LVU148
 707 0000 024B     		ldr	r3, .L65
 708 0002 1868     		ldr	r0, [r3]
 477:../../Drivers/STM32H7xx_HAL_Driver/Src/stm32h7xx_hal.c **** }
 709              		.loc 1 477 1 view .LVU149
 710 0004 C0F30B00 		ubfx	r0, r0, #0, #12
 711 0008 7047     		bx	lr
 712              	.L66:
 713 000a 00BF     		.align	2
 714              	.L65:
 715 000c 0010005C 		.word	1543507968
 716              		.cfi_endproc
 717              	.LFE159:
 719              		.section	.text.HAL_GetUIDw0,"ax",%progbits
 720              		.align	1
 721              		.global	HAL_GetUIDw0
 722              		.syntax unified
 723              		.thumb
 724              		.thumb_func
 725              		.fpu fpv5-d16
 727              	HAL_GetUIDw0:
 728              	.LFB160:
 478:../../Drivers/STM32H7xx_HAL_Driver/Src/stm32h7xx_hal.c **** 
 479:../../Drivers/STM32H7xx_HAL_Driver/Src/stm32h7xx_hal.c **** /**
ARM GAS  /tmp/ccJ8mj6U.s 			page 23


 480:../../Drivers/STM32H7xx_HAL_Driver/Src/stm32h7xx_hal.c ****   * @brief  Return the first word of the unique device identifier (UID based on 96 bits)
 481:../../Drivers/STM32H7xx_HAL_Driver/Src/stm32h7xx_hal.c ****   * @retval Device identifier
 482:../../Drivers/STM32H7xx_HAL_Driver/Src/stm32h7xx_hal.c ****   */
 483:../../Drivers/STM32H7xx_HAL_Driver/Src/stm32h7xx_hal.c **** uint32_t HAL_GetUIDw0(void)
 484:../../Drivers/STM32H7xx_HAL_Driver/Src/stm32h7xx_hal.c **** {
 729              		.loc 1 484 1 is_stmt 1 view -0
 730              		.cfi_startproc
 731              		@ args = 0, pretend = 0, frame = 0
 732              		@ frame_needed = 0, uses_anonymous_args = 0
 733              		@ link register save eliminated.
 485:../../Drivers/STM32H7xx_HAL_Driver/Src/stm32h7xx_hal.c ****   return(READ_REG(*((uint32_t *)UID_BASE)));
 734              		.loc 1 485 3 view .LVU151
 486:../../Drivers/STM32H7xx_HAL_Driver/Src/stm32h7xx_hal.c **** }
 735              		.loc 1 486 1 is_stmt 0 view .LVU152
 736 0000 014B     		ldr	r3, .L68
 737 0002 1868     		ldr	r0, [r3]
 738 0004 7047     		bx	lr
 739              	.L69:
 740 0006 00BF     		.align	2
 741              	.L68:
 742 0008 00E8F11F 		.word	535947264
 743              		.cfi_endproc
 744              	.LFE160:
 746              		.section	.text.HAL_GetUIDw1,"ax",%progbits
 747              		.align	1
 748              		.global	HAL_GetUIDw1
 749              		.syntax unified
 750              		.thumb
 751              		.thumb_func
 752              		.fpu fpv5-d16
 754              	HAL_GetUIDw1:
 755              	.LFB161:
 487:../../Drivers/STM32H7xx_HAL_Driver/Src/stm32h7xx_hal.c **** 
 488:../../Drivers/STM32H7xx_HAL_Driver/Src/stm32h7xx_hal.c **** /**
 489:../../Drivers/STM32H7xx_HAL_Driver/Src/stm32h7xx_hal.c ****   * @brief  Return the second word of the unique device identifier (UID based on 96 bits)
 490:../../Drivers/STM32H7xx_HAL_Driver/Src/stm32h7xx_hal.c ****   * @retval Device identifier
 491:../../Drivers/STM32H7xx_HAL_Driver/Src/stm32h7xx_hal.c ****   */
 492:../../Drivers/STM32H7xx_HAL_Driver/Src/stm32h7xx_hal.c **** uint32_t HAL_GetUIDw1(void)
 493:../../Drivers/STM32H7xx_HAL_Driver/Src/stm32h7xx_hal.c **** {
 756              		.loc 1 493 1 is_stmt 1 view -0
 757              		.cfi_startproc
 758              		@ args = 0, pretend = 0, frame = 0
 759              		@ frame_needed = 0, uses_anonymous_args = 0
 760              		@ link register save eliminated.
 494:../../Drivers/STM32H7xx_HAL_Driver/Src/stm32h7xx_hal.c ****   return(READ_REG(*((uint32_t *)(UID_BASE + 4U))));
 761              		.loc 1 494 3 view .LVU154
 495:../../Drivers/STM32H7xx_HAL_Driver/Src/stm32h7xx_hal.c **** }
 762              		.loc 1 495 1 is_stmt 0 view .LVU155
 763 0000 014B     		ldr	r3, .L71
 764 0002 1868     		ldr	r0, [r3]
 765 0004 7047     		bx	lr
 766              	.L72:
 767 0006 00BF     		.align	2
 768              	.L71:
 769 0008 04E8F11F 		.word	535947268
 770              		.cfi_endproc
 771              	.LFE161:
ARM GAS  /tmp/ccJ8mj6U.s 			page 24


 773              		.section	.text.HAL_GetUIDw2,"ax",%progbits
 774              		.align	1
 775              		.global	HAL_GetUIDw2
 776              		.syntax unified
 777              		.thumb
 778              		.thumb_func
 779              		.fpu fpv5-d16
 781              	HAL_GetUIDw2:
 782              	.LFB162:
 496:../../Drivers/STM32H7xx_HAL_Driver/Src/stm32h7xx_hal.c **** 
 497:../../Drivers/STM32H7xx_HAL_Driver/Src/stm32h7xx_hal.c **** /**
 498:../../Drivers/STM32H7xx_HAL_Driver/Src/stm32h7xx_hal.c ****   * @brief  Return the third word of the unique device identifier (UID based on 96 bits)
 499:../../Drivers/STM32H7xx_HAL_Driver/Src/stm32h7xx_hal.c ****   * @retval Device identifier
 500:../../Drivers/STM32H7xx_HAL_Driver/Src/stm32h7xx_hal.c ****   */
 501:../../Drivers/STM32H7xx_HAL_Driver/Src/stm32h7xx_hal.c **** uint32_t HAL_GetUIDw2(void)
 502:../../Drivers/STM32H7xx_HAL_Driver/Src/stm32h7xx_hal.c **** {
 783              		.loc 1 502 1 is_stmt 1 view -0
 784              		.cfi_startproc
 785              		@ args = 0, pretend = 0, frame = 0
 786              		@ frame_needed = 0, uses_anonymous_args = 0
 787              		@ link register save eliminated.
 503:../../Drivers/STM32H7xx_HAL_Driver/Src/stm32h7xx_hal.c ****   return(READ_REG(*((uint32_t *)(UID_BASE + 8U))));
 788              		.loc 1 503 3 view .LVU157
 504:../../Drivers/STM32H7xx_HAL_Driver/Src/stm32h7xx_hal.c **** }
 789              		.loc 1 504 1 is_stmt 0 view .LVU158
 790 0000 014B     		ldr	r3, .L74
 791 0002 1868     		ldr	r0, [r3]
 792 0004 7047     		bx	lr
 793              	.L75:
 794 0006 00BF     		.align	2
 795              	.L74:
 796 0008 08E8F11F 		.word	535947272
 797              		.cfi_endproc
 798              	.LFE162:
 800              		.section	.text.HAL_SYSCFG_VREFBUF_VoltageScalingConfig,"ax",%progbits
 801              		.align	1
 802              		.global	HAL_SYSCFG_VREFBUF_VoltageScalingConfig
 803              		.syntax unified
 804              		.thumb
 805              		.thumb_func
 806              		.fpu fpv5-d16
 808              	HAL_SYSCFG_VREFBUF_VoltageScalingConfig:
 809              	.LVL26:
 810              	.LFB163:
 505:../../Drivers/STM32H7xx_HAL_Driver/Src/stm32h7xx_hal.c **** 
 506:../../Drivers/STM32H7xx_HAL_Driver/Src/stm32h7xx_hal.c **** /**
 507:../../Drivers/STM32H7xx_HAL_Driver/Src/stm32h7xx_hal.c ****   * @brief Configure the internal voltage reference buffer voltage scale.
 508:../../Drivers/STM32H7xx_HAL_Driver/Src/stm32h7xx_hal.c ****   * @param VoltageScaling  specifies the output voltage to achieve
 509:../../Drivers/STM32H7xx_HAL_Driver/Src/stm32h7xx_hal.c ****   *          This parameter can be one of the following values:
 510:../../Drivers/STM32H7xx_HAL_Driver/Src/stm32h7xx_hal.c ****   *            @arg SYSCFG_VREFBUF_VOLTAGE_SCALE0: VREF_OUT1 around 2.5 V.
 511:../../Drivers/STM32H7xx_HAL_Driver/Src/stm32h7xx_hal.c ****   *                                                This requires VDDA equal to or higher than 2.8 V
 512:../../Drivers/STM32H7xx_HAL_Driver/Src/stm32h7xx_hal.c ****   *            @arg SYSCFG_VREFBUF_VOLTAGE_SCALE1: VREF_OUT2 around 2.048 V.
 513:../../Drivers/STM32H7xx_HAL_Driver/Src/stm32h7xx_hal.c ****   *                                                This requires VDDA equal to or higher than 2.4 V
 514:../../Drivers/STM32H7xx_HAL_Driver/Src/stm32h7xx_hal.c ****   *            @arg SYSCFG_VREFBUF_VOLTAGE_SCALE2: VREF_OUT3 around 1.8 V.
 515:../../Drivers/STM32H7xx_HAL_Driver/Src/stm32h7xx_hal.c ****   *                                                This requires VDDA equal to or higher than 2.1 V
 516:../../Drivers/STM32H7xx_HAL_Driver/Src/stm32h7xx_hal.c ****   *            @arg SYSCFG_VREFBUF_VOLTAGE_SCALE3: VREF_OUT4 around 1.5 V.
 517:../../Drivers/STM32H7xx_HAL_Driver/Src/stm32h7xx_hal.c ****   *                                                This requires VDDA equal to or higher than 1.8 V
ARM GAS  /tmp/ccJ8mj6U.s 			page 25


 518:../../Drivers/STM32H7xx_HAL_Driver/Src/stm32h7xx_hal.c ****   * @retval None
 519:../../Drivers/STM32H7xx_HAL_Driver/Src/stm32h7xx_hal.c ****   */
 520:../../Drivers/STM32H7xx_HAL_Driver/Src/stm32h7xx_hal.c **** void HAL_SYSCFG_VREFBUF_VoltageScalingConfig(uint32_t VoltageScaling)
 521:../../Drivers/STM32H7xx_HAL_Driver/Src/stm32h7xx_hal.c **** {
 811              		.loc 1 521 1 is_stmt 1 view -0
 812              		.cfi_startproc
 813              		@ args = 0, pretend = 0, frame = 0
 814              		@ frame_needed = 0, uses_anonymous_args = 0
 815              		@ link register save eliminated.
 522:../../Drivers/STM32H7xx_HAL_Driver/Src/stm32h7xx_hal.c ****   /* Check the parameters */
 523:../../Drivers/STM32H7xx_HAL_Driver/Src/stm32h7xx_hal.c ****   assert_param(IS_SYSCFG_VREFBUF_VOLTAGE_SCALE(VoltageScaling));
 816              		.loc 1 523 3 view .LVU160
 524:../../Drivers/STM32H7xx_HAL_Driver/Src/stm32h7xx_hal.c **** 
 525:../../Drivers/STM32H7xx_HAL_Driver/Src/stm32h7xx_hal.c ****   MODIFY_REG(VREFBUF->CSR, VREFBUF_CSR_VRS, VoltageScaling);
 817              		.loc 1 525 3 view .LVU161
 818 0000 034A     		ldr	r2, .L77
 819 0002 1368     		ldr	r3, [r2]
 820 0004 23F07003 		bic	r3, r3, #112
 821 0008 0343     		orrs	r3, r3, r0
 822 000a 1360     		str	r3, [r2]
 526:../../Drivers/STM32H7xx_HAL_Driver/Src/stm32h7xx_hal.c **** }
 823              		.loc 1 526 1 is_stmt 0 view .LVU162
 824 000c 7047     		bx	lr
 825              	.L78:
 826 000e 00BF     		.align	2
 827              	.L77:
 828 0010 003C0058 		.word	1476410368
 829              		.cfi_endproc
 830              	.LFE163:
 832              		.section	.text.HAL_SYSCFG_VREFBUF_HighImpedanceConfig,"ax",%progbits
 833              		.align	1
 834              		.global	HAL_SYSCFG_VREFBUF_HighImpedanceConfig
 835              		.syntax unified
 836              		.thumb
 837              		.thumb_func
 838              		.fpu fpv5-d16
 840              	HAL_SYSCFG_VREFBUF_HighImpedanceConfig:
 841              	.LVL27:
 842              	.LFB164:
 527:../../Drivers/STM32H7xx_HAL_Driver/Src/stm32h7xx_hal.c **** 
 528:../../Drivers/STM32H7xx_HAL_Driver/Src/stm32h7xx_hal.c **** /**
 529:../../Drivers/STM32H7xx_HAL_Driver/Src/stm32h7xx_hal.c ****   * @brief Configure the internal voltage reference buffer high impedance mode.
 530:../../Drivers/STM32H7xx_HAL_Driver/Src/stm32h7xx_hal.c ****   * @param Mode  specifies the high impedance mode
 531:../../Drivers/STM32H7xx_HAL_Driver/Src/stm32h7xx_hal.c ****   *          This parameter can be one of the following values:
 532:../../Drivers/STM32H7xx_HAL_Driver/Src/stm32h7xx_hal.c ****   *            @arg SYSCFG_VREFBUF_HIGH_IMPEDANCE_DISABLE: VREF+ pin is internally connect to VREFI
 533:../../Drivers/STM32H7xx_HAL_Driver/Src/stm32h7xx_hal.c ****   *            @arg SYSCFG_VREFBUF_HIGH_IMPEDANCE_ENABLE: VREF+ pin is high impedance.
 534:../../Drivers/STM32H7xx_HAL_Driver/Src/stm32h7xx_hal.c ****   * @retval None
 535:../../Drivers/STM32H7xx_HAL_Driver/Src/stm32h7xx_hal.c ****   */
 536:../../Drivers/STM32H7xx_HAL_Driver/Src/stm32h7xx_hal.c **** void HAL_SYSCFG_VREFBUF_HighImpedanceConfig(uint32_t Mode)
 537:../../Drivers/STM32H7xx_HAL_Driver/Src/stm32h7xx_hal.c **** {
 843              		.loc 1 537 1 is_stmt 1 view -0
 844              		.cfi_startproc
 845              		@ args = 0, pretend = 0, frame = 0
 846              		@ frame_needed = 0, uses_anonymous_args = 0
 847              		@ link register save eliminated.
 538:../../Drivers/STM32H7xx_HAL_Driver/Src/stm32h7xx_hal.c ****   /* Check the parameters */
 539:../../Drivers/STM32H7xx_HAL_Driver/Src/stm32h7xx_hal.c ****   assert_param(IS_SYSCFG_VREFBUF_HIGH_IMPEDANCE(Mode));
ARM GAS  /tmp/ccJ8mj6U.s 			page 26


 848              		.loc 1 539 3 view .LVU164
 540:../../Drivers/STM32H7xx_HAL_Driver/Src/stm32h7xx_hal.c **** 
 541:../../Drivers/STM32H7xx_HAL_Driver/Src/stm32h7xx_hal.c ****   MODIFY_REG(VREFBUF->CSR, VREFBUF_CSR_HIZ, Mode);
 849              		.loc 1 541 3 view .LVU165
 850 0000 034A     		ldr	r2, .L80
 851 0002 1368     		ldr	r3, [r2]
 852 0004 23F00203 		bic	r3, r3, #2
 853 0008 0343     		orrs	r3, r3, r0
 854 000a 1360     		str	r3, [r2]
 542:../../Drivers/STM32H7xx_HAL_Driver/Src/stm32h7xx_hal.c **** }
 855              		.loc 1 542 1 is_stmt 0 view .LVU166
 856 000c 7047     		bx	lr
 857              	.L81:
 858 000e 00BF     		.align	2
 859              	.L80:
 860 0010 003C0058 		.word	1476410368
 861              		.cfi_endproc
 862              	.LFE164:
 864              		.section	.text.HAL_SYSCFG_VREFBUF_TrimmingConfig,"ax",%progbits
 865              		.align	1
 866              		.global	HAL_SYSCFG_VREFBUF_TrimmingConfig
 867              		.syntax unified
 868              		.thumb
 869              		.thumb_func
 870              		.fpu fpv5-d16
 872              	HAL_SYSCFG_VREFBUF_TrimmingConfig:
 873              	.LVL28:
 874              	.LFB165:
 543:../../Drivers/STM32H7xx_HAL_Driver/Src/stm32h7xx_hal.c **** 
 544:../../Drivers/STM32H7xx_HAL_Driver/Src/stm32h7xx_hal.c **** /**
 545:../../Drivers/STM32H7xx_HAL_Driver/Src/stm32h7xx_hal.c ****   * @brief  Tune the Internal Voltage Reference buffer (VREFBUF).
 546:../../Drivers/STM32H7xx_HAL_Driver/Src/stm32h7xx_hal.c ****   * @retval None
 547:../../Drivers/STM32H7xx_HAL_Driver/Src/stm32h7xx_hal.c ****   */
 548:../../Drivers/STM32H7xx_HAL_Driver/Src/stm32h7xx_hal.c **** void HAL_SYSCFG_VREFBUF_TrimmingConfig(uint32_t TrimmingValue)
 549:../../Drivers/STM32H7xx_HAL_Driver/Src/stm32h7xx_hal.c **** {
 875              		.loc 1 549 1 is_stmt 1 view -0
 876              		.cfi_startproc
 877              		@ args = 0, pretend = 0, frame = 0
 878              		@ frame_needed = 0, uses_anonymous_args = 0
 879              		@ link register save eliminated.
 550:../../Drivers/STM32H7xx_HAL_Driver/Src/stm32h7xx_hal.c ****   /* Check the parameters */
 551:../../Drivers/STM32H7xx_HAL_Driver/Src/stm32h7xx_hal.c ****   assert_param(IS_SYSCFG_VREFBUF_TRIMMING(TrimmingValue));
 880              		.loc 1 551 3 view .LVU168
 552:../../Drivers/STM32H7xx_HAL_Driver/Src/stm32h7xx_hal.c **** 
 553:../../Drivers/STM32H7xx_HAL_Driver/Src/stm32h7xx_hal.c ****   MODIFY_REG(VREFBUF->CCR, VREFBUF_CCR_TRIM, TrimmingValue);
 881              		.loc 1 553 3 view .LVU169
 882 0000 034A     		ldr	r2, .L83
 883 0002 5368     		ldr	r3, [r2, #4]
 884 0004 23F03F03 		bic	r3, r3, #63
 885 0008 0343     		orrs	r3, r3, r0
 886 000a 5360     		str	r3, [r2, #4]
 554:../../Drivers/STM32H7xx_HAL_Driver/Src/stm32h7xx_hal.c **** }
 887              		.loc 1 554 1 is_stmt 0 view .LVU170
 888 000c 7047     		bx	lr
 889              	.L84:
 890 000e 00BF     		.align	2
 891              	.L83:
ARM GAS  /tmp/ccJ8mj6U.s 			page 27


 892 0010 003C0058 		.word	1476410368
 893              		.cfi_endproc
 894              	.LFE165:
 896              		.section	.text.HAL_SYSCFG_EnableVREFBUF,"ax",%progbits
 897              		.align	1
 898              		.global	HAL_SYSCFG_EnableVREFBUF
 899              		.syntax unified
 900              		.thumb
 901              		.thumb_func
 902              		.fpu fpv5-d16
 904              	HAL_SYSCFG_EnableVREFBUF:
 905              	.LFB166:
 555:../../Drivers/STM32H7xx_HAL_Driver/Src/stm32h7xx_hal.c **** 
 556:../../Drivers/STM32H7xx_HAL_Driver/Src/stm32h7xx_hal.c **** /**
 557:../../Drivers/STM32H7xx_HAL_Driver/Src/stm32h7xx_hal.c ****   * @brief  Enable the Internal Voltage Reference buffer (VREFBUF).
 558:../../Drivers/STM32H7xx_HAL_Driver/Src/stm32h7xx_hal.c ****   * @retval HAL_OK/HAL_TIMEOUT
 559:../../Drivers/STM32H7xx_HAL_Driver/Src/stm32h7xx_hal.c ****   */
 560:../../Drivers/STM32H7xx_HAL_Driver/Src/stm32h7xx_hal.c **** HAL_StatusTypeDef HAL_SYSCFG_EnableVREFBUF(void)
 561:../../Drivers/STM32H7xx_HAL_Driver/Src/stm32h7xx_hal.c **** {
 906              		.loc 1 561 1 is_stmt 1 view -0
 907              		.cfi_startproc
 908              		@ args = 0, pretend = 0, frame = 0
 909              		@ frame_needed = 0, uses_anonymous_args = 0
 910 0000 10B5     		push	{r4, lr}
 911              	.LCFI5:
 912              		.cfi_def_cfa_offset 8
 913              		.cfi_offset 4, -8
 914              		.cfi_offset 14, -4
 562:../../Drivers/STM32H7xx_HAL_Driver/Src/stm32h7xx_hal.c ****   uint32_t  tickstart;
 915              		.loc 1 562 3 view .LVU172
 563:../../Drivers/STM32H7xx_HAL_Driver/Src/stm32h7xx_hal.c **** 
 564:../../Drivers/STM32H7xx_HAL_Driver/Src/stm32h7xx_hal.c ****   SET_BIT(VREFBUF->CSR, VREFBUF_CSR_ENVR);
 916              		.loc 1 564 3 view .LVU173
 917 0002 0B4A     		ldr	r2, .L92
 918 0004 1368     		ldr	r3, [r2]
 919 0006 43F00103 		orr	r3, r3, #1
 920 000a 1360     		str	r3, [r2]
 565:../../Drivers/STM32H7xx_HAL_Driver/Src/stm32h7xx_hal.c **** 
 566:../../Drivers/STM32H7xx_HAL_Driver/Src/stm32h7xx_hal.c ****   /* Get Start Tick*/
 567:../../Drivers/STM32H7xx_HAL_Driver/Src/stm32h7xx_hal.c ****   tickstart = HAL_GetTick();
 921              		.loc 1 567 3 view .LVU174
 922              		.loc 1 567 15 is_stmt 0 view .LVU175
 923 000c FFF7FEFF 		bl	HAL_GetTick
 924              	.LVL29:
 925 0010 0446     		mov	r4, r0
 926              	.LVL30:
 568:../../Drivers/STM32H7xx_HAL_Driver/Src/stm32h7xx_hal.c **** 
 569:../../Drivers/STM32H7xx_HAL_Driver/Src/stm32h7xx_hal.c ****   /* Wait for VRR bit  */
 570:../../Drivers/STM32H7xx_HAL_Driver/Src/stm32h7xx_hal.c ****   while(READ_BIT(VREFBUF->CSR, VREFBUF_CSR_VRR) == 0UL)
 927              		.loc 1 570 3 is_stmt 1 view .LVU176
 928              	.L86:
 929              		.loc 1 570 8 view .LVU177
 930              		.loc 1 570 9 is_stmt 0 view .LVU178
 931 0012 074B     		ldr	r3, .L92
 932 0014 1B68     		ldr	r3, [r3]
 933              		.loc 1 570 8 view .LVU179
 934 0016 13F0080F 		tst	r3, #8
ARM GAS  /tmp/ccJ8mj6U.s 			page 28


 935 001a 06D1     		bne	.L91
 571:../../Drivers/STM32H7xx_HAL_Driver/Src/stm32h7xx_hal.c ****   {
 572:../../Drivers/STM32H7xx_HAL_Driver/Src/stm32h7xx_hal.c ****     if((HAL_GetTick() - tickstart) > VREFBUF_TIMEOUT_VALUE)
 936              		.loc 1 572 5 is_stmt 1 view .LVU180
 937              		.loc 1 572 9 is_stmt 0 view .LVU181
 938 001c FFF7FEFF 		bl	HAL_GetTick
 939              	.LVL31:
 940              		.loc 1 572 23 view .LVU182
 941 0020 001B     		subs	r0, r0, r4
 942              		.loc 1 572 7 view .LVU183
 943 0022 0A28     		cmp	r0, #10
 944 0024 F5D9     		bls	.L86
 573:../../Drivers/STM32H7xx_HAL_Driver/Src/stm32h7xx_hal.c ****     {
 574:../../Drivers/STM32H7xx_HAL_Driver/Src/stm32h7xx_hal.c ****       return HAL_TIMEOUT;
 945              		.loc 1 574 14 view .LVU184
 946 0026 0320     		movs	r0, #3
 947 0028 00E0     		b	.L87
 948              	.L91:
 575:../../Drivers/STM32H7xx_HAL_Driver/Src/stm32h7xx_hal.c ****     }
 576:../../Drivers/STM32H7xx_HAL_Driver/Src/stm32h7xx_hal.c ****   }
 577:../../Drivers/STM32H7xx_HAL_Driver/Src/stm32h7xx_hal.c **** 
 578:../../Drivers/STM32H7xx_HAL_Driver/Src/stm32h7xx_hal.c ****   return HAL_OK;
 949              		.loc 1 578 10 view .LVU185
 950 002a 0020     		movs	r0, #0
 951              	.L87:
 579:../../Drivers/STM32H7xx_HAL_Driver/Src/stm32h7xx_hal.c **** }
 952              		.loc 1 579 1 view .LVU186
 953 002c 10BD     		pop	{r4, pc}
 954              	.LVL32:
 955              	.L93:
 956              		.loc 1 579 1 view .LVU187
 957 002e 00BF     		.align	2
 958              	.L92:
 959 0030 003C0058 		.word	1476410368
 960              		.cfi_endproc
 961              	.LFE166:
 963              		.section	.text.HAL_SYSCFG_DisableVREFBUF,"ax",%progbits
 964              		.align	1
 965              		.global	HAL_SYSCFG_DisableVREFBUF
 966              		.syntax unified
 967              		.thumb
 968              		.thumb_func
 969              		.fpu fpv5-d16
 971              	HAL_SYSCFG_DisableVREFBUF:
 972              	.LFB167:
 580:../../Drivers/STM32H7xx_HAL_Driver/Src/stm32h7xx_hal.c **** 
 581:../../Drivers/STM32H7xx_HAL_Driver/Src/stm32h7xx_hal.c **** /**
 582:../../Drivers/STM32H7xx_HAL_Driver/Src/stm32h7xx_hal.c ****   * @brief  Disable the Internal Voltage Reference buffer (VREFBUF).
 583:../../Drivers/STM32H7xx_HAL_Driver/Src/stm32h7xx_hal.c ****   *
 584:../../Drivers/STM32H7xx_HAL_Driver/Src/stm32h7xx_hal.c ****   * @retval None
 585:../../Drivers/STM32H7xx_HAL_Driver/Src/stm32h7xx_hal.c ****   */
 586:../../Drivers/STM32H7xx_HAL_Driver/Src/stm32h7xx_hal.c **** void HAL_SYSCFG_DisableVREFBUF(void)
 587:../../Drivers/STM32H7xx_HAL_Driver/Src/stm32h7xx_hal.c **** {
 973              		.loc 1 587 1 is_stmt 1 view -0
 974              		.cfi_startproc
 975              		@ args = 0, pretend = 0, frame = 0
 976              		@ frame_needed = 0, uses_anonymous_args = 0
ARM GAS  /tmp/ccJ8mj6U.s 			page 29


 977              		@ link register save eliminated.
 588:../../Drivers/STM32H7xx_HAL_Driver/Src/stm32h7xx_hal.c ****   CLEAR_BIT(VREFBUF->CSR, VREFBUF_CSR_ENVR);
 978              		.loc 1 588 3 view .LVU189
 979 0000 024A     		ldr	r2, .L95
 980 0002 1368     		ldr	r3, [r2]
 981 0004 23F00103 		bic	r3, r3, #1
 982 0008 1360     		str	r3, [r2]
 589:../../Drivers/STM32H7xx_HAL_Driver/Src/stm32h7xx_hal.c **** }
 983              		.loc 1 589 1 is_stmt 0 view .LVU190
 984 000a 7047     		bx	lr
 985              	.L96:
 986              		.align	2
 987              	.L95:
 988 000c 003C0058 		.word	1476410368
 989              		.cfi_endproc
 990              	.LFE167:
 992              		.section	.text.HAL_SYSCFG_ETHInterfaceSelect,"ax",%progbits
 993              		.align	1
 994              		.global	HAL_SYSCFG_ETHInterfaceSelect
 995              		.syntax unified
 996              		.thumb
 997              		.thumb_func
 998              		.fpu fpv5-d16
 1000              	HAL_SYSCFG_ETHInterfaceSelect:
 1001              	.LVL33:
 1002              	.LFB168:
 590:../../Drivers/STM32H7xx_HAL_Driver/Src/stm32h7xx_hal.c **** 
 591:../../Drivers/STM32H7xx_HAL_Driver/Src/stm32h7xx_hal.c **** #if defined(SYSCFG_PMCR_EPIS_SEL)
 592:../../Drivers/STM32H7xx_HAL_Driver/Src/stm32h7xx_hal.c **** /**
 593:../../Drivers/STM32H7xx_HAL_Driver/Src/stm32h7xx_hal.c ****   * @brief  Ethernet PHY Interface Selection either MII or RMII
 594:../../Drivers/STM32H7xx_HAL_Driver/Src/stm32h7xx_hal.c ****   * @param  SYSCFG_ETHInterface: Selects the Ethernet PHY interface
 595:../../Drivers/STM32H7xx_HAL_Driver/Src/stm32h7xx_hal.c ****   *   This parameter can be one of the following values:
 596:../../Drivers/STM32H7xx_HAL_Driver/Src/stm32h7xx_hal.c ****   *   @arg SYSCFG_ETH_MII : Select the Media Independent Interface
 597:../../Drivers/STM32H7xx_HAL_Driver/Src/stm32h7xx_hal.c ****   *   @arg SYSCFG_ETH_RMII: Select the Reduced Media Independent Interface
 598:../../Drivers/STM32H7xx_HAL_Driver/Src/stm32h7xx_hal.c ****   * @retval None
 599:../../Drivers/STM32H7xx_HAL_Driver/Src/stm32h7xx_hal.c ****   */
 600:../../Drivers/STM32H7xx_HAL_Driver/Src/stm32h7xx_hal.c **** void HAL_SYSCFG_ETHInterfaceSelect(uint32_t SYSCFG_ETHInterface)
 601:../../Drivers/STM32H7xx_HAL_Driver/Src/stm32h7xx_hal.c **** {
 1003              		.loc 1 601 1 is_stmt 1 view -0
 1004              		.cfi_startproc
 1005              		@ args = 0, pretend = 0, frame = 0
 1006              		@ frame_needed = 0, uses_anonymous_args = 0
 1007              		@ link register save eliminated.
 602:../../Drivers/STM32H7xx_HAL_Driver/Src/stm32h7xx_hal.c ****   /* Check the parameter */
 603:../../Drivers/STM32H7xx_HAL_Driver/Src/stm32h7xx_hal.c ****   assert_param(IS_SYSCFG_ETHERNET_CONFIG(SYSCFG_ETHInterface));
 1008              		.loc 1 603 3 view .LVU192
 604:../../Drivers/STM32H7xx_HAL_Driver/Src/stm32h7xx_hal.c **** 
 605:../../Drivers/STM32H7xx_HAL_Driver/Src/stm32h7xx_hal.c ****   MODIFY_REG(SYSCFG->PMCR, SYSCFG_PMCR_EPIS_SEL, (uint32_t)(SYSCFG_ETHInterface));
 1009              		.loc 1 605 3 view .LVU193
 1010 0000 034A     		ldr	r2, .L98
 1011 0002 5368     		ldr	r3, [r2, #4]
 1012 0004 23F46003 		bic	r3, r3, #14680064
 1013 0008 0343     		orrs	r3, r3, r0
 1014 000a 5360     		str	r3, [r2, #4]
 606:../../Drivers/STM32H7xx_HAL_Driver/Src/stm32h7xx_hal.c **** }
 1015              		.loc 1 606 1 is_stmt 0 view .LVU194
 1016 000c 7047     		bx	lr
ARM GAS  /tmp/ccJ8mj6U.s 			page 30


 1017              	.L99:
 1018 000e 00BF     		.align	2
 1019              	.L98:
 1020 0010 00040058 		.word	1476396032
 1021              		.cfi_endproc
 1022              	.LFE168:
 1024              		.section	.text.HAL_SYSCFG_AnalogSwitchConfig,"ax",%progbits
 1025              		.align	1
 1026              		.global	HAL_SYSCFG_AnalogSwitchConfig
 1027              		.syntax unified
 1028              		.thumb
 1029              		.thumb_func
 1030              		.fpu fpv5-d16
 1032              	HAL_SYSCFG_AnalogSwitchConfig:
 1033              	.LVL34:
 1034              	.LFB169:
 607:../../Drivers/STM32H7xx_HAL_Driver/Src/stm32h7xx_hal.c **** #endif /* SYSCFG_PMCR_EPIS_SEL */
 608:../../Drivers/STM32H7xx_HAL_Driver/Src/stm32h7xx_hal.c **** 
 609:../../Drivers/STM32H7xx_HAL_Driver/Src/stm32h7xx_hal.c **** /**
 610:../../Drivers/STM32H7xx_HAL_Driver/Src/stm32h7xx_hal.c ****   * @brief  Analog Switch control for dual analog pads.
 611:../../Drivers/STM32H7xx_HAL_Driver/Src/stm32h7xx_hal.c ****   * @param  SYSCFG_AnalogSwitch: Selects the analog pad
 612:../../Drivers/STM32H7xx_HAL_Driver/Src/stm32h7xx_hal.c ****   *   This parameter can be one or a combination of the following values:
 613:../../Drivers/STM32H7xx_HAL_Driver/Src/stm32h7xx_hal.c ****   *   @arg SYSCFG_SWITCH_PA0 : Select PA0 analog switch
 614:../../Drivers/STM32H7xx_HAL_Driver/Src/stm32h7xx_hal.c ****   *   @arg SYSCFG_SWITCH_PA1:  Select PA1 analog switch
 615:../../Drivers/STM32H7xx_HAL_Driver/Src/stm32h7xx_hal.c ****   *   @arg SYSCFG_SWITCH_PC2 : Select PC2 analog switch
 616:../../Drivers/STM32H7xx_HAL_Driver/Src/stm32h7xx_hal.c ****   *   @arg SYSCFG_SWITCH_PC3:  Select PC3 analog switch
 617:../../Drivers/STM32H7xx_HAL_Driver/Src/stm32h7xx_hal.c ****   * @param  SYSCFG_SwitchState: Open or Close the analog switch between dual pads (PXn and PXn_C)
 618:../../Drivers/STM32H7xx_HAL_Driver/Src/stm32h7xx_hal.c ****   *   This parameter can be one or a combination of the following values:
 619:../../Drivers/STM32H7xx_HAL_Driver/Src/stm32h7xx_hal.c ****   *   @arg SYSCFG_SWITCH_PA0_OPEN
 620:../../Drivers/STM32H7xx_HAL_Driver/Src/stm32h7xx_hal.c ****   *   @arg SYSCFG_SWITCH_PA0_CLOSE
 621:../../Drivers/STM32H7xx_HAL_Driver/Src/stm32h7xx_hal.c ****   *   @arg SYSCFG_SWITCH_PA1_OPEN
 622:../../Drivers/STM32H7xx_HAL_Driver/Src/stm32h7xx_hal.c ****   *   @arg SYSCFG_SWITCH_PA1_CLOSE
 623:../../Drivers/STM32H7xx_HAL_Driver/Src/stm32h7xx_hal.c ****   *   @arg SYSCFG_SWITCH_PC2_OPEN
 624:../../Drivers/STM32H7xx_HAL_Driver/Src/stm32h7xx_hal.c ****   *   @arg SYSCFG_SWITCH_PC2_CLOSE
 625:../../Drivers/STM32H7xx_HAL_Driver/Src/stm32h7xx_hal.c ****   *   @arg SYSCFG_SWITCH_PC3_OPEN
 626:../../Drivers/STM32H7xx_HAL_Driver/Src/stm32h7xx_hal.c ****   *   @arg SYSCFG_SWITCH_PC3_CLOSE
 627:../../Drivers/STM32H7xx_HAL_Driver/Src/stm32h7xx_hal.c ****   * @retval None
 628:../../Drivers/STM32H7xx_HAL_Driver/Src/stm32h7xx_hal.c ****   */
 629:../../Drivers/STM32H7xx_HAL_Driver/Src/stm32h7xx_hal.c **** 
 630:../../Drivers/STM32H7xx_HAL_Driver/Src/stm32h7xx_hal.c **** void HAL_SYSCFG_AnalogSwitchConfig(uint32_t SYSCFG_AnalogSwitch , uint32_t SYSCFG_SwitchState )
 631:../../Drivers/STM32H7xx_HAL_Driver/Src/stm32h7xx_hal.c **** {
 1035              		.loc 1 631 1 is_stmt 1 view -0
 1036              		.cfi_startproc
 1037              		@ args = 0, pretend = 0, frame = 0
 1038              		@ frame_needed = 0, uses_anonymous_args = 0
 1039              		@ link register save eliminated.
 632:../../Drivers/STM32H7xx_HAL_Driver/Src/stm32h7xx_hal.c ****   /* Check the parameter */
 633:../../Drivers/STM32H7xx_HAL_Driver/Src/stm32h7xx_hal.c ****   assert_param(IS_SYSCFG_ANALOG_SWITCH(SYSCFG_AnalogSwitch));
 1040              		.loc 1 633 3 view .LVU196
 634:../../Drivers/STM32H7xx_HAL_Driver/Src/stm32h7xx_hal.c ****   assert_param(IS_SYSCFG_SWITCH_STATE(SYSCFG_SwitchState));
 1041              		.loc 1 634 3 view .LVU197
 635:../../Drivers/STM32H7xx_HAL_Driver/Src/stm32h7xx_hal.c **** 
 636:../../Drivers/STM32H7xx_HAL_Driver/Src/stm32h7xx_hal.c ****   MODIFY_REG(SYSCFG->PMCR, (uint32_t) SYSCFG_AnalogSwitch, (uint32_t)(SYSCFG_SwitchState));
 1042              		.loc 1 636 3 view .LVU198
 1043 0000 034A     		ldr	r2, .L101
 1044 0002 5368     		ldr	r3, [r2, #4]
 1045 0004 23EA0003 		bic	r3, r3, r0
ARM GAS  /tmp/ccJ8mj6U.s 			page 31


 1046 0008 0B43     		orrs	r3, r3, r1
 1047 000a 5360     		str	r3, [r2, #4]
 637:../../Drivers/STM32H7xx_HAL_Driver/Src/stm32h7xx_hal.c **** }
 1048              		.loc 1 637 1 is_stmt 0 view .LVU199
 1049 000c 7047     		bx	lr
 1050              	.L102:
 1051 000e 00BF     		.align	2
 1052              	.L101:
 1053 0010 00040058 		.word	1476396032
 1054              		.cfi_endproc
 1055              	.LFE169:
 1057              		.section	.text.HAL_SYSCFG_EnableBOOST,"ax",%progbits
 1058              		.align	1
 1059              		.global	HAL_SYSCFG_EnableBOOST
 1060              		.syntax unified
 1061              		.thumb
 1062              		.thumb_func
 1063              		.fpu fpv5-d16
 1065              	HAL_SYSCFG_EnableBOOST:
 1066              	.LFB170:
 638:../../Drivers/STM32H7xx_HAL_Driver/Src/stm32h7xx_hal.c **** 
 639:../../Drivers/STM32H7xx_HAL_Driver/Src/stm32h7xx_hal.c **** #if defined(SYSCFG_PMCR_BOOSTEN)
 640:../../Drivers/STM32H7xx_HAL_Driver/Src/stm32h7xx_hal.c **** /**
 641:../../Drivers/STM32H7xx_HAL_Driver/Src/stm32h7xx_hal.c ****   * @brief  Enables the booster to reduce the total harmonic distortion of the analog
 642:../../Drivers/STM32H7xx_HAL_Driver/Src/stm32h7xx_hal.c ****   *         switch when the supply voltage is lower than 2.7 V.
 643:../../Drivers/STM32H7xx_HAL_Driver/Src/stm32h7xx_hal.c ****   * @note   Activating the booster allows to guaranty the analog switch AC performance
 644:../../Drivers/STM32H7xx_HAL_Driver/Src/stm32h7xx_hal.c ****   *         when the supply voltage is below 2.7 V: in this case, the analog switch
 645:../../Drivers/STM32H7xx_HAL_Driver/Src/stm32h7xx_hal.c ****   *         performance is the same on the full voltage range
 646:../../Drivers/STM32H7xx_HAL_Driver/Src/stm32h7xx_hal.c ****   * @retval None
 647:../../Drivers/STM32H7xx_HAL_Driver/Src/stm32h7xx_hal.c ****   */
 648:../../Drivers/STM32H7xx_HAL_Driver/Src/stm32h7xx_hal.c **** void HAL_SYSCFG_EnableBOOST(void)
 649:../../Drivers/STM32H7xx_HAL_Driver/Src/stm32h7xx_hal.c **** {
 1067              		.loc 1 649 1 is_stmt 1 view -0
 1068              		.cfi_startproc
 1069              		@ args = 0, pretend = 0, frame = 0
 1070              		@ frame_needed = 0, uses_anonymous_args = 0
 1071              		@ link register save eliminated.
 650:../../Drivers/STM32H7xx_HAL_Driver/Src/stm32h7xx_hal.c ****  SET_BIT(SYSCFG->PMCR, SYSCFG_PMCR_BOOSTEN) ;
 1072              		.loc 1 650 2 view .LVU201
 1073 0000 024A     		ldr	r2, .L104
 1074 0002 5368     		ldr	r3, [r2, #4]
 1075 0004 43F48073 		orr	r3, r3, #256
 1076 0008 5360     		str	r3, [r2, #4]
 651:../../Drivers/STM32H7xx_HAL_Driver/Src/stm32h7xx_hal.c **** }
 1077              		.loc 1 651 1 is_stmt 0 view .LVU202
 1078 000a 7047     		bx	lr
 1079              	.L105:
 1080              		.align	2
 1081              	.L104:
 1082 000c 00040058 		.word	1476396032
 1083              		.cfi_endproc
 1084              	.LFE170:
 1086              		.section	.text.HAL_SYSCFG_DisableBOOST,"ax",%progbits
 1087              		.align	1
 1088              		.global	HAL_SYSCFG_DisableBOOST
 1089              		.syntax unified
 1090              		.thumb
ARM GAS  /tmp/ccJ8mj6U.s 			page 32


 1091              		.thumb_func
 1092              		.fpu fpv5-d16
 1094              	HAL_SYSCFG_DisableBOOST:
 1095              	.LFB171:
 652:../../Drivers/STM32H7xx_HAL_Driver/Src/stm32h7xx_hal.c **** 
 653:../../Drivers/STM32H7xx_HAL_Driver/Src/stm32h7xx_hal.c **** /**
 654:../../Drivers/STM32H7xx_HAL_Driver/Src/stm32h7xx_hal.c ****   * @brief  Disables the booster
 655:../../Drivers/STM32H7xx_HAL_Driver/Src/stm32h7xx_hal.c ****   * @note   Activating the booster allows to guaranty the analog switch AC performance
 656:../../Drivers/STM32H7xx_HAL_Driver/Src/stm32h7xx_hal.c ****   *         when the supply voltage is below 2.7 V: in this case, the analog switch
 657:../../Drivers/STM32H7xx_HAL_Driver/Src/stm32h7xx_hal.c ****   *         performance is the same on the full voltage range
 658:../../Drivers/STM32H7xx_HAL_Driver/Src/stm32h7xx_hal.c ****   * @retval None
 659:../../Drivers/STM32H7xx_HAL_Driver/Src/stm32h7xx_hal.c ****   */
 660:../../Drivers/STM32H7xx_HAL_Driver/Src/stm32h7xx_hal.c **** void HAL_SYSCFG_DisableBOOST(void)
 661:../../Drivers/STM32H7xx_HAL_Driver/Src/stm32h7xx_hal.c **** {
 1096              		.loc 1 661 1 is_stmt 1 view -0
 1097              		.cfi_startproc
 1098              		@ args = 0, pretend = 0, frame = 0
 1099              		@ frame_needed = 0, uses_anonymous_args = 0
 1100              		@ link register save eliminated.
 662:../../Drivers/STM32H7xx_HAL_Driver/Src/stm32h7xx_hal.c ****  CLEAR_BIT(SYSCFG->PMCR, SYSCFG_PMCR_BOOSTEN) ;
 1101              		.loc 1 662 2 view .LVU204
 1102 0000 024A     		ldr	r2, .L107
 1103 0002 5368     		ldr	r3, [r2, #4]
 1104 0004 23F48073 		bic	r3, r3, #256
 1105 0008 5360     		str	r3, [r2, #4]
 663:../../Drivers/STM32H7xx_HAL_Driver/Src/stm32h7xx_hal.c **** }
 1106              		.loc 1 663 1 is_stmt 0 view .LVU205
 1107 000a 7047     		bx	lr
 1108              	.L108:
 1109              		.align	2
 1110              	.L107:
 1111 000c 00040058 		.word	1476396032
 1112              		.cfi_endproc
 1113              	.LFE171:
 1115              		.section	.text.HAL_SYSCFG_CM7BootAddConfig,"ax",%progbits
 1116              		.align	1
 1117              		.global	HAL_SYSCFG_CM7BootAddConfig
 1118              		.syntax unified
 1119              		.thumb
 1120              		.thumb_func
 1121              		.fpu fpv5-d16
 1123              	HAL_SYSCFG_CM7BootAddConfig:
 1124              	.LVL35:
 1125              	.LFB172:
 664:../../Drivers/STM32H7xx_HAL_Driver/Src/stm32h7xx_hal.c **** #endif /* SYSCFG_PMCR_BOOSTEN */
 665:../../Drivers/STM32H7xx_HAL_Driver/Src/stm32h7xx_hal.c **** 
 666:../../Drivers/STM32H7xx_HAL_Driver/Src/stm32h7xx_hal.c **** #if defined (SYSCFG_UR2_BOOT_ADD0) ||  defined (SYSCFG_UR2_BCM7_ADD0)
 667:../../Drivers/STM32H7xx_HAL_Driver/Src/stm32h7xx_hal.c **** /**
 668:../../Drivers/STM32H7xx_HAL_Driver/Src/stm32h7xx_hal.c ****   * @brief  BootCM7 address 0 configuration
 669:../../Drivers/STM32H7xx_HAL_Driver/Src/stm32h7xx_hal.c ****   * @param  BootRegister :Specifies the Boot Address register (Address0 or Address1)
 670:../../Drivers/STM32H7xx_HAL_Driver/Src/stm32h7xx_hal.c ****   *   This parameter can be one of the following values:
 671:../../Drivers/STM32H7xx_HAL_Driver/Src/stm32h7xx_hal.c ****   *   @arg SYSCFG_BOOT_ADDR0 : Select the boot address0
 672:../../Drivers/STM32H7xx_HAL_Driver/Src/stm32h7xx_hal.c ****   *   @arg SYSCFG_BOOT_ADDR1:  Select the boot address1
 673:../../Drivers/STM32H7xx_HAL_Driver/Src/stm32h7xx_hal.c ****   * @param  BootAddress :Specifies the CM7 Boot Address to be loaded in Address0 or Address1
 674:../../Drivers/STM32H7xx_HAL_Driver/Src/stm32h7xx_hal.c ****   * @retval None
 675:../../Drivers/STM32H7xx_HAL_Driver/Src/stm32h7xx_hal.c ****   */
 676:../../Drivers/STM32H7xx_HAL_Driver/Src/stm32h7xx_hal.c **** void HAL_SYSCFG_CM7BootAddConfig(uint32_t BootRegister, uint32_t BootAddress)
ARM GAS  /tmp/ccJ8mj6U.s 			page 33


 677:../../Drivers/STM32H7xx_HAL_Driver/Src/stm32h7xx_hal.c **** {
 1126              		.loc 1 677 1 is_stmt 1 view -0
 1127              		.cfi_startproc
 1128              		@ args = 0, pretend = 0, frame = 0
 1129              		@ frame_needed = 0, uses_anonymous_args = 0
 1130              		@ link register save eliminated.
 678:../../Drivers/STM32H7xx_HAL_Driver/Src/stm32h7xx_hal.c ****   /* Check the parameters */
 679:../../Drivers/STM32H7xx_HAL_Driver/Src/stm32h7xx_hal.c ****   assert_param(IS_SYSCFG_BOOT_REGISTER(BootRegister));
 1131              		.loc 1 679 3 view .LVU207
 680:../../Drivers/STM32H7xx_HAL_Driver/Src/stm32h7xx_hal.c ****   assert_param(IS_SYSCFG_BOOT_ADDRESS(BootAddress));
 1132              		.loc 1 680 3 view .LVU208
 681:../../Drivers/STM32H7xx_HAL_Driver/Src/stm32h7xx_hal.c ****   if ( BootRegister == SYSCFG_BOOT_ADDR0 )
 1133              		.loc 1 681 3 view .LVU209
 1134              		.loc 1 681 6 is_stmt 0 view .LVU210
 1135 0000 48B9     		cbnz	r0, .L110
 682:../../Drivers/STM32H7xx_HAL_Driver/Src/stm32h7xx_hal.c ****   {
 683:../../Drivers/STM32H7xx_HAL_Driver/Src/stm32h7xx_hal.c ****     /* Configure CM7 BOOT ADD0 */
 684:../../Drivers/STM32H7xx_HAL_Driver/Src/stm32h7xx_hal.c **** #if defined(DUAL_CORE)
 685:../../Drivers/STM32H7xx_HAL_Driver/Src/stm32h7xx_hal.c ****     MODIFY_REG(SYSCFG->UR2, SYSCFG_UR2_BCM7_ADD0, ((BootAddress >> 16) << SYSCFG_UR2_BCM7_ADD0_Pos)
 1136              		.loc 1 685 5 is_stmt 1 view .LVU211
 1137 0002 0A48     		ldr	r0, .L112
 1138              	.LVL36:
 1139              		.loc 1 685 5 is_stmt 0 view .LVU212
 1140 0004 D0F80833 		ldr	r3, [r0, #776]
 1141 0008 9BB2     		uxth	r3, r3
 1142 000a 094A     		ldr	r2, .L112+4
 1143 000c 0A40     		ands	r2, r2, r1
 1144 000e 1343     		orrs	r3, r3, r2
 1145 0010 C0F80833 		str	r3, [r0, #776]
 1146 0014 7047     		bx	lr
 1147              	.LVL37:
 1148              	.L110:
 686:../../Drivers/STM32H7xx_HAL_Driver/Src/stm32h7xx_hal.c **** #else
 687:../../Drivers/STM32H7xx_HAL_Driver/Src/stm32h7xx_hal.c ****     MODIFY_REG(SYSCFG->UR2, SYSCFG_UR2_BOOT_ADD0, ((BootAddress >> 16) << SYSCFG_UR2_BOOT_ADD0_Pos)
 688:../../Drivers/STM32H7xx_HAL_Driver/Src/stm32h7xx_hal.c **** #endif /*DUAL_CORE*/
 689:../../Drivers/STM32H7xx_HAL_Driver/Src/stm32h7xx_hal.c ****   }
 690:../../Drivers/STM32H7xx_HAL_Driver/Src/stm32h7xx_hal.c ****   else
 691:../../Drivers/STM32H7xx_HAL_Driver/Src/stm32h7xx_hal.c ****   {
 692:../../Drivers/STM32H7xx_HAL_Driver/Src/stm32h7xx_hal.c ****     /* Configure CM7 BOOT ADD1 */
 693:../../Drivers/STM32H7xx_HAL_Driver/Src/stm32h7xx_hal.c **** #if defined(DUAL_CORE)
 694:../../Drivers/STM32H7xx_HAL_Driver/Src/stm32h7xx_hal.c ****     MODIFY_REG(SYSCFG->UR3, SYSCFG_UR3_BCM7_ADD1, (BootAddress >> 16));
 1149              		.loc 1 694 5 is_stmt 1 view .LVU213
 1150 0016 054A     		ldr	r2, .L112
 1151 0018 D2F80C03 		ldr	r0, [r2, #780]
 1152              	.LVL38:
 1153              		.loc 1 694 5 is_stmt 0 view .LVU214
 1154 001c 044B     		ldr	r3, .L112+4
 1155 001e 0340     		ands	r3, r3, r0
 1156 0020 43EA1141 		orr	r1, r3, r1, lsr #16
 1157              	.LVL39:
 1158              		.loc 1 694 5 view .LVU215
 1159 0024 C2F80C13 		str	r1, [r2, #780]
 695:../../Drivers/STM32H7xx_HAL_Driver/Src/stm32h7xx_hal.c **** #else
 696:../../Drivers/STM32H7xx_HAL_Driver/Src/stm32h7xx_hal.c ****     MODIFY_REG(SYSCFG->UR3, SYSCFG_UR3_BOOT_ADD1, (BootAddress >> 16));
 697:../../Drivers/STM32H7xx_HAL_Driver/Src/stm32h7xx_hal.c **** #endif /*DUAL_CORE*/
 698:../../Drivers/STM32H7xx_HAL_Driver/Src/stm32h7xx_hal.c ****   }
 699:../../Drivers/STM32H7xx_HAL_Driver/Src/stm32h7xx_hal.c **** }
ARM GAS  /tmp/ccJ8mj6U.s 			page 34


 1160              		.loc 1 699 1 view .LVU216
 1161 0028 7047     		bx	lr
 1162              	.L113:
 1163 002a 00BF     		.align	2
 1164              	.L112:
 1165 002c 00040058 		.word	1476396032
 1166 0030 0000FFFF 		.word	-65536
 1167              		.cfi_endproc
 1168              	.LFE172:
 1170              		.section	.text.HAL_SYSCFG_CM4BootAddConfig,"ax",%progbits
 1171              		.align	1
 1172              		.global	HAL_SYSCFG_CM4BootAddConfig
 1173              		.syntax unified
 1174              		.thumb
 1175              		.thumb_func
 1176              		.fpu fpv5-d16
 1178              	HAL_SYSCFG_CM4BootAddConfig:
 1179              	.LVL40:
 1180              	.LFB173:
 700:../../Drivers/STM32H7xx_HAL_Driver/Src/stm32h7xx_hal.c **** #endif /* SYSCFG_UR2_BOOT_ADD0 || SYSCFG_UR2_BCM7_ADD0 */
 701:../../Drivers/STM32H7xx_HAL_Driver/Src/stm32h7xx_hal.c **** 
 702:../../Drivers/STM32H7xx_HAL_Driver/Src/stm32h7xx_hal.c **** #if defined(DUAL_CORE)
 703:../../Drivers/STM32H7xx_HAL_Driver/Src/stm32h7xx_hal.c **** /**
 704:../../Drivers/STM32H7xx_HAL_Driver/Src/stm32h7xx_hal.c ****   * @brief  BootCM4 address 0 configuration
 705:../../Drivers/STM32H7xx_HAL_Driver/Src/stm32h7xx_hal.c ****   * @param  BootRegister :Specifies the Boot Address register (Address0 or Address1)
 706:../../Drivers/STM32H7xx_HAL_Driver/Src/stm32h7xx_hal.c ****   *   This parameter can be one of the following values:
 707:../../Drivers/STM32H7xx_HAL_Driver/Src/stm32h7xx_hal.c ****   *   @arg SYSCFG_BOOT_ADDR0 : Select the boot address0
 708:../../Drivers/STM32H7xx_HAL_Driver/Src/stm32h7xx_hal.c ****   *   @arg SYSCFG_BOOT_ADDR1:  Select the boot address1
 709:../../Drivers/STM32H7xx_HAL_Driver/Src/stm32h7xx_hal.c ****   * @param  BootAddress :Specifies the CM4 Boot Address to be loaded in Address0 or Address1
 710:../../Drivers/STM32H7xx_HAL_Driver/Src/stm32h7xx_hal.c ****   * @retval None
 711:../../Drivers/STM32H7xx_HAL_Driver/Src/stm32h7xx_hal.c ****   */
 712:../../Drivers/STM32H7xx_HAL_Driver/Src/stm32h7xx_hal.c **** void HAL_SYSCFG_CM4BootAddConfig(uint32_t BootRegister, uint32_t BootAddress)
 713:../../Drivers/STM32H7xx_HAL_Driver/Src/stm32h7xx_hal.c **** {
 1181              		.loc 1 713 1 is_stmt 1 view -0
 1182              		.cfi_startproc
 1183              		@ args = 0, pretend = 0, frame = 0
 1184              		@ frame_needed = 0, uses_anonymous_args = 0
 1185              		@ link register save eliminated.
 714:../../Drivers/STM32H7xx_HAL_Driver/Src/stm32h7xx_hal.c ****   /* Check the parameters */
 715:../../Drivers/STM32H7xx_HAL_Driver/Src/stm32h7xx_hal.c ****   assert_param(IS_SYSCFG_BOOT_REGISTER(BootRegister));
 1186              		.loc 1 715 3 view .LVU218
 716:../../Drivers/STM32H7xx_HAL_Driver/Src/stm32h7xx_hal.c ****   assert_param(IS_SYSCFG_BOOT_ADDRESS(BootAddress));
 1187              		.loc 1 716 3 view .LVU219
 717:../../Drivers/STM32H7xx_HAL_Driver/Src/stm32h7xx_hal.c **** 
 718:../../Drivers/STM32H7xx_HAL_Driver/Src/stm32h7xx_hal.c ****   if ( BootRegister == SYSCFG_BOOT_ADDR0 )
 1188              		.loc 1 718 3 view .LVU220
 1189              		.loc 1 718 6 is_stmt 0 view .LVU221
 1190 0000 48B9     		cbnz	r0, .L115
 719:../../Drivers/STM32H7xx_HAL_Driver/Src/stm32h7xx_hal.c ****   {
 720:../../Drivers/STM32H7xx_HAL_Driver/Src/stm32h7xx_hal.c ****     /* Configure CM4 BOOT ADD0 */
 721:../../Drivers/STM32H7xx_HAL_Driver/Src/stm32h7xx_hal.c ****     MODIFY_REG(SYSCFG->UR3, SYSCFG_UR3_BCM4_ADD0, ((BootAddress >> 16)<< SYSCFG_UR3_BCM4_ADD0_Pos))
 1191              		.loc 1 721 5 is_stmt 1 view .LVU222
 1192 0002 0A48     		ldr	r0, .L117
 1193              	.LVL41:
 1194              		.loc 1 721 5 is_stmt 0 view .LVU223
 1195 0004 D0F80C33 		ldr	r3, [r0, #780]
 1196 0008 9BB2     		uxth	r3, r3
ARM GAS  /tmp/ccJ8mj6U.s 			page 35


 1197 000a 094A     		ldr	r2, .L117+4
 1198 000c 0A40     		ands	r2, r2, r1
 1199 000e 1343     		orrs	r3, r3, r2
 1200 0010 C0F80C33 		str	r3, [r0, #780]
 1201 0014 7047     		bx	lr
 1202              	.LVL42:
 1203              	.L115:
 722:../../Drivers/STM32H7xx_HAL_Driver/Src/stm32h7xx_hal.c ****   }
 723:../../Drivers/STM32H7xx_HAL_Driver/Src/stm32h7xx_hal.c **** 
 724:../../Drivers/STM32H7xx_HAL_Driver/Src/stm32h7xx_hal.c ****   else
 725:../../Drivers/STM32H7xx_HAL_Driver/Src/stm32h7xx_hal.c ****   {
 726:../../Drivers/STM32H7xx_HAL_Driver/Src/stm32h7xx_hal.c ****     /* Configure CM4 BOOT ADD1 */
 727:../../Drivers/STM32H7xx_HAL_Driver/Src/stm32h7xx_hal.c ****     MODIFY_REG(SYSCFG->UR4, SYSCFG_UR4_BCM4_ADD1, (BootAddress >> 16));
 1204              		.loc 1 727 5 is_stmt 1 view .LVU224
 1205 0016 054A     		ldr	r2, .L117
 1206 0018 D2F81003 		ldr	r0, [r2, #784]
 1207              	.LVL43:
 1208              		.loc 1 727 5 is_stmt 0 view .LVU225
 1209 001c 044B     		ldr	r3, .L117+4
 1210 001e 0340     		ands	r3, r3, r0
 1211 0020 43EA1141 		orr	r1, r3, r1, lsr #16
 1212              	.LVL44:
 1213              		.loc 1 727 5 view .LVU226
 1214 0024 C2F81013 		str	r1, [r2, #784]
 728:../../Drivers/STM32H7xx_HAL_Driver/Src/stm32h7xx_hal.c ****   }
 729:../../Drivers/STM32H7xx_HAL_Driver/Src/stm32h7xx_hal.c **** }
 1215              		.loc 1 729 1 view .LVU227
 1216 0028 7047     		bx	lr
 1217              	.L118:
 1218 002a 00BF     		.align	2
 1219              	.L117:
 1220 002c 00040058 		.word	1476396032
 1221 0030 0000FFFF 		.word	-65536
 1222              		.cfi_endproc
 1223              	.LFE173:
 1225              		.section	.text.HAL_SYSCFG_EnableCM7BOOT,"ax",%progbits
 1226              		.align	1
 1227              		.global	HAL_SYSCFG_EnableCM7BOOT
 1228              		.syntax unified
 1229              		.thumb
 1230              		.thumb_func
 1231              		.fpu fpv5-d16
 1233              	HAL_SYSCFG_EnableCM7BOOT:
 1234              	.LFB174:
 730:../../Drivers/STM32H7xx_HAL_Driver/Src/stm32h7xx_hal.c **** 
 731:../../Drivers/STM32H7xx_HAL_Driver/Src/stm32h7xx_hal.c **** /**
 732:../../Drivers/STM32H7xx_HAL_Driver/Src/stm32h7xx_hal.c ****   * @brief  Enables the Cortex-M7 boot
 733:../../Drivers/STM32H7xx_HAL_Driver/Src/stm32h7xx_hal.c ****   * @retval None
 734:../../Drivers/STM32H7xx_HAL_Driver/Src/stm32h7xx_hal.c ****   */
 735:../../Drivers/STM32H7xx_HAL_Driver/Src/stm32h7xx_hal.c **** void HAL_SYSCFG_EnableCM7BOOT(void)
 736:../../Drivers/STM32H7xx_HAL_Driver/Src/stm32h7xx_hal.c **** {
 1235              		.loc 1 736 1 is_stmt 1 view -0
 1236              		.cfi_startproc
 1237              		@ args = 0, pretend = 0, frame = 0
 1238              		@ frame_needed = 0, uses_anonymous_args = 0
 1239              		@ link register save eliminated.
 737:../../Drivers/STM32H7xx_HAL_Driver/Src/stm32h7xx_hal.c ****  SET_BIT(SYSCFG->UR1, SYSCFG_UR1_BCM7);
ARM GAS  /tmp/ccJ8mj6U.s 			page 36


 1240              		.loc 1 737 2 view .LVU229
 1241 0000 034A     		ldr	r2, .L120
 1242 0002 D2F80433 		ldr	r3, [r2, #772]
 1243 0006 43F48033 		orr	r3, r3, #65536
 1244 000a C2F80433 		str	r3, [r2, #772]
 738:../../Drivers/STM32H7xx_HAL_Driver/Src/stm32h7xx_hal.c **** }
 1245              		.loc 1 738 1 is_stmt 0 view .LVU230
 1246 000e 7047     		bx	lr
 1247              	.L121:
 1248              		.align	2
 1249              	.L120:
 1250 0010 00040058 		.word	1476396032
 1251              		.cfi_endproc
 1252              	.LFE174:
 1254              		.section	.text.HAL_SYSCFG_DisableCM7BOOT,"ax",%progbits
 1255              		.align	1
 1256              		.global	HAL_SYSCFG_DisableCM7BOOT
 1257              		.syntax unified
 1258              		.thumb
 1259              		.thumb_func
 1260              		.fpu fpv5-d16
 1262              	HAL_SYSCFG_DisableCM7BOOT:
 1263              	.LFB175:
 739:../../Drivers/STM32H7xx_HAL_Driver/Src/stm32h7xx_hal.c **** 
 740:../../Drivers/STM32H7xx_HAL_Driver/Src/stm32h7xx_hal.c **** /**
 741:../../Drivers/STM32H7xx_HAL_Driver/Src/stm32h7xx_hal.c ****   * @brief  Disables the Cortex-M7 boot
 742:../../Drivers/STM32H7xx_HAL_Driver/Src/stm32h7xx_hal.c ****   * @note   Disabling the boot will gate the CPU clock
 743:../../Drivers/STM32H7xx_HAL_Driver/Src/stm32h7xx_hal.c ****   * @retval None
 744:../../Drivers/STM32H7xx_HAL_Driver/Src/stm32h7xx_hal.c ****   */
 745:../../Drivers/STM32H7xx_HAL_Driver/Src/stm32h7xx_hal.c **** void HAL_SYSCFG_DisableCM7BOOT(void)
 746:../../Drivers/STM32H7xx_HAL_Driver/Src/stm32h7xx_hal.c **** {
 1264              		.loc 1 746 1 is_stmt 1 view -0
 1265              		.cfi_startproc
 1266              		@ args = 0, pretend = 0, frame = 0
 1267              		@ frame_needed = 0, uses_anonymous_args = 0
 1268              		@ link register save eliminated.
 747:../../Drivers/STM32H7xx_HAL_Driver/Src/stm32h7xx_hal.c ****  CLEAR_BIT(SYSCFG->UR1, SYSCFG_UR1_BCM7) ;
 1269              		.loc 1 747 2 view .LVU232
 1270 0000 034A     		ldr	r2, .L123
 1271 0002 D2F80433 		ldr	r3, [r2, #772]
 1272 0006 23F48033 		bic	r3, r3, #65536
 1273 000a C2F80433 		str	r3, [r2, #772]
 748:../../Drivers/STM32H7xx_HAL_Driver/Src/stm32h7xx_hal.c **** }
 1274              		.loc 1 748 1 is_stmt 0 view .LVU233
 1275 000e 7047     		bx	lr
 1276              	.L124:
 1277              		.align	2
 1278              	.L123:
 1279 0010 00040058 		.word	1476396032
 1280              		.cfi_endproc
 1281              	.LFE175:
 1283              		.section	.text.HAL_SYSCFG_EnableCM4BOOT,"ax",%progbits
 1284              		.align	1
 1285              		.global	HAL_SYSCFG_EnableCM4BOOT
 1286              		.syntax unified
 1287              		.thumb
 1288              		.thumb_func
ARM GAS  /tmp/ccJ8mj6U.s 			page 37


 1289              		.fpu fpv5-d16
 1291              	HAL_SYSCFG_EnableCM4BOOT:
 1292              	.LFB176:
 749:../../Drivers/STM32H7xx_HAL_Driver/Src/stm32h7xx_hal.c **** 
 750:../../Drivers/STM32H7xx_HAL_Driver/Src/stm32h7xx_hal.c **** /**
 751:../../Drivers/STM32H7xx_HAL_Driver/Src/stm32h7xx_hal.c ****   * @brief  Enables the Cortex-M4 boot
 752:../../Drivers/STM32H7xx_HAL_Driver/Src/stm32h7xx_hal.c ****   * @retval None
 753:../../Drivers/STM32H7xx_HAL_Driver/Src/stm32h7xx_hal.c ****   */
 754:../../Drivers/STM32H7xx_HAL_Driver/Src/stm32h7xx_hal.c **** void HAL_SYSCFG_EnableCM4BOOT(void)
 755:../../Drivers/STM32H7xx_HAL_Driver/Src/stm32h7xx_hal.c **** {
 1293              		.loc 1 755 1 is_stmt 1 view -0
 1294              		.cfi_startproc
 1295              		@ args = 0, pretend = 0, frame = 0
 1296              		@ frame_needed = 0, uses_anonymous_args = 0
 1297              		@ link register save eliminated.
 756:../../Drivers/STM32H7xx_HAL_Driver/Src/stm32h7xx_hal.c ****  SET_BIT(SYSCFG->UR1, SYSCFG_UR1_BCM4);
 1298              		.loc 1 756 2 view .LVU235
 1299 0000 034A     		ldr	r2, .L126
 1300 0002 D2F80433 		ldr	r3, [r2, #772]
 1301 0006 43F00103 		orr	r3, r3, #1
 1302 000a C2F80433 		str	r3, [r2, #772]
 757:../../Drivers/STM32H7xx_HAL_Driver/Src/stm32h7xx_hal.c **** }
 1303              		.loc 1 757 1 is_stmt 0 view .LVU236
 1304 000e 7047     		bx	lr
 1305              	.L127:
 1306              		.align	2
 1307              	.L126:
 1308 0010 00040058 		.word	1476396032
 1309              		.cfi_endproc
 1310              	.LFE176:
 1312              		.section	.text.HAL_SYSCFG_DisableCM4BOOT,"ax",%progbits
 1313              		.align	1
 1314              		.global	HAL_SYSCFG_DisableCM4BOOT
 1315              		.syntax unified
 1316              		.thumb
 1317              		.thumb_func
 1318              		.fpu fpv5-d16
 1320              	HAL_SYSCFG_DisableCM4BOOT:
 1321              	.LFB177:
 758:../../Drivers/STM32H7xx_HAL_Driver/Src/stm32h7xx_hal.c **** 
 759:../../Drivers/STM32H7xx_HAL_Driver/Src/stm32h7xx_hal.c **** /**
 760:../../Drivers/STM32H7xx_HAL_Driver/Src/stm32h7xx_hal.c ****   * @brief  Disables the Cortex-M4 boot
 761:../../Drivers/STM32H7xx_HAL_Driver/Src/stm32h7xx_hal.c ****   * @note   Disabling the boot will gate the CPU clock
 762:../../Drivers/STM32H7xx_HAL_Driver/Src/stm32h7xx_hal.c ****   * @retval None
 763:../../Drivers/STM32H7xx_HAL_Driver/Src/stm32h7xx_hal.c ****   */
 764:../../Drivers/STM32H7xx_HAL_Driver/Src/stm32h7xx_hal.c **** void HAL_SYSCFG_DisableCM4BOOT(void)
 765:../../Drivers/STM32H7xx_HAL_Driver/Src/stm32h7xx_hal.c **** {
 1322              		.loc 1 765 1 is_stmt 1 view -0
 1323              		.cfi_startproc
 1324              		@ args = 0, pretend = 0, frame = 0
 1325              		@ frame_needed = 0, uses_anonymous_args = 0
 1326              		@ link register save eliminated.
 766:../../Drivers/STM32H7xx_HAL_Driver/Src/stm32h7xx_hal.c ****   CLEAR_BIT(SYSCFG->UR1, SYSCFG_UR1_BCM4);
 1327              		.loc 1 766 3 view .LVU238
 1328 0000 034A     		ldr	r2, .L129
 1329 0002 D2F80433 		ldr	r3, [r2, #772]
 1330 0006 23F00103 		bic	r3, r3, #1
ARM GAS  /tmp/ccJ8mj6U.s 			page 38


 1331 000a C2F80433 		str	r3, [r2, #772]
 767:../../Drivers/STM32H7xx_HAL_Driver/Src/stm32h7xx_hal.c **** }
 1332              		.loc 1 767 1 is_stmt 0 view .LVU239
 1333 000e 7047     		bx	lr
 1334              	.L130:
 1335              		.align	2
 1336              	.L129:
 1337 0010 00040058 		.word	1476396032
 1338              		.cfi_endproc
 1339              	.LFE177:
 1341              		.section	.text.HAL_EnableCompensationCell,"ax",%progbits
 1342              		.align	1
 1343              		.global	HAL_EnableCompensationCell
 1344              		.syntax unified
 1345              		.thumb
 1346              		.thumb_func
 1347              		.fpu fpv5-d16
 1349              	HAL_EnableCompensationCell:
 1350              	.LFB178:
 768:../../Drivers/STM32H7xx_HAL_Driver/Src/stm32h7xx_hal.c **** #endif /*DUAL_CORE*/
 769:../../Drivers/STM32H7xx_HAL_Driver/Src/stm32h7xx_hal.c **** /**
 770:../../Drivers/STM32H7xx_HAL_Driver/Src/stm32h7xx_hal.c ****   * @brief  Enables the I/O Compensation Cell.
 771:../../Drivers/STM32H7xx_HAL_Driver/Src/stm32h7xx_hal.c ****   * @note   The I/O compensation cell can be used only when the device supply
 772:../../Drivers/STM32H7xx_HAL_Driver/Src/stm32h7xx_hal.c ****   *         voltage ranges from 1.62 to 2.0 V and from 2.7 to 3.6 V.
 773:../../Drivers/STM32H7xx_HAL_Driver/Src/stm32h7xx_hal.c ****   * @retval None
 774:../../Drivers/STM32H7xx_HAL_Driver/Src/stm32h7xx_hal.c ****   */
 775:../../Drivers/STM32H7xx_HAL_Driver/Src/stm32h7xx_hal.c **** void HAL_EnableCompensationCell(void)
 776:../../Drivers/STM32H7xx_HAL_Driver/Src/stm32h7xx_hal.c **** {
 1351              		.loc 1 776 1 is_stmt 1 view -0
 1352              		.cfi_startproc
 1353              		@ args = 0, pretend = 0, frame = 0
 1354              		@ frame_needed = 0, uses_anonymous_args = 0
 1355              		@ link register save eliminated.
 777:../../Drivers/STM32H7xx_HAL_Driver/Src/stm32h7xx_hal.c ****   SET_BIT(SYSCFG->CCCSR, SYSCFG_CCCSR_EN) ;
 1356              		.loc 1 777 3 view .LVU241
 1357 0000 024A     		ldr	r2, .L132
 1358 0002 136A     		ldr	r3, [r2, #32]
 1359 0004 43F00103 		orr	r3, r3, #1
 1360 0008 1362     		str	r3, [r2, #32]
 778:../../Drivers/STM32H7xx_HAL_Driver/Src/stm32h7xx_hal.c **** }
 1361              		.loc 1 778 1 is_stmt 0 view .LVU242
 1362 000a 7047     		bx	lr
 1363              	.L133:
 1364              		.align	2
 1365              	.L132:
 1366 000c 00040058 		.word	1476396032
 1367              		.cfi_endproc
 1368              	.LFE178:
 1370              		.section	.text.HAL_DisableCompensationCell,"ax",%progbits
 1371              		.align	1
 1372              		.global	HAL_DisableCompensationCell
 1373              		.syntax unified
 1374              		.thumb
 1375              		.thumb_func
 1376              		.fpu fpv5-d16
 1378              	HAL_DisableCompensationCell:
 1379              	.LFB179:
ARM GAS  /tmp/ccJ8mj6U.s 			page 39


 779:../../Drivers/STM32H7xx_HAL_Driver/Src/stm32h7xx_hal.c **** 
 780:../../Drivers/STM32H7xx_HAL_Driver/Src/stm32h7xx_hal.c **** /**
 781:../../Drivers/STM32H7xx_HAL_Driver/Src/stm32h7xx_hal.c ****   * @brief  Power-down the I/O Compensation Cell.
 782:../../Drivers/STM32H7xx_HAL_Driver/Src/stm32h7xx_hal.c ****   * @note   The I/O compensation cell can be used only when the device supply
 783:../../Drivers/STM32H7xx_HAL_Driver/Src/stm32h7xx_hal.c ****   *         voltage ranges from 1.62 to 2.0 V and from 2.7 to 3.6 V.
 784:../../Drivers/STM32H7xx_HAL_Driver/Src/stm32h7xx_hal.c ****   * @retval None
 785:../../Drivers/STM32H7xx_HAL_Driver/Src/stm32h7xx_hal.c ****   */
 786:../../Drivers/STM32H7xx_HAL_Driver/Src/stm32h7xx_hal.c **** void HAL_DisableCompensationCell(void)
 787:../../Drivers/STM32H7xx_HAL_Driver/Src/stm32h7xx_hal.c **** {
 1380              		.loc 1 787 1 is_stmt 1 view -0
 1381              		.cfi_startproc
 1382              		@ args = 0, pretend = 0, frame = 0
 1383              		@ frame_needed = 0, uses_anonymous_args = 0
 1384              		@ link register save eliminated.
 788:../../Drivers/STM32H7xx_HAL_Driver/Src/stm32h7xx_hal.c ****   CLEAR_BIT(SYSCFG->CCCSR, SYSCFG_CCCSR_EN);
 1385              		.loc 1 788 3 view .LVU244
 1386 0000 024A     		ldr	r2, .L135
 1387 0002 136A     		ldr	r3, [r2, #32]
 1388 0004 23F00103 		bic	r3, r3, #1
 1389 0008 1362     		str	r3, [r2, #32]
 789:../../Drivers/STM32H7xx_HAL_Driver/Src/stm32h7xx_hal.c **** }
 1390              		.loc 1 789 1 is_stmt 0 view .LVU245
 1391 000a 7047     		bx	lr
 1392              	.L136:
 1393              		.align	2
 1394              	.L135:
 1395 000c 00040058 		.word	1476396032
 1396              		.cfi_endproc
 1397              	.LFE179:
 1399              		.section	.text.HAL_SYSCFG_EnableIOSpeedOptimize,"ax",%progbits
 1400              		.align	1
 1401              		.global	HAL_SYSCFG_EnableIOSpeedOptimize
 1402              		.syntax unified
 1403              		.thumb
 1404              		.thumb_func
 1405              		.fpu fpv5-d16
 1407              	HAL_SYSCFG_EnableIOSpeedOptimize:
 1408              	.LFB180:
 790:../../Drivers/STM32H7xx_HAL_Driver/Src/stm32h7xx_hal.c **** 
 791:../../Drivers/STM32H7xx_HAL_Driver/Src/stm32h7xx_hal.c **** 
 792:../../Drivers/STM32H7xx_HAL_Driver/Src/stm32h7xx_hal.c **** /**
 793:../../Drivers/STM32H7xx_HAL_Driver/Src/stm32h7xx_hal.c ****   * @brief  To Enable optimize the I/O speed when the product voltage is low.
 794:../../Drivers/STM32H7xx_HAL_Driver/Src/stm32h7xx_hal.c ****   * @note   This bit is active only if PRODUCT_BELOW_25V user option bit is set. It must be
 795:../../Drivers/STM32H7xx_HAL_Driver/Src/stm32h7xx_hal.c ****   *         used only if the product supply voltage is below 2.5 V. Setting this bit when VDD is
 796:../../Drivers/STM32H7xx_HAL_Driver/Src/stm32h7xx_hal.c ****   *         higher than 2.5 V might be destructive.
 797:../../Drivers/STM32H7xx_HAL_Driver/Src/stm32h7xx_hal.c ****   * @retval None
 798:../../Drivers/STM32H7xx_HAL_Driver/Src/stm32h7xx_hal.c ****   */
 799:../../Drivers/STM32H7xx_HAL_Driver/Src/stm32h7xx_hal.c **** void HAL_SYSCFG_EnableIOSpeedOptimize(void)
 800:../../Drivers/STM32H7xx_HAL_Driver/Src/stm32h7xx_hal.c **** {
 1409              		.loc 1 800 1 is_stmt 1 view -0
 1410              		.cfi_startproc
 1411              		@ args = 0, pretend = 0, frame = 0
 1412              		@ frame_needed = 0, uses_anonymous_args = 0
 1413              		@ link register save eliminated.
 801:../../Drivers/STM32H7xx_HAL_Driver/Src/stm32h7xx_hal.c **** #if defined(SYSCFG_CCCSR_HSLV)
 802:../../Drivers/STM32H7xx_HAL_Driver/Src/stm32h7xx_hal.c ****   SET_BIT(SYSCFG->CCCSR, SYSCFG_CCCSR_HSLV);
 1414              		.loc 1 802 3 view .LVU247
ARM GAS  /tmp/ccJ8mj6U.s 			page 40


 1415 0000 024A     		ldr	r2, .L138
 1416 0002 136A     		ldr	r3, [r2, #32]
 1417 0004 43F48033 		orr	r3, r3, #65536
 1418 0008 1362     		str	r3, [r2, #32]
 803:../../Drivers/STM32H7xx_HAL_Driver/Src/stm32h7xx_hal.c **** #else
 804:../../Drivers/STM32H7xx_HAL_Driver/Src/stm32h7xx_hal.c ****   SET_BIT(SYSCFG->CCCSR, (SYSCFG_CCCSR_HSLV0| SYSCFG_CCCSR_HSLV1 | SYSCFG_CCCSR_HSLV2  | SYSCFG_CCC
 805:../../Drivers/STM32H7xx_HAL_Driver/Src/stm32h7xx_hal.c **** #endif   /* SYSCFG_CCCSR_HSLV */
 806:../../Drivers/STM32H7xx_HAL_Driver/Src/stm32h7xx_hal.c **** }
 1419              		.loc 1 806 1 is_stmt 0 view .LVU248
 1420 000a 7047     		bx	lr
 1421              	.L139:
 1422              		.align	2
 1423              	.L138:
 1424 000c 00040058 		.word	1476396032
 1425              		.cfi_endproc
 1426              	.LFE180:
 1428              		.section	.text.HAL_SYSCFG_DisableIOSpeedOptimize,"ax",%progbits
 1429              		.align	1
 1430              		.global	HAL_SYSCFG_DisableIOSpeedOptimize
 1431              		.syntax unified
 1432              		.thumb
 1433              		.thumb_func
 1434              		.fpu fpv5-d16
 1436              	HAL_SYSCFG_DisableIOSpeedOptimize:
 1437              	.LFB181:
 807:../../Drivers/STM32H7xx_HAL_Driver/Src/stm32h7xx_hal.c **** 
 808:../../Drivers/STM32H7xx_HAL_Driver/Src/stm32h7xx_hal.c **** /**
 809:../../Drivers/STM32H7xx_HAL_Driver/Src/stm32h7xx_hal.c ****   * @brief  To Disable optimize the I/O speed when the product voltage is low.
 810:../../Drivers/STM32H7xx_HAL_Driver/Src/stm32h7xx_hal.c ****   * @note   This bit is active only if PRODUCT_BELOW_25V user option bit is set. It must be
 811:../../Drivers/STM32H7xx_HAL_Driver/Src/stm32h7xx_hal.c ****   *         used only if the product supply voltage is below 2.5 V. Setting this bit when VDD is
 812:../../Drivers/STM32H7xx_HAL_Driver/Src/stm32h7xx_hal.c ****   *         higher than 2.5 V might be destructive.
 813:../../Drivers/STM32H7xx_HAL_Driver/Src/stm32h7xx_hal.c ****   * @retval None
 814:../../Drivers/STM32H7xx_HAL_Driver/Src/stm32h7xx_hal.c ****   */
 815:../../Drivers/STM32H7xx_HAL_Driver/Src/stm32h7xx_hal.c **** void HAL_SYSCFG_DisableIOSpeedOptimize(void)
 816:../../Drivers/STM32H7xx_HAL_Driver/Src/stm32h7xx_hal.c **** {
 1438              		.loc 1 816 1 is_stmt 1 view -0
 1439              		.cfi_startproc
 1440              		@ args = 0, pretend = 0, frame = 0
 1441              		@ frame_needed = 0, uses_anonymous_args = 0
 1442              		@ link register save eliminated.
 817:../../Drivers/STM32H7xx_HAL_Driver/Src/stm32h7xx_hal.c **** #if defined(SYSCFG_CCCSR_HSLV)
 818:../../Drivers/STM32H7xx_HAL_Driver/Src/stm32h7xx_hal.c ****   CLEAR_BIT(SYSCFG->CCCSR, SYSCFG_CCCSR_HSLV);
 1443              		.loc 1 818 3 view .LVU250
 1444 0000 024A     		ldr	r2, .L141
 1445 0002 136A     		ldr	r3, [r2, #32]
 1446 0004 23F48033 		bic	r3, r3, #65536
 1447 0008 1362     		str	r3, [r2, #32]
 819:../../Drivers/STM32H7xx_HAL_Driver/Src/stm32h7xx_hal.c **** #else
 820:../../Drivers/STM32H7xx_HAL_Driver/Src/stm32h7xx_hal.c ****   CLEAR_BIT(SYSCFG->CCCSR, (SYSCFG_CCCSR_HSLV0| SYSCFG_CCCSR_HSLV1 | SYSCFG_CCCSR_HSLV2  | SYSCFG_C
 821:../../Drivers/STM32H7xx_HAL_Driver/Src/stm32h7xx_hal.c **** #endif   /* SYSCFG_CCCSR_HSLV */
 822:../../Drivers/STM32H7xx_HAL_Driver/Src/stm32h7xx_hal.c **** }
 1448              		.loc 1 822 1 is_stmt 0 view .LVU251
 1449 000a 7047     		bx	lr
 1450              	.L142:
 1451              		.align	2
 1452              	.L141:
 1453 000c 00040058 		.word	1476396032
ARM GAS  /tmp/ccJ8mj6U.s 			page 41


 1454              		.cfi_endproc
 1455              	.LFE181:
 1457              		.section	.text.HAL_SYSCFG_CompensationCodeSelect,"ax",%progbits
 1458              		.align	1
 1459              		.global	HAL_SYSCFG_CompensationCodeSelect
 1460              		.syntax unified
 1461              		.thumb
 1462              		.thumb_func
 1463              		.fpu fpv5-d16
 1465              	HAL_SYSCFG_CompensationCodeSelect:
 1466              	.LVL45:
 1467              	.LFB182:
 823:../../Drivers/STM32H7xx_HAL_Driver/Src/stm32h7xx_hal.c **** 
 824:../../Drivers/STM32H7xx_HAL_Driver/Src/stm32h7xx_hal.c **** /**
 825:../../Drivers/STM32H7xx_HAL_Driver/Src/stm32h7xx_hal.c ****   * @brief  Code selection for the I/O Compensation cell
 826:../../Drivers/STM32H7xx_HAL_Driver/Src/stm32h7xx_hal.c ****   * @param  SYSCFG_CompCode: Selects the code to be applied for the I/O compensation cell
 827:../../Drivers/STM32H7xx_HAL_Driver/Src/stm32h7xx_hal.c ****   *   This parameter can be one of the following values:
 828:../../Drivers/STM32H7xx_HAL_Driver/Src/stm32h7xx_hal.c ****   *   @arg SYSCFG_CELL_CODE : Select Code from the cell (available in the SYSCFG_CCVR)
 829:../../Drivers/STM32H7xx_HAL_Driver/Src/stm32h7xx_hal.c ****   *   @arg SYSCFG_REGISTER_CODE: Select Code from the SYSCFG compensation cell code register (SYSCF
 830:../../Drivers/STM32H7xx_HAL_Driver/Src/stm32h7xx_hal.c ****   * @retval None
 831:../../Drivers/STM32H7xx_HAL_Driver/Src/stm32h7xx_hal.c ****   */
 832:../../Drivers/STM32H7xx_HAL_Driver/Src/stm32h7xx_hal.c **** void HAL_SYSCFG_CompensationCodeSelect(uint32_t SYSCFG_CompCode)
 833:../../Drivers/STM32H7xx_HAL_Driver/Src/stm32h7xx_hal.c **** {
 1468              		.loc 1 833 1 is_stmt 1 view -0
 1469              		.cfi_startproc
 1470              		@ args = 0, pretend = 0, frame = 0
 1471              		@ frame_needed = 0, uses_anonymous_args = 0
 1472              		@ link register save eliminated.
 834:../../Drivers/STM32H7xx_HAL_Driver/Src/stm32h7xx_hal.c ****   /* Check the parameter */
 835:../../Drivers/STM32H7xx_HAL_Driver/Src/stm32h7xx_hal.c ****   assert_param(IS_SYSCFG_CODE_SELECT(SYSCFG_CompCode));
 1473              		.loc 1 835 3 view .LVU253
 836:../../Drivers/STM32H7xx_HAL_Driver/Src/stm32h7xx_hal.c ****   MODIFY_REG(SYSCFG->CCCSR, SYSCFG_CCCSR_CS, (uint32_t)(SYSCFG_CompCode));
 1474              		.loc 1 836 3 view .LVU254
 1475 0000 034A     		ldr	r2, .L144
 1476 0002 136A     		ldr	r3, [r2, #32]
 1477 0004 23F00203 		bic	r3, r3, #2
 1478 0008 0343     		orrs	r3, r3, r0
 1479 000a 1362     		str	r3, [r2, #32]
 837:../../Drivers/STM32H7xx_HAL_Driver/Src/stm32h7xx_hal.c **** }
 1480              		.loc 1 837 1 is_stmt 0 view .LVU255
 1481 000c 7047     		bx	lr
 1482              	.L145:
 1483 000e 00BF     		.align	2
 1484              	.L144:
 1485 0010 00040058 		.word	1476396032
 1486              		.cfi_endproc
 1487              	.LFE182:
 1489              		.section	.text.HAL_SYSCFG_CompensationCodeConfig,"ax",%progbits
 1490              		.align	1
 1491              		.global	HAL_SYSCFG_CompensationCodeConfig
 1492              		.syntax unified
 1493              		.thumb
 1494              		.thumb_func
 1495              		.fpu fpv5-d16
 1497              	HAL_SYSCFG_CompensationCodeConfig:
 1498              	.LVL46:
 1499              	.LFB183:
ARM GAS  /tmp/ccJ8mj6U.s 			page 42


 838:../../Drivers/STM32H7xx_HAL_Driver/Src/stm32h7xx_hal.c **** 
 839:../../Drivers/STM32H7xx_HAL_Driver/Src/stm32h7xx_hal.c **** /**
 840:../../Drivers/STM32H7xx_HAL_Driver/Src/stm32h7xx_hal.c ****   * @brief  Code selection for the I/O Compensation cell
 841:../../Drivers/STM32H7xx_HAL_Driver/Src/stm32h7xx_hal.c ****   * @param  SYSCFG_PMOSCode: PMOS compensation code
 842:../../Drivers/STM32H7xx_HAL_Driver/Src/stm32h7xx_hal.c ****   *         This code is applied to the I/O compensation cell when the CS bit of the
 843:../../Drivers/STM32H7xx_HAL_Driver/Src/stm32h7xx_hal.c ****   *          SYSCFG_CMPCR is set
 844:../../Drivers/STM32H7xx_HAL_Driver/Src/stm32h7xx_hal.c ****   * @param  SYSCFG_NMOSCode: NMOS compensation code
 845:../../Drivers/STM32H7xx_HAL_Driver/Src/stm32h7xx_hal.c ****   *         This code is applied to the I/O compensation cell when the CS bit of the
 846:../../Drivers/STM32H7xx_HAL_Driver/Src/stm32h7xx_hal.c ****   *          SYSCFG_CMPCR is set
 847:../../Drivers/STM32H7xx_HAL_Driver/Src/stm32h7xx_hal.c ****   * @retval None
 848:../../Drivers/STM32H7xx_HAL_Driver/Src/stm32h7xx_hal.c ****   */
 849:../../Drivers/STM32H7xx_HAL_Driver/Src/stm32h7xx_hal.c **** void HAL_SYSCFG_CompensationCodeConfig(uint32_t SYSCFG_PMOSCode, uint32_t SYSCFG_NMOSCode )
 850:../../Drivers/STM32H7xx_HAL_Driver/Src/stm32h7xx_hal.c **** {
 1500              		.loc 1 850 1 is_stmt 1 view -0
 1501              		.cfi_startproc
 1502              		@ args = 0, pretend = 0, frame = 0
 1503              		@ frame_needed = 0, uses_anonymous_args = 0
 1504              		@ link register save eliminated.
 851:../../Drivers/STM32H7xx_HAL_Driver/Src/stm32h7xx_hal.c ****   /* Check the parameter */
 852:../../Drivers/STM32H7xx_HAL_Driver/Src/stm32h7xx_hal.c ****   assert_param(IS_SYSCFG_CODE_CONFIG(SYSCFG_PMOSCode));
 1505              		.loc 1 852 3 view .LVU257
 853:../../Drivers/STM32H7xx_HAL_Driver/Src/stm32h7xx_hal.c ****   assert_param(IS_SYSCFG_CODE_CONFIG(SYSCFG_NMOSCode));
 1506              		.loc 1 853 3 view .LVU258
 854:../../Drivers/STM32H7xx_HAL_Driver/Src/stm32h7xx_hal.c ****   MODIFY_REG(SYSCFG->CCCR, SYSCFG_CCCR_NCC|SYSCFG_CCCR_PCC, (((uint32_t)(SYSCFG_PMOSCode)<< 4)|(uin
 1507              		.loc 1 854 3 view .LVU259
 1508 0000 044A     		ldr	r2, .L147
 1509 0002 936A     		ldr	r3, [r2, #40]
 1510 0004 23F0FF03 		bic	r3, r3, #255
 1511 0008 41EA0011 		orr	r1, r1, r0, lsl #4
 1512              	.LVL47:
 1513              		.loc 1 854 3 is_stmt 0 view .LVU260
 1514 000c 0B43     		orrs	r3, r3, r1
 1515 000e 9362     		str	r3, [r2, #40]
 855:../../Drivers/STM32H7xx_HAL_Driver/Src/stm32h7xx_hal.c **** }
 1516              		.loc 1 855 1 view .LVU261
 1517 0010 7047     		bx	lr
 1518              	.L148:
 1519 0012 00BF     		.align	2
 1520              	.L147:
 1521 0014 00040058 		.word	1476396032
 1522              		.cfi_endproc
 1523              	.LFE183:
 1525              		.section	.text.HAL_DBGMCU_EnableDBGSleepMode,"ax",%progbits
 1526              		.align	1
 1527              		.global	HAL_DBGMCU_EnableDBGSleepMode
 1528              		.syntax unified
 1529              		.thumb
 1530              		.thumb_func
 1531              		.fpu fpv5-d16
 1533              	HAL_DBGMCU_EnableDBGSleepMode:
 1534              	.LFB184:
 856:../../Drivers/STM32H7xx_HAL_Driver/Src/stm32h7xx_hal.c **** 
 857:../../Drivers/STM32H7xx_HAL_Driver/Src/stm32h7xx_hal.c **** #if defined(SYSCFG_CCCR_NCC_MMC)
 858:../../Drivers/STM32H7xx_HAL_Driver/Src/stm32h7xx_hal.c **** /**
 859:../../Drivers/STM32H7xx_HAL_Driver/Src/stm32h7xx_hal.c ****   * @brief  Code selection for the I/O Compensation cell
 860:../../Drivers/STM32H7xx_HAL_Driver/Src/stm32h7xx_hal.c ****   * @param  SYSCFG_PMOSCode: VDDMMC PMOS compensation code
 861:../../Drivers/STM32H7xx_HAL_Driver/Src/stm32h7xx_hal.c ****   *         This code is applied to the I/O compensation cell when the CS bit of the
ARM GAS  /tmp/ccJ8mj6U.s 			page 43


 862:../../Drivers/STM32H7xx_HAL_Driver/Src/stm32h7xx_hal.c ****   *          SYSCFG_CMPCR is set
 863:../../Drivers/STM32H7xx_HAL_Driver/Src/stm32h7xx_hal.c ****   * @param  SYSCFG_NMOSCode: VDDMMC NMOS compensation code
 864:../../Drivers/STM32H7xx_HAL_Driver/Src/stm32h7xx_hal.c ****   *         This code is applied to the I/O compensation cell when the CS bit of the
 865:../../Drivers/STM32H7xx_HAL_Driver/Src/stm32h7xx_hal.c ****   *          SYSCFG_CMPCR is set
 866:../../Drivers/STM32H7xx_HAL_Driver/Src/stm32h7xx_hal.c ****   * @retval None
 867:../../Drivers/STM32H7xx_HAL_Driver/Src/stm32h7xx_hal.c ****   */
 868:../../Drivers/STM32H7xx_HAL_Driver/Src/stm32h7xx_hal.c **** void HAL_SYSCFG_VDDMMC_CompensationCodeConfig(uint32_t SYSCFG_PMOSCode, uint32_t SYSCFG_NMOSCode )
 869:../../Drivers/STM32H7xx_HAL_Driver/Src/stm32h7xx_hal.c **** {
 870:../../Drivers/STM32H7xx_HAL_Driver/Src/stm32h7xx_hal.c ****   /* Check the parameter */
 871:../../Drivers/STM32H7xx_HAL_Driver/Src/stm32h7xx_hal.c ****   assert_param(IS_SYSCFG_CODE_CONFIG(SYSCFG_PMOSCode));
 872:../../Drivers/STM32H7xx_HAL_Driver/Src/stm32h7xx_hal.c ****   assert_param(IS_SYSCFG_CODE_CONFIG(SYSCFG_NMOSCode));
 873:../../Drivers/STM32H7xx_HAL_Driver/Src/stm32h7xx_hal.c ****   MODIFY_REG(SYSCFG->CCCR, (SYSCFG_CCCR_NCC_MMC | SYSCFG_CCCR_PCC_MMC), (((uint32_t)(SYSCFG_PMOSCod
 874:../../Drivers/STM32H7xx_HAL_Driver/Src/stm32h7xx_hal.c **** }
 875:../../Drivers/STM32H7xx_HAL_Driver/Src/stm32h7xx_hal.c **** #endif /* SYSCFG_CCCR_NCC_MMC */
 876:../../Drivers/STM32H7xx_HAL_Driver/Src/stm32h7xx_hal.c **** 
 877:../../Drivers/STM32H7xx_HAL_Driver/Src/stm32h7xx_hal.c **** #if defined(SYSCFG_ADC2ALT_ADC2_ROUT0)
 878:../../Drivers/STM32H7xx_HAL_Driver/Src/stm32h7xx_hal.c **** /** @brief  SYSCFG ADC2 internal input alternate connection macros
 879:../../Drivers/STM32H7xx_HAL_Driver/Src/stm32h7xx_hal.c ****   * @param Adc2AltRout0 This parameter can be a value of :
 880:../../Drivers/STM32H7xx_HAL_Driver/Src/stm32h7xx_hal.c ****   *     @arg @ref SYSCFG_ADC2_ROUT0_DAC1_1   DAC1_out1 connected to ADC2 VINP[16]
 881:../../Drivers/STM32H7xx_HAL_Driver/Src/stm32h7xx_hal.c ****   *     @arg @ref SYSCFG_ADC2_ROUT0_VBAT4    VBAT/4 connected to ADC2 VINP[16]
 882:../../Drivers/STM32H7xx_HAL_Driver/Src/stm32h7xx_hal.c ****   */
 883:../../Drivers/STM32H7xx_HAL_Driver/Src/stm32h7xx_hal.c **** void HAL_SYSCFG_ADC2ALT_Rout0Config(uint32_t Adc2AltRout0)
 884:../../Drivers/STM32H7xx_HAL_Driver/Src/stm32h7xx_hal.c **** {
 885:../../Drivers/STM32H7xx_HAL_Driver/Src/stm32h7xx_hal.c ****   /* Check the parameters */
 886:../../Drivers/STM32H7xx_HAL_Driver/Src/stm32h7xx_hal.c ****   assert_param(IS_SYSCFG_ADC2ALT_ROUT0(Adc2AltRout0));
 887:../../Drivers/STM32H7xx_HAL_Driver/Src/stm32h7xx_hal.c **** 
 888:../../Drivers/STM32H7xx_HAL_Driver/Src/stm32h7xx_hal.c ****   MODIFY_REG(SYSCFG->ADC2ALT, SYSCFG_ADC2ALT_ADC2_ROUT0, Adc2AltRout0);
 889:../../Drivers/STM32H7xx_HAL_Driver/Src/stm32h7xx_hal.c **** }
 890:../../Drivers/STM32H7xx_HAL_Driver/Src/stm32h7xx_hal.c **** #endif /*SYSCFG_ADC2ALT_ADC2_ROUT0*/
 891:../../Drivers/STM32H7xx_HAL_Driver/Src/stm32h7xx_hal.c **** 
 892:../../Drivers/STM32H7xx_HAL_Driver/Src/stm32h7xx_hal.c **** #if defined(SYSCFG_ADC2ALT_ADC2_ROUT1)
 893:../../Drivers/STM32H7xx_HAL_Driver/Src/stm32h7xx_hal.c **** /** @brief  SYSCFG ADC2 internal input alternate connection macros
 894:../../Drivers/STM32H7xx_HAL_Driver/Src/stm32h7xx_hal.c ****   * @param Adc2AltRout1  This parameter can be a value of :
 895:../../Drivers/STM32H7xx_HAL_Driver/Src/stm32h7xx_hal.c ****   *     @arg @ref SYSCFG_ADC2_ROUT1_DAC1_2   DAC1_out2 connected to ADC2 VINP[17]
 896:../../Drivers/STM32H7xx_HAL_Driver/Src/stm32h7xx_hal.c ****   *     @arg @ref SYSCFG_ADC2_ROUT1_VREFINT  VREFINT connected to ADC2 VINP[17]
 897:../../Drivers/STM32H7xx_HAL_Driver/Src/stm32h7xx_hal.c ****   */
 898:../../Drivers/STM32H7xx_HAL_Driver/Src/stm32h7xx_hal.c **** void HAL_SYSCFG_ADC2ALT_Rout1Config(uint32_t Adc2AltRout1)
 899:../../Drivers/STM32H7xx_HAL_Driver/Src/stm32h7xx_hal.c **** {
 900:../../Drivers/STM32H7xx_HAL_Driver/Src/stm32h7xx_hal.c ****   /* Check the parameters */
 901:../../Drivers/STM32H7xx_HAL_Driver/Src/stm32h7xx_hal.c ****   assert_param(IS_SYSCFG_ADC2ALT_ROUT1(Adc2AltRout1));
 902:../../Drivers/STM32H7xx_HAL_Driver/Src/stm32h7xx_hal.c **** 
 903:../../Drivers/STM32H7xx_HAL_Driver/Src/stm32h7xx_hal.c ****   MODIFY_REG(SYSCFG->ADC2ALT, SYSCFG_ADC2ALT_ADC2_ROUT1, Adc2AltRout1);
 904:../../Drivers/STM32H7xx_HAL_Driver/Src/stm32h7xx_hal.c **** }
 905:../../Drivers/STM32H7xx_HAL_Driver/Src/stm32h7xx_hal.c **** #endif /*SYSCFG_ADC2ALT_ADC2_ROUT1*/
 906:../../Drivers/STM32H7xx_HAL_Driver/Src/stm32h7xx_hal.c **** 
 907:../../Drivers/STM32H7xx_HAL_Driver/Src/stm32h7xx_hal.c **** /**
 908:../../Drivers/STM32H7xx_HAL_Driver/Src/stm32h7xx_hal.c ****   * @brief  Enable the Debug Module during Domain1/CDomain SLEEP mode
 909:../../Drivers/STM32H7xx_HAL_Driver/Src/stm32h7xx_hal.c ****   * @retval None
 910:../../Drivers/STM32H7xx_HAL_Driver/Src/stm32h7xx_hal.c ****   */
 911:../../Drivers/STM32H7xx_HAL_Driver/Src/stm32h7xx_hal.c **** void HAL_DBGMCU_EnableDBGSleepMode(void)
 912:../../Drivers/STM32H7xx_HAL_Driver/Src/stm32h7xx_hal.c **** {
 1535              		.loc 1 912 1 is_stmt 1 view -0
 1536              		.cfi_startproc
 1537              		@ args = 0, pretend = 0, frame = 0
 1538              		@ frame_needed = 0, uses_anonymous_args = 0
 1539              		@ link register save eliminated.
 913:../../Drivers/STM32H7xx_HAL_Driver/Src/stm32h7xx_hal.c ****   SET_BIT(DBGMCU->CR, DBGMCU_CR_DBG_SLEEPD1);
ARM GAS  /tmp/ccJ8mj6U.s 			page 44


 1540              		.loc 1 913 3 view .LVU263
 1541 0000 024A     		ldr	r2, .L150
 1542 0002 5368     		ldr	r3, [r2, #4]
 1543 0004 43F00103 		orr	r3, r3, #1
 1544 0008 5360     		str	r3, [r2, #4]
 914:../../Drivers/STM32H7xx_HAL_Driver/Src/stm32h7xx_hal.c **** }
 1545              		.loc 1 914 1 is_stmt 0 view .LVU264
 1546 000a 7047     		bx	lr
 1547              	.L151:
 1548              		.align	2
 1549              	.L150:
 1550 000c 0010005C 		.word	1543507968
 1551              		.cfi_endproc
 1552              	.LFE184:
 1554              		.section	.text.HAL_DBGMCU_DisableDBGSleepMode,"ax",%progbits
 1555              		.align	1
 1556              		.global	HAL_DBGMCU_DisableDBGSleepMode
 1557              		.syntax unified
 1558              		.thumb
 1559              		.thumb_func
 1560              		.fpu fpv5-d16
 1562              	HAL_DBGMCU_DisableDBGSleepMode:
 1563              	.LFB185:
 915:../../Drivers/STM32H7xx_HAL_Driver/Src/stm32h7xx_hal.c **** 
 916:../../Drivers/STM32H7xx_HAL_Driver/Src/stm32h7xx_hal.c **** /**
 917:../../Drivers/STM32H7xx_HAL_Driver/Src/stm32h7xx_hal.c ****   * @brief  Disable the Debug Module during Domain1/CDomain SLEEP mode
 918:../../Drivers/STM32H7xx_HAL_Driver/Src/stm32h7xx_hal.c ****   * @retval None
 919:../../Drivers/STM32H7xx_HAL_Driver/Src/stm32h7xx_hal.c ****   */
 920:../../Drivers/STM32H7xx_HAL_Driver/Src/stm32h7xx_hal.c **** void HAL_DBGMCU_DisableDBGSleepMode(void)
 921:../../Drivers/STM32H7xx_HAL_Driver/Src/stm32h7xx_hal.c **** {
 1564              		.loc 1 921 1 is_stmt 1 view -0
 1565              		.cfi_startproc
 1566              		@ args = 0, pretend = 0, frame = 0
 1567              		@ frame_needed = 0, uses_anonymous_args = 0
 1568              		@ link register save eliminated.
 922:../../Drivers/STM32H7xx_HAL_Driver/Src/stm32h7xx_hal.c ****   CLEAR_BIT(DBGMCU->CR, DBGMCU_CR_DBG_SLEEPD1);
 1569              		.loc 1 922 3 view .LVU266
 1570 0000 024A     		ldr	r2, .L153
 1571 0002 5368     		ldr	r3, [r2, #4]
 1572 0004 23F00103 		bic	r3, r3, #1
 1573 0008 5360     		str	r3, [r2, #4]
 923:../../Drivers/STM32H7xx_HAL_Driver/Src/stm32h7xx_hal.c **** }
 1574              		.loc 1 923 1 is_stmt 0 view .LVU267
 1575 000a 7047     		bx	lr
 1576              	.L154:
 1577              		.align	2
 1578              	.L153:
 1579 000c 0010005C 		.word	1543507968
 1580              		.cfi_endproc
 1581              	.LFE185:
 1583              		.section	.text.HAL_DBGMCU_EnableDBGStopMode,"ax",%progbits
 1584              		.align	1
 1585              		.global	HAL_DBGMCU_EnableDBGStopMode
 1586              		.syntax unified
 1587              		.thumb
 1588              		.thumb_func
 1589              		.fpu fpv5-d16
ARM GAS  /tmp/ccJ8mj6U.s 			page 45


 1591              	HAL_DBGMCU_EnableDBGStopMode:
 1592              	.LFB186:
 924:../../Drivers/STM32H7xx_HAL_Driver/Src/stm32h7xx_hal.c **** 
 925:../../Drivers/STM32H7xx_HAL_Driver/Src/stm32h7xx_hal.c **** 
 926:../../Drivers/STM32H7xx_HAL_Driver/Src/stm32h7xx_hal.c **** /**
 927:../../Drivers/STM32H7xx_HAL_Driver/Src/stm32h7xx_hal.c ****   * @brief  Enable the Debug Module during Domain1/CDomain STOP mode
 928:../../Drivers/STM32H7xx_HAL_Driver/Src/stm32h7xx_hal.c ****   * @retval None
 929:../../Drivers/STM32H7xx_HAL_Driver/Src/stm32h7xx_hal.c ****   */
 930:../../Drivers/STM32H7xx_HAL_Driver/Src/stm32h7xx_hal.c **** void HAL_DBGMCU_EnableDBGStopMode(void)
 931:../../Drivers/STM32H7xx_HAL_Driver/Src/stm32h7xx_hal.c **** {
 1593              		.loc 1 931 1 is_stmt 1 view -0
 1594              		.cfi_startproc
 1595              		@ args = 0, pretend = 0, frame = 0
 1596              		@ frame_needed = 0, uses_anonymous_args = 0
 1597              		@ link register save eliminated.
 932:../../Drivers/STM32H7xx_HAL_Driver/Src/stm32h7xx_hal.c ****   SET_BIT(DBGMCU->CR, DBGMCU_CR_DBG_STOPD1);
 1598              		.loc 1 932 3 view .LVU269
 1599 0000 024A     		ldr	r2, .L156
 1600 0002 5368     		ldr	r3, [r2, #4]
 1601 0004 43F00203 		orr	r3, r3, #2
 1602 0008 5360     		str	r3, [r2, #4]
 933:../../Drivers/STM32H7xx_HAL_Driver/Src/stm32h7xx_hal.c **** }
 1603              		.loc 1 933 1 is_stmt 0 view .LVU270
 1604 000a 7047     		bx	lr
 1605              	.L157:
 1606              		.align	2
 1607              	.L156:
 1608 000c 0010005C 		.word	1543507968
 1609              		.cfi_endproc
 1610              	.LFE186:
 1612              		.section	.text.HAL_DBGMCU_DisableDBGStopMode,"ax",%progbits
 1613              		.align	1
 1614              		.global	HAL_DBGMCU_DisableDBGStopMode
 1615              		.syntax unified
 1616              		.thumb
 1617              		.thumb_func
 1618              		.fpu fpv5-d16
 1620              	HAL_DBGMCU_DisableDBGStopMode:
 1621              	.LFB187:
 934:../../Drivers/STM32H7xx_HAL_Driver/Src/stm32h7xx_hal.c **** 
 935:../../Drivers/STM32H7xx_HAL_Driver/Src/stm32h7xx_hal.c **** /**
 936:../../Drivers/STM32H7xx_HAL_Driver/Src/stm32h7xx_hal.c ****   * @brief  Disable the Debug Module during Domain1/CDomain STOP mode
 937:../../Drivers/STM32H7xx_HAL_Driver/Src/stm32h7xx_hal.c ****   * @retval None
 938:../../Drivers/STM32H7xx_HAL_Driver/Src/stm32h7xx_hal.c ****   */
 939:../../Drivers/STM32H7xx_HAL_Driver/Src/stm32h7xx_hal.c **** void HAL_DBGMCU_DisableDBGStopMode(void)
 940:../../Drivers/STM32H7xx_HAL_Driver/Src/stm32h7xx_hal.c **** {
 1622              		.loc 1 940 1 is_stmt 1 view -0
 1623              		.cfi_startproc
 1624              		@ args = 0, pretend = 0, frame = 0
 1625              		@ frame_needed = 0, uses_anonymous_args = 0
 1626              		@ link register save eliminated.
 941:../../Drivers/STM32H7xx_HAL_Driver/Src/stm32h7xx_hal.c ****   CLEAR_BIT(DBGMCU->CR, DBGMCU_CR_DBG_STOPD1);
 1627              		.loc 1 941 3 view .LVU272
 1628 0000 024A     		ldr	r2, .L159
 1629 0002 5368     		ldr	r3, [r2, #4]
 1630 0004 23F00203 		bic	r3, r3, #2
 1631 0008 5360     		str	r3, [r2, #4]
ARM GAS  /tmp/ccJ8mj6U.s 			page 46


 942:../../Drivers/STM32H7xx_HAL_Driver/Src/stm32h7xx_hal.c **** }
 1632              		.loc 1 942 1 is_stmt 0 view .LVU273
 1633 000a 7047     		bx	lr
 1634              	.L160:
 1635              		.align	2
 1636              	.L159:
 1637 000c 0010005C 		.word	1543507968
 1638              		.cfi_endproc
 1639              	.LFE187:
 1641              		.section	.text.HAL_DBGMCU_EnableDBGStandbyMode,"ax",%progbits
 1642              		.align	1
 1643              		.global	HAL_DBGMCU_EnableDBGStandbyMode
 1644              		.syntax unified
 1645              		.thumb
 1646              		.thumb_func
 1647              		.fpu fpv5-d16
 1649              	HAL_DBGMCU_EnableDBGStandbyMode:
 1650              	.LFB188:
 943:../../Drivers/STM32H7xx_HAL_Driver/Src/stm32h7xx_hal.c **** 
 944:../../Drivers/STM32H7xx_HAL_Driver/Src/stm32h7xx_hal.c **** /**
 945:../../Drivers/STM32H7xx_HAL_Driver/Src/stm32h7xx_hal.c ****   * @brief  Enable the Debug Module during Domain1/CDomain STANDBY mode
 946:../../Drivers/STM32H7xx_HAL_Driver/Src/stm32h7xx_hal.c ****   * @retval None
 947:../../Drivers/STM32H7xx_HAL_Driver/Src/stm32h7xx_hal.c ****   */
 948:../../Drivers/STM32H7xx_HAL_Driver/Src/stm32h7xx_hal.c **** void HAL_DBGMCU_EnableDBGStandbyMode(void)
 949:../../Drivers/STM32H7xx_HAL_Driver/Src/stm32h7xx_hal.c **** {
 1651              		.loc 1 949 1 is_stmt 1 view -0
 1652              		.cfi_startproc
 1653              		@ args = 0, pretend = 0, frame = 0
 1654              		@ frame_needed = 0, uses_anonymous_args = 0
 1655              		@ link register save eliminated.
 950:../../Drivers/STM32H7xx_HAL_Driver/Src/stm32h7xx_hal.c ****   SET_BIT(DBGMCU->CR, DBGMCU_CR_DBG_STANDBYD1);
 1656              		.loc 1 950 3 view .LVU275
 1657 0000 024A     		ldr	r2, .L162
 1658 0002 5368     		ldr	r3, [r2, #4]
 1659 0004 43F00403 		orr	r3, r3, #4
 1660 0008 5360     		str	r3, [r2, #4]
 951:../../Drivers/STM32H7xx_HAL_Driver/Src/stm32h7xx_hal.c **** }
 1661              		.loc 1 951 1 is_stmt 0 view .LVU276
 1662 000a 7047     		bx	lr
 1663              	.L163:
 1664              		.align	2
 1665              	.L162:
 1666 000c 0010005C 		.word	1543507968
 1667              		.cfi_endproc
 1668              	.LFE188:
 1670              		.section	.text.HAL_DBGMCU_DisableDBGStandbyMode,"ax",%progbits
 1671              		.align	1
 1672              		.global	HAL_DBGMCU_DisableDBGStandbyMode
 1673              		.syntax unified
 1674              		.thumb
 1675              		.thumb_func
 1676              		.fpu fpv5-d16
 1678              	HAL_DBGMCU_DisableDBGStandbyMode:
 1679              	.LFB189:
 952:../../Drivers/STM32H7xx_HAL_Driver/Src/stm32h7xx_hal.c **** 
 953:../../Drivers/STM32H7xx_HAL_Driver/Src/stm32h7xx_hal.c **** /**
 954:../../Drivers/STM32H7xx_HAL_Driver/Src/stm32h7xx_hal.c ****   * @brief  Disable the Debug Module during Domain1/CDomain STANDBY mode
ARM GAS  /tmp/ccJ8mj6U.s 			page 47


 955:../../Drivers/STM32H7xx_HAL_Driver/Src/stm32h7xx_hal.c ****   * @retval None
 956:../../Drivers/STM32H7xx_HAL_Driver/Src/stm32h7xx_hal.c ****   */
 957:../../Drivers/STM32H7xx_HAL_Driver/Src/stm32h7xx_hal.c **** void HAL_DBGMCU_DisableDBGStandbyMode(void)
 958:../../Drivers/STM32H7xx_HAL_Driver/Src/stm32h7xx_hal.c **** {
 1680              		.loc 1 958 1 is_stmt 1 view -0
 1681              		.cfi_startproc
 1682              		@ args = 0, pretend = 0, frame = 0
 1683              		@ frame_needed = 0, uses_anonymous_args = 0
 1684              		@ link register save eliminated.
 959:../../Drivers/STM32H7xx_HAL_Driver/Src/stm32h7xx_hal.c ****   CLEAR_BIT(DBGMCU->CR, DBGMCU_CR_DBG_STANDBYD1);
 1685              		.loc 1 959 3 view .LVU278
 1686 0000 024A     		ldr	r2, .L165
 1687 0002 5368     		ldr	r3, [r2, #4]
 1688 0004 23F00403 		bic	r3, r3, #4
 1689 0008 5360     		str	r3, [r2, #4]
 960:../../Drivers/STM32H7xx_HAL_Driver/Src/stm32h7xx_hal.c **** }
 1690              		.loc 1 960 1 is_stmt 0 view .LVU279
 1691 000a 7047     		bx	lr
 1692              	.L166:
 1693              		.align	2
 1694              	.L165:
 1695 000c 0010005C 		.word	1543507968
 1696              		.cfi_endproc
 1697              	.LFE189:
 1699              		.section	.text.HAL_EnableDomain2DBGSleepMode,"ax",%progbits
 1700              		.align	1
 1701              		.global	HAL_EnableDomain2DBGSleepMode
 1702              		.syntax unified
 1703              		.thumb
 1704              		.thumb_func
 1705              		.fpu fpv5-d16
 1707              	HAL_EnableDomain2DBGSleepMode:
 1708              	.LFB190:
 961:../../Drivers/STM32H7xx_HAL_Driver/Src/stm32h7xx_hal.c **** 
 962:../../Drivers/STM32H7xx_HAL_Driver/Src/stm32h7xx_hal.c **** #if defined(DUAL_CORE)
 963:../../Drivers/STM32H7xx_HAL_Driver/Src/stm32h7xx_hal.c **** /**
 964:../../Drivers/STM32H7xx_HAL_Driver/Src/stm32h7xx_hal.c ****   * @brief  Enable the Debug Module during Domain1 SLEEP mode
 965:../../Drivers/STM32H7xx_HAL_Driver/Src/stm32h7xx_hal.c ****   * @retval None
 966:../../Drivers/STM32H7xx_HAL_Driver/Src/stm32h7xx_hal.c ****   */
 967:../../Drivers/STM32H7xx_HAL_Driver/Src/stm32h7xx_hal.c **** void HAL_EnableDomain2DBGSleepMode(void)
 968:../../Drivers/STM32H7xx_HAL_Driver/Src/stm32h7xx_hal.c **** {
 1709              		.loc 1 968 1 is_stmt 1 view -0
 1710              		.cfi_startproc
 1711              		@ args = 0, pretend = 0, frame = 0
 1712              		@ frame_needed = 0, uses_anonymous_args = 0
 1713              		@ link register save eliminated.
 969:../../Drivers/STM32H7xx_HAL_Driver/Src/stm32h7xx_hal.c ****   SET_BIT(DBGMCU->CR, DBGMCU_CR_DBG_SLEEPD2);
 1714              		.loc 1 969 3 view .LVU281
 1715 0000 024A     		ldr	r2, .L168
 1716 0002 5368     		ldr	r3, [r2, #4]
 1717 0004 43F00803 		orr	r3, r3, #8
 1718 0008 5360     		str	r3, [r2, #4]
 970:../../Drivers/STM32H7xx_HAL_Driver/Src/stm32h7xx_hal.c **** }
 1719              		.loc 1 970 1 is_stmt 0 view .LVU282
 1720 000a 7047     		bx	lr
 1721              	.L169:
 1722              		.align	2
ARM GAS  /tmp/ccJ8mj6U.s 			page 48


 1723              	.L168:
 1724 000c 0010005C 		.word	1543507968
 1725              		.cfi_endproc
 1726              	.LFE190:
 1728              		.section	.text.HAL_DisableDomain2DBGSleepMode,"ax",%progbits
 1729              		.align	1
 1730              		.global	HAL_DisableDomain2DBGSleepMode
 1731              		.syntax unified
 1732              		.thumb
 1733              		.thumb_func
 1734              		.fpu fpv5-d16
 1736              	HAL_DisableDomain2DBGSleepMode:
 1737              	.LFB191:
 971:../../Drivers/STM32H7xx_HAL_Driver/Src/stm32h7xx_hal.c **** 
 972:../../Drivers/STM32H7xx_HAL_Driver/Src/stm32h7xx_hal.c **** /**
 973:../../Drivers/STM32H7xx_HAL_Driver/Src/stm32h7xx_hal.c ****   * @brief  Disable the Debug Module during Domain2 SLEEP mode
 974:../../Drivers/STM32H7xx_HAL_Driver/Src/stm32h7xx_hal.c ****   * @retval None
 975:../../Drivers/STM32H7xx_HAL_Driver/Src/stm32h7xx_hal.c ****   */
 976:../../Drivers/STM32H7xx_HAL_Driver/Src/stm32h7xx_hal.c **** void HAL_DisableDomain2DBGSleepMode(void)
 977:../../Drivers/STM32H7xx_HAL_Driver/Src/stm32h7xx_hal.c **** {
 1738              		.loc 1 977 1 is_stmt 1 view -0
 1739              		.cfi_startproc
 1740              		@ args = 0, pretend = 0, frame = 0
 1741              		@ frame_needed = 0, uses_anonymous_args = 0
 1742              		@ link register save eliminated.
 978:../../Drivers/STM32H7xx_HAL_Driver/Src/stm32h7xx_hal.c ****   CLEAR_BIT(DBGMCU->CR, DBGMCU_CR_DBG_SLEEPD2);
 1743              		.loc 1 978 3 view .LVU284
 1744 0000 024A     		ldr	r2, .L171
 1745 0002 5368     		ldr	r3, [r2, #4]
 1746 0004 23F00803 		bic	r3, r3, #8
 1747 0008 5360     		str	r3, [r2, #4]
 979:../../Drivers/STM32H7xx_HAL_Driver/Src/stm32h7xx_hal.c **** }
 1748              		.loc 1 979 1 is_stmt 0 view .LVU285
 1749 000a 7047     		bx	lr
 1750              	.L172:
 1751              		.align	2
 1752              	.L171:
 1753 000c 0010005C 		.word	1543507968
 1754              		.cfi_endproc
 1755              	.LFE191:
 1757              		.section	.text.HAL_EnableDomain2DBGStopMode,"ax",%progbits
 1758              		.align	1
 1759              		.global	HAL_EnableDomain2DBGStopMode
 1760              		.syntax unified
 1761              		.thumb
 1762              		.thumb_func
 1763              		.fpu fpv5-d16
 1765              	HAL_EnableDomain2DBGStopMode:
 1766              	.LFB192:
 980:../../Drivers/STM32H7xx_HAL_Driver/Src/stm32h7xx_hal.c **** 
 981:../../Drivers/STM32H7xx_HAL_Driver/Src/stm32h7xx_hal.c **** /**
 982:../../Drivers/STM32H7xx_HAL_Driver/Src/stm32h7xx_hal.c ****   * @brief  Enable the Debug Module during Domain2 STOP mode
 983:../../Drivers/STM32H7xx_HAL_Driver/Src/stm32h7xx_hal.c ****   * @retval None
 984:../../Drivers/STM32H7xx_HAL_Driver/Src/stm32h7xx_hal.c ****   */
 985:../../Drivers/STM32H7xx_HAL_Driver/Src/stm32h7xx_hal.c **** void HAL_EnableDomain2DBGStopMode(void)
 986:../../Drivers/STM32H7xx_HAL_Driver/Src/stm32h7xx_hal.c **** {
 1767              		.loc 1 986 1 is_stmt 1 view -0
ARM GAS  /tmp/ccJ8mj6U.s 			page 49


 1768              		.cfi_startproc
 1769              		@ args = 0, pretend = 0, frame = 0
 1770              		@ frame_needed = 0, uses_anonymous_args = 0
 1771              		@ link register save eliminated.
 987:../../Drivers/STM32H7xx_HAL_Driver/Src/stm32h7xx_hal.c ****   SET_BIT(DBGMCU->CR, DBGMCU_CR_DBG_STOPD2);
 1772              		.loc 1 987 3 view .LVU287
 1773 0000 024A     		ldr	r2, .L174
 1774 0002 5368     		ldr	r3, [r2, #4]
 1775 0004 43F01003 		orr	r3, r3, #16
 1776 0008 5360     		str	r3, [r2, #4]
 988:../../Drivers/STM32H7xx_HAL_Driver/Src/stm32h7xx_hal.c **** }
 1777              		.loc 1 988 1 is_stmt 0 view .LVU288
 1778 000a 7047     		bx	lr
 1779              	.L175:
 1780              		.align	2
 1781              	.L174:
 1782 000c 0010005C 		.word	1543507968
 1783              		.cfi_endproc
 1784              	.LFE192:
 1786              		.section	.text.HAL_DisableDomain2DBGStopMode,"ax",%progbits
 1787              		.align	1
 1788              		.global	HAL_DisableDomain2DBGStopMode
 1789              		.syntax unified
 1790              		.thumb
 1791              		.thumb_func
 1792              		.fpu fpv5-d16
 1794              	HAL_DisableDomain2DBGStopMode:
 1795              	.LFB193:
 989:../../Drivers/STM32H7xx_HAL_Driver/Src/stm32h7xx_hal.c **** 
 990:../../Drivers/STM32H7xx_HAL_Driver/Src/stm32h7xx_hal.c **** /**
 991:../../Drivers/STM32H7xx_HAL_Driver/Src/stm32h7xx_hal.c ****   * @brief  Disable the Debug Module during Domain2 STOP mode
 992:../../Drivers/STM32H7xx_HAL_Driver/Src/stm32h7xx_hal.c ****   * @retval None
 993:../../Drivers/STM32H7xx_HAL_Driver/Src/stm32h7xx_hal.c ****   */
 994:../../Drivers/STM32H7xx_HAL_Driver/Src/stm32h7xx_hal.c **** void HAL_DisableDomain2DBGStopMode(void)
 995:../../Drivers/STM32H7xx_HAL_Driver/Src/stm32h7xx_hal.c **** {
 1796              		.loc 1 995 1 is_stmt 1 view -0
 1797              		.cfi_startproc
 1798              		@ args = 0, pretend = 0, frame = 0
 1799              		@ frame_needed = 0, uses_anonymous_args = 0
 1800              		@ link register save eliminated.
 996:../../Drivers/STM32H7xx_HAL_Driver/Src/stm32h7xx_hal.c ****   CLEAR_BIT(DBGMCU->CR, DBGMCU_CR_DBG_STOPD2);
 1801              		.loc 1 996 3 view .LVU290
 1802 0000 024A     		ldr	r2, .L177
 1803 0002 5368     		ldr	r3, [r2, #4]
 1804 0004 23F01003 		bic	r3, r3, #16
 1805 0008 5360     		str	r3, [r2, #4]
 997:../../Drivers/STM32H7xx_HAL_Driver/Src/stm32h7xx_hal.c **** }
 1806              		.loc 1 997 1 is_stmt 0 view .LVU291
 1807 000a 7047     		bx	lr
 1808              	.L178:
 1809              		.align	2
 1810              	.L177:
 1811 000c 0010005C 		.word	1543507968
 1812              		.cfi_endproc
 1813              	.LFE193:
 1815              		.section	.text.HAL_EnableDomain2DBGStandbyMode,"ax",%progbits
 1816              		.align	1
ARM GAS  /tmp/ccJ8mj6U.s 			page 50


 1817              		.global	HAL_EnableDomain2DBGStandbyMode
 1818              		.syntax unified
 1819              		.thumb
 1820              		.thumb_func
 1821              		.fpu fpv5-d16
 1823              	HAL_EnableDomain2DBGStandbyMode:
 1824              	.LFB194:
 998:../../Drivers/STM32H7xx_HAL_Driver/Src/stm32h7xx_hal.c **** 
 999:../../Drivers/STM32H7xx_HAL_Driver/Src/stm32h7xx_hal.c **** /**
1000:../../Drivers/STM32H7xx_HAL_Driver/Src/stm32h7xx_hal.c ****   * @brief  Enable the Debug Module during Domain2 STANDBY mode
1001:../../Drivers/STM32H7xx_HAL_Driver/Src/stm32h7xx_hal.c ****   * @retval None
1002:../../Drivers/STM32H7xx_HAL_Driver/Src/stm32h7xx_hal.c ****   */
1003:../../Drivers/STM32H7xx_HAL_Driver/Src/stm32h7xx_hal.c **** void HAL_EnableDomain2DBGStandbyMode(void)
1004:../../Drivers/STM32H7xx_HAL_Driver/Src/stm32h7xx_hal.c **** {
 1825              		.loc 1 1004 1 is_stmt 1 view -0
 1826              		.cfi_startproc
 1827              		@ args = 0, pretend = 0, frame = 0
 1828              		@ frame_needed = 0, uses_anonymous_args = 0
 1829              		@ link register save eliminated.
1005:../../Drivers/STM32H7xx_HAL_Driver/Src/stm32h7xx_hal.c ****   SET_BIT(DBGMCU->CR, DBGMCU_CR_DBG_STANDBYD2);
 1830              		.loc 1 1005 3 view .LVU293
 1831 0000 024A     		ldr	r2, .L180
 1832 0002 5368     		ldr	r3, [r2, #4]
 1833 0004 43F02003 		orr	r3, r3, #32
 1834 0008 5360     		str	r3, [r2, #4]
1006:../../Drivers/STM32H7xx_HAL_Driver/Src/stm32h7xx_hal.c **** }
 1835              		.loc 1 1006 1 is_stmt 0 view .LVU294
 1836 000a 7047     		bx	lr
 1837              	.L181:
 1838              		.align	2
 1839              	.L180:
 1840 000c 0010005C 		.word	1543507968
 1841              		.cfi_endproc
 1842              	.LFE194:
 1844              		.section	.text.HAL_DisableDomain2DBGStandbyMode,"ax",%progbits
 1845              		.align	1
 1846              		.global	HAL_DisableDomain2DBGStandbyMode
 1847              		.syntax unified
 1848              		.thumb
 1849              		.thumb_func
 1850              		.fpu fpv5-d16
 1852              	HAL_DisableDomain2DBGStandbyMode:
 1853              	.LFB195:
1007:../../Drivers/STM32H7xx_HAL_Driver/Src/stm32h7xx_hal.c **** 
1008:../../Drivers/STM32H7xx_HAL_Driver/Src/stm32h7xx_hal.c **** /**
1009:../../Drivers/STM32H7xx_HAL_Driver/Src/stm32h7xx_hal.c ****   * @brief  Disable the Debug Module during Domain2 STANDBY mode
1010:../../Drivers/STM32H7xx_HAL_Driver/Src/stm32h7xx_hal.c ****   * @retval None
1011:../../Drivers/STM32H7xx_HAL_Driver/Src/stm32h7xx_hal.c ****   */
1012:../../Drivers/STM32H7xx_HAL_Driver/Src/stm32h7xx_hal.c **** void HAL_DisableDomain2DBGStandbyMode(void)
1013:../../Drivers/STM32H7xx_HAL_Driver/Src/stm32h7xx_hal.c **** {
 1854              		.loc 1 1013 1 is_stmt 1 view -0
 1855              		.cfi_startproc
 1856              		@ args = 0, pretend = 0, frame = 0
 1857              		@ frame_needed = 0, uses_anonymous_args = 0
 1858              		@ link register save eliminated.
1014:../../Drivers/STM32H7xx_HAL_Driver/Src/stm32h7xx_hal.c ****   CLEAR_BIT(DBGMCU->CR, DBGMCU_CR_DBG_STANDBYD2);
 1859              		.loc 1 1014 3 view .LVU296
ARM GAS  /tmp/ccJ8mj6U.s 			page 51


 1860 0000 024A     		ldr	r2, .L183
 1861 0002 5368     		ldr	r3, [r2, #4]
 1862 0004 23F02003 		bic	r3, r3, #32
 1863 0008 5360     		str	r3, [r2, #4]
1015:../../Drivers/STM32H7xx_HAL_Driver/Src/stm32h7xx_hal.c **** }
 1864              		.loc 1 1015 1 is_stmt 0 view .LVU297
 1865 000a 7047     		bx	lr
 1866              	.L184:
 1867              		.align	2
 1868              	.L183:
 1869 000c 0010005C 		.word	1543507968
 1870              		.cfi_endproc
 1871              	.LFE195:
 1873              		.section	.text.HAL_SetFMCMemorySwappingConfig,"ax",%progbits
 1874              		.align	1
 1875              		.global	HAL_SetFMCMemorySwappingConfig
 1876              		.syntax unified
 1877              		.thumb
 1878              		.thumb_func
 1879              		.fpu fpv5-d16
 1881              	HAL_SetFMCMemorySwappingConfig:
 1882              	.LVL48:
 1883              	.LFB196:
1016:../../Drivers/STM32H7xx_HAL_Driver/Src/stm32h7xx_hal.c **** #endif /*DUAL_CORE*/
1017:../../Drivers/STM32H7xx_HAL_Driver/Src/stm32h7xx_hal.c **** 
1018:../../Drivers/STM32H7xx_HAL_Driver/Src/stm32h7xx_hal.c **** #if defined(DBGMCU_CR_DBG_STOPD3)
1019:../../Drivers/STM32H7xx_HAL_Driver/Src/stm32h7xx_hal.c **** /**
1020:../../Drivers/STM32H7xx_HAL_Driver/Src/stm32h7xx_hal.c ****   * @brief  Enable the Debug Module during Domain3/SRDomain STOP mode
1021:../../Drivers/STM32H7xx_HAL_Driver/Src/stm32h7xx_hal.c ****   * @retval None
1022:../../Drivers/STM32H7xx_HAL_Driver/Src/stm32h7xx_hal.c ****   */
1023:../../Drivers/STM32H7xx_HAL_Driver/Src/stm32h7xx_hal.c **** void HAL_EnableDomain3DBGStopMode(void)
1024:../../Drivers/STM32H7xx_HAL_Driver/Src/stm32h7xx_hal.c **** {
1025:../../Drivers/STM32H7xx_HAL_Driver/Src/stm32h7xx_hal.c ****   SET_BIT(DBGMCU->CR, DBGMCU_CR_DBG_STOPD3);
1026:../../Drivers/STM32H7xx_HAL_Driver/Src/stm32h7xx_hal.c **** }
1027:../../Drivers/STM32H7xx_HAL_Driver/Src/stm32h7xx_hal.c **** 
1028:../../Drivers/STM32H7xx_HAL_Driver/Src/stm32h7xx_hal.c **** /**
1029:../../Drivers/STM32H7xx_HAL_Driver/Src/stm32h7xx_hal.c ****   * @brief  Disable the Debug Module during Domain3/SRDomain STOP mode
1030:../../Drivers/STM32H7xx_HAL_Driver/Src/stm32h7xx_hal.c ****   * @retval None
1031:../../Drivers/STM32H7xx_HAL_Driver/Src/stm32h7xx_hal.c ****   */
1032:../../Drivers/STM32H7xx_HAL_Driver/Src/stm32h7xx_hal.c **** void HAL_DisableDomain3DBGStopMode(void)
1033:../../Drivers/STM32H7xx_HAL_Driver/Src/stm32h7xx_hal.c **** {
1034:../../Drivers/STM32H7xx_HAL_Driver/Src/stm32h7xx_hal.c ****   CLEAR_BIT(DBGMCU->CR, DBGMCU_CR_DBG_STOPD3);
1035:../../Drivers/STM32H7xx_HAL_Driver/Src/stm32h7xx_hal.c **** }
1036:../../Drivers/STM32H7xx_HAL_Driver/Src/stm32h7xx_hal.c **** #endif /*DBGMCU_CR_DBG_STOPD3*/
1037:../../Drivers/STM32H7xx_HAL_Driver/Src/stm32h7xx_hal.c **** 
1038:../../Drivers/STM32H7xx_HAL_Driver/Src/stm32h7xx_hal.c **** #if defined(DBGMCU_CR_DBG_STANDBYD3)
1039:../../Drivers/STM32H7xx_HAL_Driver/Src/stm32h7xx_hal.c **** /**
1040:../../Drivers/STM32H7xx_HAL_Driver/Src/stm32h7xx_hal.c ****   * @brief  Enable the Debug Module during Domain3/SRDomain STANDBY mode
1041:../../Drivers/STM32H7xx_HAL_Driver/Src/stm32h7xx_hal.c ****   * @retval None
1042:../../Drivers/STM32H7xx_HAL_Driver/Src/stm32h7xx_hal.c ****   */
1043:../../Drivers/STM32H7xx_HAL_Driver/Src/stm32h7xx_hal.c **** void HAL_EnableDomain3DBGStandbyMode(void)
1044:../../Drivers/STM32H7xx_HAL_Driver/Src/stm32h7xx_hal.c **** {
1045:../../Drivers/STM32H7xx_HAL_Driver/Src/stm32h7xx_hal.c ****   SET_BIT(DBGMCU->CR, DBGMCU_CR_DBG_STANDBYD3);
1046:../../Drivers/STM32H7xx_HAL_Driver/Src/stm32h7xx_hal.c **** }
1047:../../Drivers/STM32H7xx_HAL_Driver/Src/stm32h7xx_hal.c **** 
1048:../../Drivers/STM32H7xx_HAL_Driver/Src/stm32h7xx_hal.c **** /**
1049:../../Drivers/STM32H7xx_HAL_Driver/Src/stm32h7xx_hal.c ****   * @brief  Disable the Debug Module during Domain3/SRDomain STANDBY mode
ARM GAS  /tmp/ccJ8mj6U.s 			page 52


1050:../../Drivers/STM32H7xx_HAL_Driver/Src/stm32h7xx_hal.c ****   * @retval None
1051:../../Drivers/STM32H7xx_HAL_Driver/Src/stm32h7xx_hal.c ****   */
1052:../../Drivers/STM32H7xx_HAL_Driver/Src/stm32h7xx_hal.c **** void HAL_DisableDomain3DBGStandbyMode(void)
1053:../../Drivers/STM32H7xx_HAL_Driver/Src/stm32h7xx_hal.c **** {
1054:../../Drivers/STM32H7xx_HAL_Driver/Src/stm32h7xx_hal.c ****   CLEAR_BIT(DBGMCU->CR, DBGMCU_CR_DBG_STANDBYD3);
1055:../../Drivers/STM32H7xx_HAL_Driver/Src/stm32h7xx_hal.c **** }
1056:../../Drivers/STM32H7xx_HAL_Driver/Src/stm32h7xx_hal.c **** #endif /*DBGMCU_CR_DBG_STANDBYD3*/
1057:../../Drivers/STM32H7xx_HAL_Driver/Src/stm32h7xx_hal.c **** 
1058:../../Drivers/STM32H7xx_HAL_Driver/Src/stm32h7xx_hal.c **** /**
1059:../../Drivers/STM32H7xx_HAL_Driver/Src/stm32h7xx_hal.c ****   * @brief  Set the FMC Memory Mapping Swapping config.
1060:../../Drivers/STM32H7xx_HAL_Driver/Src/stm32h7xx_hal.c ****   * @param  BankMapConfig: Defines the FMC Bank mapping configuration. This parameter can be
1061:../../Drivers/STM32H7xx_HAL_Driver/Src/stm32h7xx_hal.c ****             FMC_SWAPBMAP_DISABLE, FMC_SWAPBMAP_SDRAM_SRAM, FMC_SWAPBMAP_SDRAMB2
1062:../../Drivers/STM32H7xx_HAL_Driver/Src/stm32h7xx_hal.c ****   * @retval HAL state
1063:../../Drivers/STM32H7xx_HAL_Driver/Src/stm32h7xx_hal.c ****   */
1064:../../Drivers/STM32H7xx_HAL_Driver/Src/stm32h7xx_hal.c **** void HAL_SetFMCMemorySwappingConfig(uint32_t BankMapConfig)
1065:../../Drivers/STM32H7xx_HAL_Driver/Src/stm32h7xx_hal.c **** {
 1884              		.loc 1 1065 1 is_stmt 1 view -0
 1885              		.cfi_startproc
 1886              		@ args = 0, pretend = 0, frame = 0
 1887              		@ frame_needed = 0, uses_anonymous_args = 0
 1888              		@ link register save eliminated.
1066:../../Drivers/STM32H7xx_HAL_Driver/Src/stm32h7xx_hal.c ****   /* Check the parameter */
1067:../../Drivers/STM32H7xx_HAL_Driver/Src/stm32h7xx_hal.c ****   assert_param(IS_FMC_SWAPBMAP_MODE(BankMapConfig));
 1889              		.loc 1 1067 3 view .LVU299
1068:../../Drivers/STM32H7xx_HAL_Driver/Src/stm32h7xx_hal.c ****   MODIFY_REG(FMC_Bank1_R->BTCR[0], FMC_BCR1_BMAP, BankMapConfig);
 1890              		.loc 1 1068 3 view .LVU300
 1891 0000 034A     		ldr	r2, .L186
 1892 0002 1368     		ldr	r3, [r2]
 1893 0004 23F04073 		bic	r3, r3, #50331648
 1894 0008 0343     		orrs	r3, r3, r0
 1895 000a 1360     		str	r3, [r2]
1069:../../Drivers/STM32H7xx_HAL_Driver/Src/stm32h7xx_hal.c **** }
 1896              		.loc 1 1069 1 is_stmt 0 view .LVU301
 1897 000c 7047     		bx	lr
 1898              	.L187:
 1899 000e 00BF     		.align	2
 1900              	.L186:
 1901 0010 00400052 		.word	1375748096
 1902              		.cfi_endproc
 1903              	.LFE196:
 1905              		.section	.text.HAL_GetFMCMemorySwappingConfig,"ax",%progbits
 1906              		.align	1
 1907              		.global	HAL_GetFMCMemorySwappingConfig
 1908              		.syntax unified
 1909              		.thumb
 1910              		.thumb_func
 1911              		.fpu fpv5-d16
 1913              	HAL_GetFMCMemorySwappingConfig:
 1914              	.LFB197:
1070:../../Drivers/STM32H7xx_HAL_Driver/Src/stm32h7xx_hal.c **** 
1071:../../Drivers/STM32H7xx_HAL_Driver/Src/stm32h7xx_hal.c **** /**
1072:../../Drivers/STM32H7xx_HAL_Driver/Src/stm32h7xx_hal.c ****   * @brief  Get FMC Bank mapping mode.
1073:../../Drivers/STM32H7xx_HAL_Driver/Src/stm32h7xx_hal.c ****   * @retval The FMC Bank mapping mode. This parameter can be
1074:../../Drivers/STM32H7xx_HAL_Driver/Src/stm32h7xx_hal.c ****             FMC_SWAPBMAP_DISABLE, FMC_SWAPBMAP_SDRAM_SRAM, FMC_SWAPBMAP_SDRAMB2
1075:../../Drivers/STM32H7xx_HAL_Driver/Src/stm32h7xx_hal.c **** */
1076:../../Drivers/STM32H7xx_HAL_Driver/Src/stm32h7xx_hal.c **** uint32_t HAL_GetFMCMemorySwappingConfig(void)
1077:../../Drivers/STM32H7xx_HAL_Driver/Src/stm32h7xx_hal.c **** {
ARM GAS  /tmp/ccJ8mj6U.s 			page 53


 1915              		.loc 1 1077 1 is_stmt 1 view -0
 1916              		.cfi_startproc
 1917              		@ args = 0, pretend = 0, frame = 0
 1918              		@ frame_needed = 0, uses_anonymous_args = 0
 1919              		@ link register save eliminated.
1078:../../Drivers/STM32H7xx_HAL_Driver/Src/stm32h7xx_hal.c ****   return READ_BIT(FMC_Bank1_R->BTCR[0], FMC_BCR1_BMAP);
 1920              		.loc 1 1078 3 view .LVU303
 1921              		.loc 1 1078 10 is_stmt 0 view .LVU304
 1922 0000 024B     		ldr	r3, .L189
 1923 0002 1868     		ldr	r0, [r3]
1079:../../Drivers/STM32H7xx_HAL_Driver/Src/stm32h7xx_hal.c **** }
 1924              		.loc 1 1079 1 view .LVU305
 1925 0004 00F04070 		and	r0, r0, #50331648
 1926 0008 7047     		bx	lr
 1927              	.L190:
 1928 000a 00BF     		.align	2
 1929              	.L189:
 1930 000c 00400052 		.word	1375748096
 1931              		.cfi_endproc
 1932              	.LFE197:
 1934              		.section	.text.HAL_EXTI_EdgeConfig,"ax",%progbits
 1935              		.align	1
 1936              		.global	HAL_EXTI_EdgeConfig
 1937              		.syntax unified
 1938              		.thumb
 1939              		.thumb_func
 1940              		.fpu fpv5-d16
 1942              	HAL_EXTI_EdgeConfig:
 1943              	.LVL49:
 1944              	.LFB198:
1080:../../Drivers/STM32H7xx_HAL_Driver/Src/stm32h7xx_hal.c **** 
1081:../../Drivers/STM32H7xx_HAL_Driver/Src/stm32h7xx_hal.c **** /**
1082:../../Drivers/STM32H7xx_HAL_Driver/Src/stm32h7xx_hal.c ****   * @brief  Configure the EXTI input event line edge
1083:../../Drivers/STM32H7xx_HAL_Driver/Src/stm32h7xx_hal.c ****   * @note    No edge configuration for direct lines but for configurable lines:(EXTI_LINE0..EXTI_LI
1084:../../Drivers/STM32H7xx_HAL_Driver/Src/stm32h7xx_hal.c ****   *          EXTI_LINE49,EXTI_LINE51,EXTI_LINE82,EXTI_LINE84,EXTI_LINE85 and EXTI_LINE86.
1085:../../Drivers/STM32H7xx_HAL_Driver/Src/stm32h7xx_hal.c ****   * @param   EXTI_Line: Specifies the EXTI LINE, it can be one of the following values,
1086:../../Drivers/STM32H7xx_HAL_Driver/Src/stm32h7xx_hal.c ****   *         (EXTI_LINE0....EXTI_LINE87)excluding :line45, line81,line83 which are reserved
1087:../../Drivers/STM32H7xx_HAL_Driver/Src/stm32h7xx_hal.c ****   * @param   EXTI_Edge: Specifies  EXTI line Edge used.
1088:../../Drivers/STM32H7xx_HAL_Driver/Src/stm32h7xx_hal.c ****   *          This parameter can be one of the following values :
1089:../../Drivers/STM32H7xx_HAL_Driver/Src/stm32h7xx_hal.c ****   *   @arg EXTI_RISING_EDGE : Configurable line, with Rising edge trigger detection
1090:../../Drivers/STM32H7xx_HAL_Driver/Src/stm32h7xx_hal.c ****   *   @arg EXTI_FALLING_EDGE: Configurable line, with Falling edge trigger detection
1091:../../Drivers/STM32H7xx_HAL_Driver/Src/stm32h7xx_hal.c ****   * @retval None
1092:../../Drivers/STM32H7xx_HAL_Driver/Src/stm32h7xx_hal.c ****   */
1093:../../Drivers/STM32H7xx_HAL_Driver/Src/stm32h7xx_hal.c **** void HAL_EXTI_EdgeConfig(uint32_t EXTI_Line , uint32_t EXTI_Edge )
1094:../../Drivers/STM32H7xx_HAL_Driver/Src/stm32h7xx_hal.c **** {
 1945              		.loc 1 1094 1 is_stmt 1 view -0
 1946              		.cfi_startproc
 1947              		@ args = 0, pretend = 0, frame = 0
 1948              		@ frame_needed = 0, uses_anonymous_args = 0
 1949              		@ link register save eliminated.
 1950              		.loc 1 1094 1 is_stmt 0 view .LVU307
 1951 0000 70B4     		push	{r4, r5, r6}
 1952              	.LCFI6:
 1953              		.cfi_def_cfa_offset 12
 1954              		.cfi_offset 4, -12
 1955              		.cfi_offset 5, -8
 1956              		.cfi_offset 6, -4
ARM GAS  /tmp/ccJ8mj6U.s 			page 54


1095:../../Drivers/STM32H7xx_HAL_Driver/Src/stm32h7xx_hal.c ****   /* Check the parameter */
1096:../../Drivers/STM32H7xx_HAL_Driver/Src/stm32h7xx_hal.c ****   assert_param(IS_HAL_EXTI_CONFIG_LINE(EXTI_Line));
 1957              		.loc 1 1096 3 is_stmt 1 view .LVU308
1097:../../Drivers/STM32H7xx_HAL_Driver/Src/stm32h7xx_hal.c ****   assert_param(IS_EXTI_EDGE_LINE(EXTI_Edge));
 1958              		.loc 1 1097 3 view .LVU309
1098:../../Drivers/STM32H7xx_HAL_Driver/Src/stm32h7xx_hal.c **** 
1099:../../Drivers/STM32H7xx_HAL_Driver/Src/stm32h7xx_hal.c ****   /* Clear Rising Falling edge configuration */
1100:../../Drivers/STM32H7xx_HAL_Driver/Src/stm32h7xx_hal.c ****   CLEAR_BIT(*(__IO uint32_t *) (((uint32_t) &(EXTI->FTSR1)) + ((EXTI_Line >> 5 ) * 0x20UL)), (uint3
 1959              		.loc 1 1100 3 view .LVU310
 1960 0002 4309     		lsrs	r3, r0, #5
 1961 0004 20F01F05 		bic	r5, r0, #31
 1962 0008 0F4C     		ldr	r4, .L195
 1963 000a 2E59     		ldr	r6, [r5, r4]
 1964 000c 00F01F00 		and	r0, r0, #31
 1965              	.LVL50:
 1966              		.loc 1 1100 3 is_stmt 0 view .LVU311
 1967 0010 0122     		movs	r2, #1
 1968 0012 02FA00F0 		lsl	r0, r2, r0
 1969 0016 26EA0006 		bic	r6, r6, r0
 1970 001a 2E51     		str	r6, [r5, r4]
1101:../../Drivers/STM32H7xx_HAL_Driver/Src/stm32h7xx_hal.c ****   CLEAR_BIT( *(__IO uint32_t *) (((uint32_t) &(EXTI->RTSR1)) + ((EXTI_Line >> 5 ) * 0x20UL)), (uint
 1971              		.loc 1 1101 3 is_stmt 1 view .LVU312
 1972 001c 03F13073 		add	r3, r3, #46137344
 1973 0020 5B01     		lsls	r3, r3, #5
 1974 0022 1A68     		ldr	r2, [r3]
 1975 0024 22EA0002 		bic	r2, r2, r0
 1976 0028 1A60     		str	r2, [r3]
1102:../../Drivers/STM32H7xx_HAL_Driver/Src/stm32h7xx_hal.c **** 
1103:../../Drivers/STM32H7xx_HAL_Driver/Src/stm32h7xx_hal.c ****   if( (EXTI_Edge & EXTI_RISING_EDGE) == EXTI_RISING_EDGE)
 1977              		.loc 1 1103 3 view .LVU313
 1978              		.loc 1 1103 5 is_stmt 0 view .LVU314
 1979 002a 11F4801F 		tst	r1, #1048576
 1980 002e 02D0     		beq	.L192
1104:../../Drivers/STM32H7xx_HAL_Driver/Src/stm32h7xx_hal.c ****   {
1105:../../Drivers/STM32H7xx_HAL_Driver/Src/stm32h7xx_hal.c ****    SET_BIT( *(__IO uint32_t *) (((uint32_t) &(EXTI->RTSR1)) + ((EXTI_Line >> 5 ) * 0x20UL)), (uint3
 1981              		.loc 1 1105 4 is_stmt 1 view .LVU315
 1982 0030 1A68     		ldr	r2, [r3]
 1983 0032 0243     		orrs	r2, r2, r0
 1984 0034 1A60     		str	r2, [r3]
 1985              	.L192:
1106:../../Drivers/STM32H7xx_HAL_Driver/Src/stm32h7xx_hal.c ****   }
1107:../../Drivers/STM32H7xx_HAL_Driver/Src/stm32h7xx_hal.c ****   if( (EXTI_Edge & EXTI_FALLING_EDGE) == EXTI_FALLING_EDGE)
 1986              		.loc 1 1107 3 view .LVU316
 1987              		.loc 1 1107 5 is_stmt 0 view .LVU317
 1988 0036 11F4001F 		tst	r1, #2097152
 1989 003a 02D0     		beq	.L191
1108:../../Drivers/STM32H7xx_HAL_Driver/Src/stm32h7xx_hal.c ****   {
1109:../../Drivers/STM32H7xx_HAL_Driver/Src/stm32h7xx_hal.c ****    SET_BIT(*(__IO uint32_t *) (((uint32_t) &(EXTI->FTSR1)) + ((EXTI_Line >> 5 ) * 0x20UL)), (uint32
 1990              		.loc 1 1109 4 is_stmt 1 view .LVU318
 1991 003c 2B59     		ldr	r3, [r5, r4]
 1992 003e 1843     		orrs	r0, r0, r3
 1993 0040 2851     		str	r0, [r5, r4]
 1994              	.L191:
1110:../../Drivers/STM32H7xx_HAL_Driver/Src/stm32h7xx_hal.c ****   }
1111:../../Drivers/STM32H7xx_HAL_Driver/Src/stm32h7xx_hal.c **** }
 1995              		.loc 1 1111 1 is_stmt 0 view .LVU319
 1996 0042 70BC     		pop	{r4, r5, r6}
ARM GAS  /tmp/ccJ8mj6U.s 			page 55


 1997              	.LCFI7:
 1998              		.cfi_restore 6
 1999              		.cfi_restore 5
 2000              		.cfi_restore 4
 2001              		.cfi_def_cfa_offset 0
 2002 0044 7047     		bx	lr
 2003              	.L196:
 2004 0046 00BF     		.align	2
 2005              	.L195:
 2006 0048 04000058 		.word	1476395012
 2007              		.cfi_endproc
 2008              	.LFE198:
 2010              		.section	.text.HAL_EXTI_GenerateSWInterrupt,"ax",%progbits
 2011              		.align	1
 2012              		.global	HAL_EXTI_GenerateSWInterrupt
 2013              		.syntax unified
 2014              		.thumb
 2015              		.thumb_func
 2016              		.fpu fpv5-d16
 2018              	HAL_EXTI_GenerateSWInterrupt:
 2019              	.LVL51:
 2020              	.LFB199:
1112:../../Drivers/STM32H7xx_HAL_Driver/Src/stm32h7xx_hal.c **** 
1113:../../Drivers/STM32H7xx_HAL_Driver/Src/stm32h7xx_hal.c **** /**
1114:../../Drivers/STM32H7xx_HAL_Driver/Src/stm32h7xx_hal.c ****   * @brief  Generates a Software interrupt on selected EXTI line.
1115:../../Drivers/STM32H7xx_HAL_Driver/Src/stm32h7xx_hal.c ****   * @param   EXTI_Line: Specifies the EXTI LINE, it can be one of the following values,
1116:../../Drivers/STM32H7xx_HAL_Driver/Src/stm32h7xx_hal.c ****   *          (EXTI_LINE0..EXTI_LINE21),EXTI_LINE49,EXTI_LINE51,EXTI_LINE82,EXTI_LINE84,EXTI_LINE85 
1117:../../Drivers/STM32H7xx_HAL_Driver/Src/stm32h7xx_hal.c ****   * @retval None
1118:../../Drivers/STM32H7xx_HAL_Driver/Src/stm32h7xx_hal.c ****   */
1119:../../Drivers/STM32H7xx_HAL_Driver/Src/stm32h7xx_hal.c **** void HAL_EXTI_GenerateSWInterrupt(uint32_t EXTI_Line)
1120:../../Drivers/STM32H7xx_HAL_Driver/Src/stm32h7xx_hal.c **** {
 2021              		.loc 1 1120 1 is_stmt 1 view -0
 2022              		.cfi_startproc
 2023              		@ args = 0, pretend = 0, frame = 0
 2024              		@ frame_needed = 0, uses_anonymous_args = 0
 2025              		@ link register save eliminated.
 2026              		.loc 1 1120 1 is_stmt 0 view .LVU321
 2027 0000 10B4     		push	{r4}
 2028              	.LCFI8:
 2029              		.cfi_def_cfa_offset 4
 2030              		.cfi_offset 4, -4
1121:../../Drivers/STM32H7xx_HAL_Driver/Src/stm32h7xx_hal.c ****   /* Check the parameters */
1122:../../Drivers/STM32H7xx_HAL_Driver/Src/stm32h7xx_hal.c ****   assert_param(IS_HAL_EXTI_CONFIG_LINE(EXTI_Line));
 2031              		.loc 1 1122 3 is_stmt 1 view .LVU322
1123:../../Drivers/STM32H7xx_HAL_Driver/Src/stm32h7xx_hal.c **** 
1124:../../Drivers/STM32H7xx_HAL_Driver/Src/stm32h7xx_hal.c ****   SET_BIT(*(__IO uint32_t *) (((uint32_t) &(EXTI->SWIER1)) + ((EXTI_Line >> 5 ) * 0x20UL)), (uint32
 2032              		.loc 1 1124 3 view .LVU323
 2033 0002 20F01F04 		bic	r4, r0, #31
 2034 0006 0649     		ldr	r1, .L199
 2035 0008 6358     		ldr	r3, [r4, r1]
 2036 000a 00F01F00 		and	r0, r0, #31
 2037              	.LVL52:
 2038              		.loc 1 1124 3 is_stmt 0 view .LVU324
 2039 000e 0122     		movs	r2, #1
 2040 0010 02FA00F0 		lsl	r0, r2, r0
 2041 0014 1843     		orrs	r0, r0, r3
 2042 0016 6050     		str	r0, [r4, r1]
ARM GAS  /tmp/ccJ8mj6U.s 			page 56


1125:../../Drivers/STM32H7xx_HAL_Driver/Src/stm32h7xx_hal.c **** }
 2043              		.loc 1 1125 1 view .LVU325
 2044 0018 5DF8044B 		ldr	r4, [sp], #4
 2045              	.LCFI9:
 2046              		.cfi_restore 4
 2047              		.cfi_def_cfa_offset 0
 2048 001c 7047     		bx	lr
 2049              	.L200:
 2050 001e 00BF     		.align	2
 2051              	.L199:
 2052 0020 08000058 		.word	1476395016
 2053              		.cfi_endproc
 2054              	.LFE199:
 2056              		.section	.text.HAL_EXTI_D1_ClearFlag,"ax",%progbits
 2057              		.align	1
 2058              		.global	HAL_EXTI_D1_ClearFlag
 2059              		.syntax unified
 2060              		.thumb
 2061              		.thumb_func
 2062              		.fpu fpv5-d16
 2064              	HAL_EXTI_D1_ClearFlag:
 2065              	.LVL53:
 2066              	.LFB200:
1126:../../Drivers/STM32H7xx_HAL_Driver/Src/stm32h7xx_hal.c **** 
1127:../../Drivers/STM32H7xx_HAL_Driver/Src/stm32h7xx_hal.c **** 
1128:../../Drivers/STM32H7xx_HAL_Driver/Src/stm32h7xx_hal.c **** /**
1129:../../Drivers/STM32H7xx_HAL_Driver/Src/stm32h7xx_hal.c ****   * @brief  Clears the EXTI's line pending flags for Domain D1
1130:../../Drivers/STM32H7xx_HAL_Driver/Src/stm32h7xx_hal.c ****   * @param   EXTI_Line: Specifies the EXTI LINE, it can be one of the following values,
1131:../../Drivers/STM32H7xx_HAL_Driver/Src/stm32h7xx_hal.c ****   *         (EXTI_LINE0....EXTI_LINE87)excluding :line45, line81,line83 which are reserved
1132:../../Drivers/STM32H7xx_HAL_Driver/Src/stm32h7xx_hal.c ****   * @retval None
1133:../../Drivers/STM32H7xx_HAL_Driver/Src/stm32h7xx_hal.c ****   */
1134:../../Drivers/STM32H7xx_HAL_Driver/Src/stm32h7xx_hal.c **** void HAL_EXTI_D1_ClearFlag(uint32_t EXTI_Line)
1135:../../Drivers/STM32H7xx_HAL_Driver/Src/stm32h7xx_hal.c **** {
 2067              		.loc 1 1135 1 is_stmt 1 view -0
 2068              		.cfi_startproc
 2069              		@ args = 0, pretend = 0, frame = 0
 2070              		@ frame_needed = 0, uses_anonymous_args = 0
 2071              		@ link register save eliminated.
1136:../../Drivers/STM32H7xx_HAL_Driver/Src/stm32h7xx_hal.c ****   /* Check the parameters */
1137:../../Drivers/STM32H7xx_HAL_Driver/Src/stm32h7xx_hal.c ****  assert_param(IS_EXTI_D1_LINE(EXTI_Line));
 2072              		.loc 1 1137 2 view .LVU327
1138:../../Drivers/STM32H7xx_HAL_Driver/Src/stm32h7xx_hal.c ****  WRITE_REG(*(__IO uint32_t *) (((uint32_t) &(EXTI_D1->PR1)) + ((EXTI_Line >> 5 ) * 0x10UL)), (uint3
 2073              		.loc 1 1138 2 view .LVU328
 2074 0000 00F01F02 		and	r2, r0, #31
 2075 0004 4009     		lsrs	r0, r0, #5
 2076              	.LVL54:
 2077              		.loc 1 1138 2 is_stmt 0 view .LVU329
 2078 0006 0001     		lsls	r0, r0, #4
 2079 0008 0123     		movs	r3, #1
 2080 000a 9340     		lsls	r3, r3, r2
 2081 000c 014A     		ldr	r2, .L202
 2082 000e 8350     		str	r3, [r0, r2]
1139:../../Drivers/STM32H7xx_HAL_Driver/Src/stm32h7xx_hal.c **** 
1140:../../Drivers/STM32H7xx_HAL_Driver/Src/stm32h7xx_hal.c **** }
 2083              		.loc 1 1140 1 view .LVU330
 2084 0010 7047     		bx	lr
 2085              	.L203:
ARM GAS  /tmp/ccJ8mj6U.s 			page 57


 2086 0012 00BF     		.align	2
 2087              	.L202:
 2088 0014 88000058 		.word	1476395144
 2089              		.cfi_endproc
 2090              	.LFE200:
 2092              		.section	.text.HAL_EXTI_D2_ClearFlag,"ax",%progbits
 2093              		.align	1
 2094              		.global	HAL_EXTI_D2_ClearFlag
 2095              		.syntax unified
 2096              		.thumb
 2097              		.thumb_func
 2098              		.fpu fpv5-d16
 2100              	HAL_EXTI_D2_ClearFlag:
 2101              	.LVL55:
 2102              	.LFB201:
1141:../../Drivers/STM32H7xx_HAL_Driver/Src/stm32h7xx_hal.c **** 
1142:../../Drivers/STM32H7xx_HAL_Driver/Src/stm32h7xx_hal.c **** #if defined(DUAL_CORE)
1143:../../Drivers/STM32H7xx_HAL_Driver/Src/stm32h7xx_hal.c **** /**
1144:../../Drivers/STM32H7xx_HAL_Driver/Src/stm32h7xx_hal.c ****   * @brief  Clears the EXTI's line pending flags for Domain D2
1145:../../Drivers/STM32H7xx_HAL_Driver/Src/stm32h7xx_hal.c ****   * @param   EXTI_Line: Specifies the EXTI LINE, it can be one of the following values,
1146:../../Drivers/STM32H7xx_HAL_Driver/Src/stm32h7xx_hal.c ****   *         (EXTI_LINE0....EXTI_LINE87)excluding :line45, line81,line83 which are reserved
1147:../../Drivers/STM32H7xx_HAL_Driver/Src/stm32h7xx_hal.c ****   * @retval None
1148:../../Drivers/STM32H7xx_HAL_Driver/Src/stm32h7xx_hal.c ****   */
1149:../../Drivers/STM32H7xx_HAL_Driver/Src/stm32h7xx_hal.c **** void HAL_EXTI_D2_ClearFlag(uint32_t EXTI_Line)
1150:../../Drivers/STM32H7xx_HAL_Driver/Src/stm32h7xx_hal.c **** {
 2103              		.loc 1 1150 1 is_stmt 1 view -0
 2104              		.cfi_startproc
 2105              		@ args = 0, pretend = 0, frame = 0
 2106              		@ frame_needed = 0, uses_anonymous_args = 0
 2107              		@ link register save eliminated.
1151:../../Drivers/STM32H7xx_HAL_Driver/Src/stm32h7xx_hal.c ****   /* Check the parameters */
1152:../../Drivers/STM32H7xx_HAL_Driver/Src/stm32h7xx_hal.c ****  assert_param(IS_EXTI_D2_LINE(EXTI_Line));
 2108              		.loc 1 1152 2 view .LVU332
1153:../../Drivers/STM32H7xx_HAL_Driver/Src/stm32h7xx_hal.c ****  WRITE_REG(*(__IO uint32_t *) (((uint32_t) &(EXTI_D2->PR1)) + ((EXTI_Line >> 5 ) * 0x10UL)), (uint3
 2109              		.loc 1 1153 2 view .LVU333
 2110 0000 00F01F02 		and	r2, r0, #31
 2111 0004 4009     		lsrs	r0, r0, #5
 2112              	.LVL56:
 2113              		.loc 1 1153 2 is_stmt 0 view .LVU334
 2114 0006 0001     		lsls	r0, r0, #4
 2115 0008 0123     		movs	r3, #1
 2116 000a 9340     		lsls	r3, r3, r2
 2117 000c 014A     		ldr	r2, .L205
 2118 000e 8350     		str	r3, [r0, r2]
1154:../../Drivers/STM32H7xx_HAL_Driver/Src/stm32h7xx_hal.c **** }
 2119              		.loc 1 1154 1 view .LVU335
 2120 0010 7047     		bx	lr
 2121              	.L206:
 2122 0012 00BF     		.align	2
 2123              	.L205:
 2124 0014 C8000058 		.word	1476395208
 2125              		.cfi_endproc
 2126              	.LFE201:
 2128              		.section	.text.HAL_EXTI_D1_EventInputConfig,"ax",%progbits
 2129              		.align	1
 2130              		.global	HAL_EXTI_D1_EventInputConfig
 2131              		.syntax unified
ARM GAS  /tmp/ccJ8mj6U.s 			page 58


 2132              		.thumb
 2133              		.thumb_func
 2134              		.fpu fpv5-d16
 2136              	HAL_EXTI_D1_EventInputConfig:
 2137              	.LVL57:
 2138              	.LFB202:
1155:../../Drivers/STM32H7xx_HAL_Driver/Src/stm32h7xx_hal.c **** 
1156:../../Drivers/STM32H7xx_HAL_Driver/Src/stm32h7xx_hal.c **** #endif /*DUAL_CORE*/
1157:../../Drivers/STM32H7xx_HAL_Driver/Src/stm32h7xx_hal.c **** /**
1158:../../Drivers/STM32H7xx_HAL_Driver/Src/stm32h7xx_hal.c ****   * @brief  Configure the EXTI input event line for Domain D1
1159:../../Drivers/STM32H7xx_HAL_Driver/Src/stm32h7xx_hal.c ****   * @param   EXTI_Line: Specifies the EXTI LINE, it can be one of the following values,
1160:../../Drivers/STM32H7xx_HAL_Driver/Src/stm32h7xx_hal.c ****   *         (EXTI_LINE0....EXTI_LINE87)excluding :line45, line81,line83 which are reserved
1161:../../Drivers/STM32H7xx_HAL_Driver/Src/stm32h7xx_hal.c ****   * @param   EXTI_Mode: Specifies which EXTI line is used as interrupt or an event.
1162:../../Drivers/STM32H7xx_HAL_Driver/Src/stm32h7xx_hal.c ****   *          This parameter can be one or a combination of the following values :
1163:../../Drivers/STM32H7xx_HAL_Driver/Src/stm32h7xx_hal.c ****   *   @arg EXTI_MODE_IT :  Interrupt Mode selected
1164:../../Drivers/STM32H7xx_HAL_Driver/Src/stm32h7xx_hal.c ****   *   @arg EXTI_MODE_EVT : Event Mode selected
1165:../../Drivers/STM32H7xx_HAL_Driver/Src/stm32h7xx_hal.c ****   * @param   EXTI_LineCmd controls (Enable/Disable) the EXTI line.
1166:../../Drivers/STM32H7xx_HAL_Driver/Src/stm32h7xx_hal.c **** 
1167:../../Drivers/STM32H7xx_HAL_Driver/Src/stm32h7xx_hal.c ****   * @retval None
1168:../../Drivers/STM32H7xx_HAL_Driver/Src/stm32h7xx_hal.c ****   */
1169:../../Drivers/STM32H7xx_HAL_Driver/Src/stm32h7xx_hal.c **** void HAL_EXTI_D1_EventInputConfig(uint32_t EXTI_Line , uint32_t EXTI_Mode,  uint32_t EXTI_LineCmd )
1170:../../Drivers/STM32H7xx_HAL_Driver/Src/stm32h7xx_hal.c **** {
 2139              		.loc 1 1170 1 is_stmt 1 view -0
 2140              		.cfi_startproc
 2141              		@ args = 0, pretend = 0, frame = 0
 2142              		@ frame_needed = 0, uses_anonymous_args = 0
 2143              		@ link register save eliminated.
 2144              		.loc 1 1170 1 is_stmt 0 view .LVU337
 2145 0000 70B4     		push	{r4, r5, r6}
 2146              	.LCFI10:
 2147              		.cfi_def_cfa_offset 12
 2148              		.cfi_offset 4, -12
 2149              		.cfi_offset 5, -8
 2150              		.cfi_offset 6, -4
1171:../../Drivers/STM32H7xx_HAL_Driver/Src/stm32h7xx_hal.c ****   /* Check the parameter */
1172:../../Drivers/STM32H7xx_HAL_Driver/Src/stm32h7xx_hal.c ****   assert_param(IS_EXTI_D1_LINE(EXTI_Line));
 2151              		.loc 1 1172 3 is_stmt 1 view .LVU338
1173:../../Drivers/STM32H7xx_HAL_Driver/Src/stm32h7xx_hal.c ****   assert_param(IS_EXTI_MODE_LINE(EXTI_Mode));
 2152              		.loc 1 1173 3 view .LVU339
1174:../../Drivers/STM32H7xx_HAL_Driver/Src/stm32h7xx_hal.c **** 
1175:../../Drivers/STM32H7xx_HAL_Driver/Src/stm32h7xx_hal.c ****   if( (EXTI_Mode & EXTI_MODE_IT) == EXTI_MODE_IT)
 2153              		.loc 1 1175 3 view .LVU340
 2154              		.loc 1 1175 5 is_stmt 0 view .LVU341
 2155 0002 11F4803F 		tst	r1, #65536
 2156 0006 0CD0     		beq	.L208
1176:../../Drivers/STM32H7xx_HAL_Driver/Src/stm32h7xx_hal.c ****   {
1177:../../Drivers/STM32H7xx_HAL_Driver/Src/stm32h7xx_hal.c ****      if( EXTI_LineCmd == 0UL)
 2157              		.loc 1 1177 6 is_stmt 1 view .LVU342
 2158              		.loc 1 1177 8 is_stmt 0 view .LVU343
 2159 0008 E2B9     		cbnz	r2, .L209
1178:../../Drivers/STM32H7xx_HAL_Driver/Src/stm32h7xx_hal.c ****      {
1179:../../Drivers/STM32H7xx_HAL_Driver/Src/stm32h7xx_hal.c ****        /* Clear EXTI line configuration */
1180:../../Drivers/STM32H7xx_HAL_Driver/Src/stm32h7xx_hal.c ****         CLEAR_BIT(*(__IO uint32_t *) (((uint32_t) &(EXTI_D1->IMR1)) + ((EXTI_Line >> 5 ) * 0x10UL))
 2160              		.loc 1 1180 9 is_stmt 1 view .LVU344
 2161 000a 1A4B     		ldr	r3, .L213
 2162 000c 03EB5013 		add	r3, r3, r0, lsr #5
 2163 0010 1B01     		lsls	r3, r3, #4
ARM GAS  /tmp/ccJ8mj6U.s 			page 59


 2164 0012 1C68     		ldr	r4, [r3]
 2165 0014 00F01F06 		and	r6, r0, #31
 2166 0018 0125     		movs	r5, #1
 2167 001a B540     		lsls	r5, r5, r6
 2168 001c 24EA0504 		bic	r4, r4, r5
 2169 0020 1C60     		str	r4, [r3]
 2170              	.L208:
1181:../../Drivers/STM32H7xx_HAL_Driver/Src/stm32h7xx_hal.c ****      }
1182:../../Drivers/STM32H7xx_HAL_Driver/Src/stm32h7xx_hal.c ****      else
1183:../../Drivers/STM32H7xx_HAL_Driver/Src/stm32h7xx_hal.c ****      {
1184:../../Drivers/STM32H7xx_HAL_Driver/Src/stm32h7xx_hal.c ****         SET_BIT(*(__IO uint32_t *) (((uint32_t) &(EXTI_D1->IMR1)) + ((EXTI_Line >> 5 ) * 0x10UL)), 
1185:../../Drivers/STM32H7xx_HAL_Driver/Src/stm32h7xx_hal.c ****      }
1186:../../Drivers/STM32H7xx_HAL_Driver/Src/stm32h7xx_hal.c ****   }
1187:../../Drivers/STM32H7xx_HAL_Driver/Src/stm32h7xx_hal.c **** 
1188:../../Drivers/STM32H7xx_HAL_Driver/Src/stm32h7xx_hal.c ****   if( (EXTI_Mode & EXTI_MODE_EVT) == EXTI_MODE_EVT)
 2171              		.loc 1 1188 3 view .LVU345
 2172              		.loc 1 1188 5 is_stmt 0 view .LVU346
 2173 0022 11F4003F 		tst	r1, #131072
 2174 0026 0BD0     		beq	.L207
1189:../../Drivers/STM32H7xx_HAL_Driver/Src/stm32h7xx_hal.c ****   {
1190:../../Drivers/STM32H7xx_HAL_Driver/Src/stm32h7xx_hal.c ****     if( EXTI_LineCmd == 0UL)
 2175              		.loc 1 1190 5 is_stmt 1 view .LVU347
 2176              		.loc 1 1190 7 is_stmt 0 view .LVU348
 2177 0028 C2B9     		cbnz	r2, .L211
1191:../../Drivers/STM32H7xx_HAL_Driver/Src/stm32h7xx_hal.c ****     {
1192:../../Drivers/STM32H7xx_HAL_Driver/Src/stm32h7xx_hal.c ****       /* Clear EXTI line configuration */
1193:../../Drivers/STM32H7xx_HAL_Driver/Src/stm32h7xx_hal.c ****       CLEAR_BIT(  *(__IO uint32_t *) (((uint32_t) &(EXTI_D1->EMR1)) + ((EXTI_Line >> 5 ) * 0x10UL))
 2178              		.loc 1 1193 7 is_stmt 1 view .LVU349
 2179 002a 4309     		lsrs	r3, r0, #5
 2180 002c 1B01     		lsls	r3, r3, #4
 2181 002e 1249     		ldr	r1, .L213+4
 2182              	.LVL58:
 2183              		.loc 1 1193 7 is_stmt 0 view .LVU350
 2184 0030 5A58     		ldr	r2, [r3, r1]
 2185              	.LVL59:
 2186              		.loc 1 1193 7 view .LVU351
 2187 0032 00F01F04 		and	r4, r0, #31
 2188 0036 0120     		movs	r0, #1
 2189              	.LVL60:
 2190              		.loc 1 1193 7 view .LVU352
 2191 0038 A040     		lsls	r0, r0, r4
 2192 003a 22EA0000 		bic	r0, r2, r0
 2193 003e 5850     		str	r0, [r3, r1]
 2194              	.L207:
1194:../../Drivers/STM32H7xx_HAL_Driver/Src/stm32h7xx_hal.c ****     }
1195:../../Drivers/STM32H7xx_HAL_Driver/Src/stm32h7xx_hal.c ****     else
1196:../../Drivers/STM32H7xx_HAL_Driver/Src/stm32h7xx_hal.c ****     {
1197:../../Drivers/STM32H7xx_HAL_Driver/Src/stm32h7xx_hal.c ****       SET_BIT(  *(__IO uint32_t *) (((uint32_t) &(EXTI_D1->EMR1)) + ((EXTI_Line >> 5 ) * 0x10UL)), 
1198:../../Drivers/STM32H7xx_HAL_Driver/Src/stm32h7xx_hal.c ****     }
1199:../../Drivers/STM32H7xx_HAL_Driver/Src/stm32h7xx_hal.c ****   }
1200:../../Drivers/STM32H7xx_HAL_Driver/Src/stm32h7xx_hal.c **** }
 2195              		.loc 1 1200 1 view .LVU353
 2196 0040 70BC     		pop	{r4, r5, r6}
 2197              	.LCFI11:
 2198              		.cfi_remember_state
 2199              		.cfi_restore 6
 2200              		.cfi_restore 5
ARM GAS  /tmp/ccJ8mj6U.s 			page 60


 2201              		.cfi_restore 4
 2202              		.cfi_def_cfa_offset 0
 2203 0042 7047     		bx	lr
 2204              	.LVL61:
 2205              	.L209:
 2206              	.LCFI12:
 2207              		.cfi_restore_state
1184:../../Drivers/STM32H7xx_HAL_Driver/Src/stm32h7xx_hal.c ****      }
 2208              		.loc 1 1184 9 is_stmt 1 view .LVU354
 2209 0044 0B4B     		ldr	r3, .L213
 2210 0046 03EB5013 		add	r3, r3, r0, lsr #5
 2211 004a 1B01     		lsls	r3, r3, #4
 2212 004c 1C68     		ldr	r4, [r3]
 2213 004e 00F01F06 		and	r6, r0, #31
 2214 0052 0125     		movs	r5, #1
 2215 0054 B540     		lsls	r5, r5, r6
 2216 0056 2C43     		orrs	r4, r4, r5
 2217 0058 1C60     		str	r4, [r3]
 2218 005a E2E7     		b	.L208
 2219              	.L211:
1197:../../Drivers/STM32H7xx_HAL_Driver/Src/stm32h7xx_hal.c ****     }
 2220              		.loc 1 1197 7 view .LVU355
 2221 005c 4309     		lsrs	r3, r0, #5
 2222 005e 1B01     		lsls	r3, r3, #4
 2223 0060 054C     		ldr	r4, .L213+4
 2224 0062 1A59     		ldr	r2, [r3, r4]
 2225              	.LVL62:
1197:../../Drivers/STM32H7xx_HAL_Driver/Src/stm32h7xx_hal.c ****     }
 2226              		.loc 1 1197 7 is_stmt 0 view .LVU356
 2227 0064 00F01F00 		and	r0, r0, #31
 2228              	.LVL63:
1197:../../Drivers/STM32H7xx_HAL_Driver/Src/stm32h7xx_hal.c ****     }
 2229              		.loc 1 1197 7 view .LVU357
 2230 0068 0121     		movs	r1, #1
 2231              	.LVL64:
1197:../../Drivers/STM32H7xx_HAL_Driver/Src/stm32h7xx_hal.c ****     }
 2232              		.loc 1 1197 7 view .LVU358
 2233 006a 01FA00F0 		lsl	r0, r1, r0
 2234 006e 1043     		orrs	r0, r0, r2
 2235 0070 1851     		str	r0, [r3, r4]
 2236              		.loc 1 1200 1 view .LVU359
 2237 0072 E5E7     		b	.L207
 2238              	.L214:
 2239              		.align	2
 2240              	.L213:
 2241 0074 08008005 		.word	92274696
 2242 0078 84000058 		.word	1476395140
 2243              		.cfi_endproc
 2244              	.LFE202:
 2246              		.section	.text.HAL_EXTI_D2_EventInputConfig,"ax",%progbits
 2247              		.align	1
 2248              		.global	HAL_EXTI_D2_EventInputConfig
 2249              		.syntax unified
 2250              		.thumb
 2251              		.thumb_func
 2252              		.fpu fpv5-d16
 2254              	HAL_EXTI_D2_EventInputConfig:
ARM GAS  /tmp/ccJ8mj6U.s 			page 61


 2255              	.LVL65:
 2256              	.LFB203:
1201:../../Drivers/STM32H7xx_HAL_Driver/Src/stm32h7xx_hal.c **** 
1202:../../Drivers/STM32H7xx_HAL_Driver/Src/stm32h7xx_hal.c **** #if defined(DUAL_CORE)
1203:../../Drivers/STM32H7xx_HAL_Driver/Src/stm32h7xx_hal.c **** /**
1204:../../Drivers/STM32H7xx_HAL_Driver/Src/stm32h7xx_hal.c ****   * @brief  Configure the EXTI input event line for Domain D2
1205:../../Drivers/STM32H7xx_HAL_Driver/Src/stm32h7xx_hal.c ****   * @param   EXTI_Line: Specifies the EXTI LINE, it can be one of the following values,
1206:../../Drivers/STM32H7xx_HAL_Driver/Src/stm32h7xx_hal.c ****   *         (EXTI_LINE0....EXTI_LINE87)excluding :line45, line81,line83 which are reserved
1207:../../Drivers/STM32H7xx_HAL_Driver/Src/stm32h7xx_hal.c ****   * @param   EXTI_Mode: Specifies which EXTI line is used as interrupt or an event.
1208:../../Drivers/STM32H7xx_HAL_Driver/Src/stm32h7xx_hal.c ****   *          This parameter can be one or a combination of the following values :
1209:../../Drivers/STM32H7xx_HAL_Driver/Src/stm32h7xx_hal.c ****   *   @arg EXTI_MODE_IT :  Interrupt Mode selected
1210:../../Drivers/STM32H7xx_HAL_Driver/Src/stm32h7xx_hal.c ****   *   @arg EXTI_MODE_EVT : Event Mode selected
1211:../../Drivers/STM32H7xx_HAL_Driver/Src/stm32h7xx_hal.c ****   * @param   EXTI_LineCmd controls (Enable/Disable) the EXTI line.
1212:../../Drivers/STM32H7xx_HAL_Driver/Src/stm32h7xx_hal.c **** 
1213:../../Drivers/STM32H7xx_HAL_Driver/Src/stm32h7xx_hal.c ****   * @retval None
1214:../../Drivers/STM32H7xx_HAL_Driver/Src/stm32h7xx_hal.c ****   */
1215:../../Drivers/STM32H7xx_HAL_Driver/Src/stm32h7xx_hal.c **** void HAL_EXTI_D2_EventInputConfig(uint32_t EXTI_Line , uint32_t EXTI_Mode,  uint32_t EXTI_LineCmd )
1216:../../Drivers/STM32H7xx_HAL_Driver/Src/stm32h7xx_hal.c **** {
 2257              		.loc 1 1216 1 is_stmt 1 view -0
 2258              		.cfi_startproc
 2259              		@ args = 0, pretend = 0, frame = 0
 2260              		@ frame_needed = 0, uses_anonymous_args = 0
 2261              		@ link register save eliminated.
 2262              		.loc 1 1216 1 is_stmt 0 view .LVU361
 2263 0000 70B4     		push	{r4, r5, r6}
 2264              	.LCFI13:
 2265              		.cfi_def_cfa_offset 12
 2266              		.cfi_offset 4, -12
 2267              		.cfi_offset 5, -8
 2268              		.cfi_offset 6, -4
1217:../../Drivers/STM32H7xx_HAL_Driver/Src/stm32h7xx_hal.c ****   /* Check the parameter */
1218:../../Drivers/STM32H7xx_HAL_Driver/Src/stm32h7xx_hal.c ****   assert_param(IS_EXTI_D2_LINE(EXTI_Line));
 2269              		.loc 1 1218 3 is_stmt 1 view .LVU362
1219:../../Drivers/STM32H7xx_HAL_Driver/Src/stm32h7xx_hal.c ****   assert_param(IS_EXTI_MODE_LINE(EXTI_Mode));
 2270              		.loc 1 1219 3 view .LVU363
1220:../../Drivers/STM32H7xx_HAL_Driver/Src/stm32h7xx_hal.c **** 
1221:../../Drivers/STM32H7xx_HAL_Driver/Src/stm32h7xx_hal.c ****   if( (EXTI_Mode & EXTI_MODE_IT) == EXTI_MODE_IT)
 2271              		.loc 1 1221 3 view .LVU364
 2272              		.loc 1 1221 5 is_stmt 0 view .LVU365
 2273 0002 11F4803F 		tst	r1, #65536
 2274 0006 0CD0     		beq	.L216
1222:../../Drivers/STM32H7xx_HAL_Driver/Src/stm32h7xx_hal.c ****   {
1223:../../Drivers/STM32H7xx_HAL_Driver/Src/stm32h7xx_hal.c ****     if( EXTI_LineCmd == 0UL)
 2275              		.loc 1 1223 5 is_stmt 1 view .LVU366
 2276              		.loc 1 1223 7 is_stmt 0 view .LVU367
 2277 0008 E2B9     		cbnz	r2, .L217
1224:../../Drivers/STM32H7xx_HAL_Driver/Src/stm32h7xx_hal.c ****     {
1225:../../Drivers/STM32H7xx_HAL_Driver/Src/stm32h7xx_hal.c ****     /* Clear EXTI line configuration */
1226:../../Drivers/STM32H7xx_HAL_Driver/Src/stm32h7xx_hal.c ****      CLEAR_BIT(*(__IO uint32_t *) (((uint32_t) &(EXTI_D2->IMR1)) + ((EXTI_Line >> 5 ) * 0x10UL)),(u
 2278              		.loc 1 1226 6 is_stmt 1 view .LVU368
 2279 000a 1A4B     		ldr	r3, .L221
 2280 000c 03EB5013 		add	r3, r3, r0, lsr #5
 2281 0010 1B01     		lsls	r3, r3, #4
 2282 0012 1C68     		ldr	r4, [r3]
 2283 0014 00F01F06 		and	r6, r0, #31
 2284 0018 0125     		movs	r5, #1
 2285 001a B540     		lsls	r5, r5, r6
ARM GAS  /tmp/ccJ8mj6U.s 			page 62


 2286 001c 24EA0504 		bic	r4, r4, r5
 2287 0020 1C60     		str	r4, [r3]
 2288              	.L216:
1227:../../Drivers/STM32H7xx_HAL_Driver/Src/stm32h7xx_hal.c ****     }
1228:../../Drivers/STM32H7xx_HAL_Driver/Src/stm32h7xx_hal.c ****     else
1229:../../Drivers/STM32H7xx_HAL_Driver/Src/stm32h7xx_hal.c ****     {
1230:../../Drivers/STM32H7xx_HAL_Driver/Src/stm32h7xx_hal.c ****      SET_BIT(*(__IO uint32_t *) (((uint32_t) &(EXTI_D2->IMR1)) + ((EXTI_Line >> 5 ) * 0x10UL)), (ui
1231:../../Drivers/STM32H7xx_HAL_Driver/Src/stm32h7xx_hal.c ****     }
1232:../../Drivers/STM32H7xx_HAL_Driver/Src/stm32h7xx_hal.c ****   }
1233:../../Drivers/STM32H7xx_HAL_Driver/Src/stm32h7xx_hal.c **** 
1234:../../Drivers/STM32H7xx_HAL_Driver/Src/stm32h7xx_hal.c ****   if( (EXTI_Mode & EXTI_MODE_EVT) == EXTI_MODE_EVT)
 2289              		.loc 1 1234 3 view .LVU369
 2290              		.loc 1 1234 5 is_stmt 0 view .LVU370
 2291 0022 11F4003F 		tst	r1, #131072
 2292 0026 0BD0     		beq	.L215
1235:../../Drivers/STM32H7xx_HAL_Driver/Src/stm32h7xx_hal.c ****   {
1236:../../Drivers/STM32H7xx_HAL_Driver/Src/stm32h7xx_hal.c ****     if( EXTI_LineCmd == 0UL)
 2293              		.loc 1 1236 5 is_stmt 1 view .LVU371
 2294              		.loc 1 1236 7 is_stmt 0 view .LVU372
 2295 0028 C2B9     		cbnz	r2, .L219
1237:../../Drivers/STM32H7xx_HAL_Driver/Src/stm32h7xx_hal.c ****     {
1238:../../Drivers/STM32H7xx_HAL_Driver/Src/stm32h7xx_hal.c ****       /* Clear EXTI line configuration */
1239:../../Drivers/STM32H7xx_HAL_Driver/Src/stm32h7xx_hal.c ****       CLEAR_BIT(  *(__IO uint32_t *) (((uint32_t) &(EXTI_D2->EMR1)) + ((EXTI_Line >> 5 ) * 0x10UL))
 2296              		.loc 1 1239 7 is_stmt 1 view .LVU373
 2297 002a 4309     		lsrs	r3, r0, #5
 2298 002c 1B01     		lsls	r3, r3, #4
 2299 002e 1249     		ldr	r1, .L221+4
 2300              	.LVL66:
 2301              		.loc 1 1239 7 is_stmt 0 view .LVU374
 2302 0030 5A58     		ldr	r2, [r3, r1]
 2303              	.LVL67:
 2304              		.loc 1 1239 7 view .LVU375
 2305 0032 00F01F04 		and	r4, r0, #31
 2306 0036 0120     		movs	r0, #1
 2307              	.LVL68:
 2308              		.loc 1 1239 7 view .LVU376
 2309 0038 A040     		lsls	r0, r0, r4
 2310 003a 22EA0000 		bic	r0, r2, r0
 2311 003e 5850     		str	r0, [r3, r1]
 2312              	.L215:
1240:../../Drivers/STM32H7xx_HAL_Driver/Src/stm32h7xx_hal.c ****     }
1241:../../Drivers/STM32H7xx_HAL_Driver/Src/stm32h7xx_hal.c ****     else
1242:../../Drivers/STM32H7xx_HAL_Driver/Src/stm32h7xx_hal.c ****     {
1243:../../Drivers/STM32H7xx_HAL_Driver/Src/stm32h7xx_hal.c ****       SET_BIT(  *(__IO uint32_t *) (((uint32_t) &(EXTI_D2->EMR1)) + ((EXTI_Line >> 5 ) * 0x10UL)), 
1244:../../Drivers/STM32H7xx_HAL_Driver/Src/stm32h7xx_hal.c ****     }
1245:../../Drivers/STM32H7xx_HAL_Driver/Src/stm32h7xx_hal.c ****   }
1246:../../Drivers/STM32H7xx_HAL_Driver/Src/stm32h7xx_hal.c **** }
 2313              		.loc 1 1246 1 view .LVU377
 2314 0040 70BC     		pop	{r4, r5, r6}
 2315              	.LCFI14:
 2316              		.cfi_remember_state
 2317              		.cfi_restore 6
 2318              		.cfi_restore 5
 2319              		.cfi_restore 4
 2320              		.cfi_def_cfa_offset 0
 2321 0042 7047     		bx	lr
 2322              	.LVL69:
ARM GAS  /tmp/ccJ8mj6U.s 			page 63


 2323              	.L217:
 2324              	.LCFI15:
 2325              		.cfi_restore_state
1230:../../Drivers/STM32H7xx_HAL_Driver/Src/stm32h7xx_hal.c ****     }
 2326              		.loc 1 1230 6 is_stmt 1 view .LVU378
 2327 0044 0B4B     		ldr	r3, .L221
 2328 0046 03EB5013 		add	r3, r3, r0, lsr #5
 2329 004a 1B01     		lsls	r3, r3, #4
 2330 004c 1C68     		ldr	r4, [r3]
 2331 004e 00F01F06 		and	r6, r0, #31
 2332 0052 0125     		movs	r5, #1
 2333 0054 B540     		lsls	r5, r5, r6
 2334 0056 2C43     		orrs	r4, r4, r5
 2335 0058 1C60     		str	r4, [r3]
 2336 005a E2E7     		b	.L216
 2337              	.L219:
1243:../../Drivers/STM32H7xx_HAL_Driver/Src/stm32h7xx_hal.c ****     }
 2338              		.loc 1 1243 7 view .LVU379
 2339 005c 4309     		lsrs	r3, r0, #5
 2340 005e 1B01     		lsls	r3, r3, #4
 2341 0060 054C     		ldr	r4, .L221+4
 2342 0062 1A59     		ldr	r2, [r3, r4]
 2343              	.LVL70:
1243:../../Drivers/STM32H7xx_HAL_Driver/Src/stm32h7xx_hal.c ****     }
 2344              		.loc 1 1243 7 is_stmt 0 view .LVU380
 2345 0064 00F01F00 		and	r0, r0, #31
 2346              	.LVL71:
1243:../../Drivers/STM32H7xx_HAL_Driver/Src/stm32h7xx_hal.c ****     }
 2347              		.loc 1 1243 7 view .LVU381
 2348 0068 0121     		movs	r1, #1
 2349              	.LVL72:
1243:../../Drivers/STM32H7xx_HAL_Driver/Src/stm32h7xx_hal.c ****     }
 2350              		.loc 1 1243 7 view .LVU382
 2351 006a 01FA00F0 		lsl	r0, r1, r0
 2352 006e 1043     		orrs	r0, r0, r2
 2353 0070 1851     		str	r0, [r3, r4]
 2354              		.loc 1 1246 1 view .LVU383
 2355 0072 E5E7     		b	.L215
 2356              	.L222:
 2357              		.align	2
 2358              	.L221:
 2359 0074 0C008005 		.word	92274700
 2360 0078 C4000058 		.word	1476395204
 2361              		.cfi_endproc
 2362              	.LFE203:
 2364              		.section	.text.HAL_EXTI_D3_EventInputConfig,"ax",%progbits
 2365              		.align	1
 2366              		.global	HAL_EXTI_D3_EventInputConfig
 2367              		.syntax unified
 2368              		.thumb
 2369              		.thumb_func
 2370              		.fpu fpv5-d16
 2372              	HAL_EXTI_D3_EventInputConfig:
 2373              	.LVL73:
 2374              	.LFB204:
1247:../../Drivers/STM32H7xx_HAL_Driver/Src/stm32h7xx_hal.c **** #endif /*DUAL_CORE*/
1248:../../Drivers/STM32H7xx_HAL_Driver/Src/stm32h7xx_hal.c **** 
ARM GAS  /tmp/ccJ8mj6U.s 			page 64


1249:../../Drivers/STM32H7xx_HAL_Driver/Src/stm32h7xx_hal.c **** /**
1250:../../Drivers/STM32H7xx_HAL_Driver/Src/stm32h7xx_hal.c ****   * @brief  Configure the EXTI input event line for Domain D3
1251:../../Drivers/STM32H7xx_HAL_Driver/Src/stm32h7xx_hal.c ****   * @param   EXTI_Line: Specifies the EXTI LINE, it can be one of the following values,
1252:../../Drivers/STM32H7xx_HAL_Driver/Src/stm32h7xx_hal.c ****   *         (EXTI_LINE0...EXTI_LINE15),(EXTI_LINE19...EXTI_LINE21),EXTI_LINE25, EXTI_LINE34,
1253:../../Drivers/STM32H7xx_HAL_Driver/Src/stm32h7xx_hal.c ****   *          EXTI_LINE35,EXTI_LINE41,(EXTI_LINE48...EXTI_LINE53)
1254:../../Drivers/STM32H7xx_HAL_Driver/Src/stm32h7xx_hal.c ****   * @param   EXTI_LineCmd controls (Enable/Disable) the EXTI line.
1255:../../Drivers/STM32H7xx_HAL_Driver/Src/stm32h7xx_hal.c ****   * @param   EXTI_ClearSrc: Specifies the clear source of D3 pending event.
1256:../../Drivers/STM32H7xx_HAL_Driver/Src/stm32h7xx_hal.c ****   *          This parameter can be one of the following values :
1257:../../Drivers/STM32H7xx_HAL_Driver/Src/stm32h7xx_hal.c ****   *   @arg BDMA_CH6_CLEAR : BDMA ch6 event selected as D3 domain pendclear source
1258:../../Drivers/STM32H7xx_HAL_Driver/Src/stm32h7xx_hal.c ****   *   @arg BDMA_CH7_CLEAR : BDMA ch7 event selected as D3 domain pendclear source
1259:../../Drivers/STM32H7xx_HAL_Driver/Src/stm32h7xx_hal.c ****   *   @arg LPTIM4_OUT_CLEAR : LPTIM4 out selected as D3 domain pendclear source
1260:../../Drivers/STM32H7xx_HAL_Driver/Src/stm32h7xx_hal.c ****   *   @arg LPTIM5_OUT_CLEAR : LPTIM5 out selected as D3 domain pendclear source
1261:../../Drivers/STM32H7xx_HAL_Driver/Src/stm32h7xx_hal.c ****   * @retval None
1262:../../Drivers/STM32H7xx_HAL_Driver/Src/stm32h7xx_hal.c ****   */
1263:../../Drivers/STM32H7xx_HAL_Driver/Src/stm32h7xx_hal.c **** void HAL_EXTI_D3_EventInputConfig(uint32_t EXTI_Line, uint32_t EXTI_LineCmd , uint32_t EXTI_ClearSr
1264:../../Drivers/STM32H7xx_HAL_Driver/Src/stm32h7xx_hal.c **** {
 2375              		.loc 1 1264 1 is_stmt 1 view -0
 2376              		.cfi_startproc
 2377              		@ args = 0, pretend = 0, frame = 0
 2378              		@ frame_needed = 0, uses_anonymous_args = 0
 2379              		@ link register save eliminated.
 2380              		.loc 1 1264 1 is_stmt 0 view .LVU385
 2381 0000 70B4     		push	{r4, r5, r6}
 2382              	.LCFI16:
 2383              		.cfi_def_cfa_offset 12
 2384              		.cfi_offset 4, -12
 2385              		.cfi_offset 5, -8
 2386              		.cfi_offset 6, -4
1265:../../Drivers/STM32H7xx_HAL_Driver/Src/stm32h7xx_hal.c ****   __IO uint32_t *pRegv;
 2387              		.loc 1 1265 3 is_stmt 1 view .LVU386
1266:../../Drivers/STM32H7xx_HAL_Driver/Src/stm32h7xx_hal.c **** 
1267:../../Drivers/STM32H7xx_HAL_Driver/Src/stm32h7xx_hal.c ****   /* Check the parameter */
1268:../../Drivers/STM32H7xx_HAL_Driver/Src/stm32h7xx_hal.c ****   assert_param(IS_EXTI_D3_LINE(EXTI_Line));
 2388              		.loc 1 1268 3 view .LVU387
1269:../../Drivers/STM32H7xx_HAL_Driver/Src/stm32h7xx_hal.c ****   assert_param(IS_EXTI_D3_CLEAR(EXTI_ClearSrc));
 2389              		.loc 1 1269 3 view .LVU388
1270:../../Drivers/STM32H7xx_HAL_Driver/Src/stm32h7xx_hal.c **** 
1271:../../Drivers/STM32H7xx_HAL_Driver/Src/stm32h7xx_hal.c ****   if( EXTI_LineCmd == 0UL)
 2390              		.loc 1 1271 3 view .LVU389
 2391              		.loc 1 1271 5 is_stmt 0 view .LVU390
 2392 0002 F9B9     		cbnz	r1, .L224
1272:../../Drivers/STM32H7xx_HAL_Driver/Src/stm32h7xx_hal.c ****   {
1273:../../Drivers/STM32H7xx_HAL_Driver/Src/stm32h7xx_hal.c ****     /* Clear EXTI line configuration */
1274:../../Drivers/STM32H7xx_HAL_Driver/Src/stm32h7xx_hal.c ****     CLEAR_BIT(*(__IO uint32_t *) (((uint32_t) &(EXTI->D3PMR1)) + ((EXTI_Line >> 5 ) * 0x20UL)),(uin
 2393              		.loc 1 1274 5 is_stmt 1 view .LVU391
 2394 0004 20F01F03 		bic	r3, r0, #31
 2395 0008 164D     		ldr	r5, .L229
 2396 000a 5959     		ldr	r1, [r3, r5]
 2397              	.LVL74:
 2398              		.loc 1 1274 5 is_stmt 0 view .LVU392
 2399 000c 00F01F06 		and	r6, r0, #31
 2400 0010 0124     		movs	r4, #1
 2401 0012 B440     		lsls	r4, r4, r6
 2402 0014 21EA0401 		bic	r1, r1, r4
 2403 0018 5951     		str	r1, [r3, r5]
 2404              	.L225:
1275:../../Drivers/STM32H7xx_HAL_Driver/Src/stm32h7xx_hal.c ****   }
ARM GAS  /tmp/ccJ8mj6U.s 			page 65


1276:../../Drivers/STM32H7xx_HAL_Driver/Src/stm32h7xx_hal.c ****   else
1277:../../Drivers/STM32H7xx_HAL_Driver/Src/stm32h7xx_hal.c ****   {
1278:../../Drivers/STM32H7xx_HAL_Driver/Src/stm32h7xx_hal.c ****     SET_BIT(*(__IO uint32_t *) (((uint32_t) &(EXTI->D3PMR1)) +((EXTI_Line >> 5 ) * 0x20UL)), (uint3
1279:../../Drivers/STM32H7xx_HAL_Driver/Src/stm32h7xx_hal.c ****   }
1280:../../Drivers/STM32H7xx_HAL_Driver/Src/stm32h7xx_hal.c **** 
1281:../../Drivers/STM32H7xx_HAL_Driver/Src/stm32h7xx_hal.c ****   if(((EXTI_Line>>4)%2UL) == 0UL)
 2405              		.loc 1 1281 3 is_stmt 1 view .LVU393
 2406              		.loc 1 1281 5 is_stmt 0 view .LVU394
 2407 001a 10F0100F 		tst	r0, #16
 2408 001e 1CD1     		bne	.L226
1282:../../Drivers/STM32H7xx_HAL_Driver/Src/stm32h7xx_hal.c ****   {
1283:../../Drivers/STM32H7xx_HAL_Driver/Src/stm32h7xx_hal.c ****     pRegv = (__IO uint32_t *) (((uint32_t) &(EXTI->D3PCR1L)) + ((EXTI_Line >> 5 ) * 0x20UL));
 2409              		.loc 1 1283 5 is_stmt 1 view .LVU395
 2410              		.loc 1 1283 83 is_stmt 0 view .LVU396
 2411 0020 20F01F03 		bic	r3, r0, #31
 2412              		.loc 1 1283 62 view .LVU397
 2413 0024 1049     		ldr	r1, .L229+4
 2414 0026 1944     		add	r1, r1, r3
 2415              	.LVL75:
 2416              	.L227:
1284:../../Drivers/STM32H7xx_HAL_Driver/Src/stm32h7xx_hal.c ****   }
1285:../../Drivers/STM32H7xx_HAL_Driver/Src/stm32h7xx_hal.c ****   else
1286:../../Drivers/STM32H7xx_HAL_Driver/Src/stm32h7xx_hal.c ****   {
1287:../../Drivers/STM32H7xx_HAL_Driver/Src/stm32h7xx_hal.c ****     pRegv = (__IO uint32_t *) (((uint32_t) &(EXTI->D3PCR1H)) + ((EXTI_Line >> 5 ) * 0x20UL));
1288:../../Drivers/STM32H7xx_HAL_Driver/Src/stm32h7xx_hal.c ****   }
1289:../../Drivers/STM32H7xx_HAL_Driver/Src/stm32h7xx_hal.c ****   MODIFY_REG(*pRegv, (uint32_t)(3UL << ((EXTI_Line*2UL) & 0x1FUL)), (uint32_t)(EXTI_ClearSrc << ((E
 2417              		.loc 1 1289 3 is_stmt 1 view .LVU398
 2418 0028 0B68     		ldr	r3, [r1]
 2419 002a 4000     		lsls	r0, r0, #1
 2420              	.LVL76:
 2421              		.loc 1 1289 3 is_stmt 0 view .LVU399
 2422 002c 00F01E00 		and	r0, r0, #30
 2423 0030 0324     		movs	r4, #3
 2424 0032 8440     		lsls	r4, r4, r0
 2425 0034 23EA0403 		bic	r3, r3, r4
 2426 0038 02FA00F0 		lsl	r0, r2, r0
 2427 003c 1843     		orrs	r0, r0, r3
 2428 003e 0860     		str	r0, [r1]
1290:../../Drivers/STM32H7xx_HAL_Driver/Src/stm32h7xx_hal.c **** 
1291:../../Drivers/STM32H7xx_HAL_Driver/Src/stm32h7xx_hal.c **** }
 2429              		.loc 1 1291 1 view .LVU400
 2430 0040 70BC     		pop	{r4, r5, r6}
 2431              	.LCFI17:
 2432              		.cfi_remember_state
 2433              		.cfi_restore 6
 2434              		.cfi_restore 5
 2435              		.cfi_restore 4
 2436              		.cfi_def_cfa_offset 0
 2437 0042 7047     		bx	lr
 2438              	.LVL77:
 2439              	.L224:
 2440              	.LCFI18:
 2441              		.cfi_restore_state
1278:../../Drivers/STM32H7xx_HAL_Driver/Src/stm32h7xx_hal.c ****   }
 2442              		.loc 1 1278 5 is_stmt 1 view .LVU401
 2443 0044 20F01F03 		bic	r3, r0, #31
 2444 0048 064D     		ldr	r5, .L229
ARM GAS  /tmp/ccJ8mj6U.s 			page 66


 2445 004a 5959     		ldr	r1, [r3, r5]
 2446              	.LVL78:
1278:../../Drivers/STM32H7xx_HAL_Driver/Src/stm32h7xx_hal.c ****   }
 2447              		.loc 1 1278 5 is_stmt 0 view .LVU402
 2448 004c 00F01F06 		and	r6, r0, #31
 2449 0050 0124     		movs	r4, #1
 2450 0052 B440     		lsls	r4, r4, r6
 2451 0054 2143     		orrs	r1, r1, r4
 2452 0056 5951     		str	r1, [r3, r5]
 2453 0058 DFE7     		b	.L225
 2454              	.L226:
1287:../../Drivers/STM32H7xx_HAL_Driver/Src/stm32h7xx_hal.c ****   }
 2455              		.loc 1 1287 5 is_stmt 1 view .LVU403
1287:../../Drivers/STM32H7xx_HAL_Driver/Src/stm32h7xx_hal.c ****   }
 2456              		.loc 1 1287 83 is_stmt 0 view .LVU404
 2457 005a 20F01F03 		bic	r3, r0, #31
1287:../../Drivers/STM32H7xx_HAL_Driver/Src/stm32h7xx_hal.c ****   }
 2458              		.loc 1 1287 62 view .LVU405
 2459 005e 0349     		ldr	r1, .L229+8
 2460 0060 1944     		add	r1, r1, r3
 2461              	.LVL79:
1287:../../Drivers/STM32H7xx_HAL_Driver/Src/stm32h7xx_hal.c ****   }
 2462              		.loc 1 1287 62 view .LVU406
 2463 0062 E1E7     		b	.L227
 2464              	.L230:
 2465              		.align	2
 2466              	.L229:
 2467 0064 0C000058 		.word	1476395020
 2468 0068 10000058 		.word	1476395024
 2469 006c 14000058 		.word	1476395028
 2470              		.cfi_endproc
 2471              	.LFE204:
 2473              		.global	uwTickFreq
 2474              		.global	uwTickPrio
 2475              		.comm	uwTick,4,4
 2476              		.section	.data.uwTickFreq,"aw"
 2477              		.set	.LANCHOR0,. + 0
 2480              	uwTickFreq:
 2481 0000 01       		.byte	1
 2482              		.section	.data.uwTickPrio,"aw"
 2483              		.align	2
 2484              		.set	.LANCHOR1,. + 0
 2487              	uwTickPrio:
 2488 0000 10000000 		.word	16
 2489              		.text
 2490              	.Letext0:
 2491              		.file 2 "/home/im/Programs/gcc-arm-none-eabi/gcc-arm-none-eabi-9-2020-q2-update/arm-none-eabi/incl
 2492              		.file 3 "/home/im/Programs/gcc-arm-none-eabi/gcc-arm-none-eabi-9-2020-q2-update/arm-none-eabi/incl
 2493              		.file 4 "../../Drivers/CMSIS/Include/core_cm7.h"
 2494              		.file 5 "../../Drivers/CMSIS/Device/ST/STM32H7xx/Include/system_stm32h7xx.h"
 2495              		.file 6 "../../Drivers/CMSIS/Device/ST/STM32H7xx/Include/stm32h747xx.h"
 2496              		.file 7 "/home/im/Programs/gcc-arm-none-eabi/gcc-arm-none-eabi-9-2020-q2-update/lib/gcc/arm-none-e
 2497              		.file 8 "/home/im/Programs/gcc-arm-none-eabi/gcc-arm-none-eabi-9-2020-q2-update/arm-none-eabi/incl
 2498              		.file 9 "/home/im/Programs/gcc-arm-none-eabi/gcc-arm-none-eabi-9-2020-q2-update/arm-none-eabi/incl
 2499              		.file 10 "/home/im/Programs/gcc-arm-none-eabi/gcc-arm-none-eabi-9-2020-q2-update/arm-none-eabi/inc
 2500              		.file 11 "/home/im/Programs/gcc-arm-none-eabi/gcc-arm-none-eabi-9-2020-q2-update/arm-none-eabi/inc
 2501              		.file 12 "../../Drivers/STM32H7xx_HAL_Driver/Inc/stm32h7xx_hal_def.h"
ARM GAS  /tmp/ccJ8mj6U.s 			page 67


 2502              		.file 13 "../../Drivers/STM32H7xx_HAL_Driver/Inc/stm32h7xx_hal_flash.h"
 2503              		.file 14 "../../Drivers/STM32H7xx_HAL_Driver/Inc/stm32h7xx_hal_uart.h"
 2504              		.file 15 "../../Drivers/STM32H7xx_HAL_Driver/Inc/stm32h7xx_hal.h"
 2505              		.file 16 "../../Drivers/STM32H7xx_HAL_Driver/Inc/stm32h7xx_hal_cortex.h"
 2506              		.file 17 "../../Drivers/STM32H7xx_HAL_Driver/Inc/stm32h7xx_hal_rcc.h"
ARM GAS  /tmp/ccJ8mj6U.s 			page 68

