ARM GAS  /tmp/ccoUsChM.s 			page 1


   1              		.cpu cortex-m7
   2              		.eabi_attribute 27, 1
   3              		.eabi_attribute 28, 1
   4              		.eabi_attribute 20, 1
   5              		.eabi_attribute 21, 1
   6              		.eabi_attribute 23, 3
   7              		.eabi_attribute 24, 1
   8              		.eabi_attribute 25, 1
   9              		.eabi_attribute 26, 1
  10              		.eabi_attribute 30, 1
  11              		.eabi_attribute 34, 1
  12              		.eabi_attribute 18, 4
  13              		.file	"stm32h7xx_hal.c"
  14              		.text
  15              	.Ltext0:
  16              		.cfi_sections	.debug_frame
  17              		.section	.text.HAL_MspInit,"ax",%progbits
  18              		.align	1
  19              		.weak	HAL_MspInit
  20              		.arch armv7e-m
  21              		.syntax unified
  22              		.thumb
  23              		.thumb_func
  24              		.fpu fpv4-sp-d16
  26              	HAL_MspInit:
  27              	.LFB134:
  28              		.file 1 "../../Drivers/STM32H7xx_HAL_Driver/Src/stm32h7xx_hal.c"
   1:../../Drivers/STM32H7xx_HAL_Driver/Src/stm32h7xx_hal.c **** /**
   2:../../Drivers/STM32H7xx_HAL_Driver/Src/stm32h7xx_hal.c ****   ******************************************************************************
   3:../../Drivers/STM32H7xx_HAL_Driver/Src/stm32h7xx_hal.c ****   * @file    stm32h7xx_hal.c
   4:../../Drivers/STM32H7xx_HAL_Driver/Src/stm32h7xx_hal.c ****   * @author  MCD Application Team
   5:../../Drivers/STM32H7xx_HAL_Driver/Src/stm32h7xx_hal.c ****   * @brief   HAL module driver.
   6:../../Drivers/STM32H7xx_HAL_Driver/Src/stm32h7xx_hal.c ****   *          This is the common part of the HAL initialization
   7:../../Drivers/STM32H7xx_HAL_Driver/Src/stm32h7xx_hal.c ****   *
   8:../../Drivers/STM32H7xx_HAL_Driver/Src/stm32h7xx_hal.c ****   ******************************************************************************
   9:../../Drivers/STM32H7xx_HAL_Driver/Src/stm32h7xx_hal.c ****   * @attention
  10:../../Drivers/STM32H7xx_HAL_Driver/Src/stm32h7xx_hal.c ****   *
  11:../../Drivers/STM32H7xx_HAL_Driver/Src/stm32h7xx_hal.c ****   * Copyright (c) 2017 STMicroelectronics.
  12:../../Drivers/STM32H7xx_HAL_Driver/Src/stm32h7xx_hal.c ****   * All rights reserved.
  13:../../Drivers/STM32H7xx_HAL_Driver/Src/stm32h7xx_hal.c ****   *
  14:../../Drivers/STM32H7xx_HAL_Driver/Src/stm32h7xx_hal.c ****   * This software is licensed under terms that can be found in the LICENSE file
  15:../../Drivers/STM32H7xx_HAL_Driver/Src/stm32h7xx_hal.c ****   * in the root directory of this software component.
  16:../../Drivers/STM32H7xx_HAL_Driver/Src/stm32h7xx_hal.c ****   * If no LICENSE file comes with this software, it is provided AS-IS.
  17:../../Drivers/STM32H7xx_HAL_Driver/Src/stm32h7xx_hal.c ****   *
  18:../../Drivers/STM32H7xx_HAL_Driver/Src/stm32h7xx_hal.c ****   ******************************************************************************
  19:../../Drivers/STM32H7xx_HAL_Driver/Src/stm32h7xx_hal.c ****   @verbatim
  20:../../Drivers/STM32H7xx_HAL_Driver/Src/stm32h7xx_hal.c ****   ==============================================================================
  21:../../Drivers/STM32H7xx_HAL_Driver/Src/stm32h7xx_hal.c ****                      ##### How to use this driver #####
  22:../../Drivers/STM32H7xx_HAL_Driver/Src/stm32h7xx_hal.c ****   ==============================================================================
  23:../../Drivers/STM32H7xx_HAL_Driver/Src/stm32h7xx_hal.c ****     [..]
  24:../../Drivers/STM32H7xx_HAL_Driver/Src/stm32h7xx_hal.c ****     The common HAL driver contains a set of generic and common APIs that can be
  25:../../Drivers/STM32H7xx_HAL_Driver/Src/stm32h7xx_hal.c ****     used by the PPP peripheral drivers and the user to start using the HAL.
  26:../../Drivers/STM32H7xx_HAL_Driver/Src/stm32h7xx_hal.c ****     [..]
  27:../../Drivers/STM32H7xx_HAL_Driver/Src/stm32h7xx_hal.c ****     The HAL contains two APIs' categories:
  28:../../Drivers/STM32H7xx_HAL_Driver/Src/stm32h7xx_hal.c ****          (+) Common HAL APIs
  29:../../Drivers/STM32H7xx_HAL_Driver/Src/stm32h7xx_hal.c ****          (+) Services HAL APIs
  30:../../Drivers/STM32H7xx_HAL_Driver/Src/stm32h7xx_hal.c **** 
ARM GAS  /tmp/ccoUsChM.s 			page 2


  31:../../Drivers/STM32H7xx_HAL_Driver/Src/stm32h7xx_hal.c ****   @endverbatim
  32:../../Drivers/STM32H7xx_HAL_Driver/Src/stm32h7xx_hal.c ****   ******************************************************************************
  33:../../Drivers/STM32H7xx_HAL_Driver/Src/stm32h7xx_hal.c ****   */
  34:../../Drivers/STM32H7xx_HAL_Driver/Src/stm32h7xx_hal.c **** 
  35:../../Drivers/STM32H7xx_HAL_Driver/Src/stm32h7xx_hal.c **** /* Includes ------------------------------------------------------------------*/
  36:../../Drivers/STM32H7xx_HAL_Driver/Src/stm32h7xx_hal.c **** #include "stm32h7xx_hal.h"
  37:../../Drivers/STM32H7xx_HAL_Driver/Src/stm32h7xx_hal.c **** 
  38:../../Drivers/STM32H7xx_HAL_Driver/Src/stm32h7xx_hal.c **** /** @addtogroup STM32H7xx_HAL_Driver
  39:../../Drivers/STM32H7xx_HAL_Driver/Src/stm32h7xx_hal.c ****   * @{
  40:../../Drivers/STM32H7xx_HAL_Driver/Src/stm32h7xx_hal.c ****   */
  41:../../Drivers/STM32H7xx_HAL_Driver/Src/stm32h7xx_hal.c **** 
  42:../../Drivers/STM32H7xx_HAL_Driver/Src/stm32h7xx_hal.c **** /** @defgroup HAL  HAL
  43:../../Drivers/STM32H7xx_HAL_Driver/Src/stm32h7xx_hal.c ****   * @brief HAL module driver.
  44:../../Drivers/STM32H7xx_HAL_Driver/Src/stm32h7xx_hal.c ****   * @{
  45:../../Drivers/STM32H7xx_HAL_Driver/Src/stm32h7xx_hal.c ****   */
  46:../../Drivers/STM32H7xx_HAL_Driver/Src/stm32h7xx_hal.c **** 
  47:../../Drivers/STM32H7xx_HAL_Driver/Src/stm32h7xx_hal.c **** /* Private typedef -----------------------------------------------------------*/
  48:../../Drivers/STM32H7xx_HAL_Driver/Src/stm32h7xx_hal.c **** /* Private define ------------------------------------------------------------*/
  49:../../Drivers/STM32H7xx_HAL_Driver/Src/stm32h7xx_hal.c **** /**
  50:../../Drivers/STM32H7xx_HAL_Driver/Src/stm32h7xx_hal.c ****  * @brief STM32H7xx HAL Driver version number V1.11.1
  51:../../Drivers/STM32H7xx_HAL_Driver/Src/stm32h7xx_hal.c ****    */
  52:../../Drivers/STM32H7xx_HAL_Driver/Src/stm32h7xx_hal.c **** #define __STM32H7xx_HAL_VERSION_MAIN   (0x01UL) /*!< [31:24] main version */
  53:../../Drivers/STM32H7xx_HAL_Driver/Src/stm32h7xx_hal.c **** #define __STM32H7xx_HAL_VERSION_SUB1   (0x0BUL) /*!< [23:16] sub1 version */
  54:../../Drivers/STM32H7xx_HAL_Driver/Src/stm32h7xx_hal.c **** #define __STM32H7xx_HAL_VERSION_SUB2   (0x01UL) /*!< [15:8]  sub2 version */
  55:../../Drivers/STM32H7xx_HAL_Driver/Src/stm32h7xx_hal.c **** #define __STM32H7xx_HAL_VERSION_RC     (0x00UL) /*!< [7:0]  release candidate */
  56:../../Drivers/STM32H7xx_HAL_Driver/Src/stm32h7xx_hal.c **** #define __STM32H7xx_HAL_VERSION         ((__STM32H7xx_HAL_VERSION_MAIN << 24)\
  57:../../Drivers/STM32H7xx_HAL_Driver/Src/stm32h7xx_hal.c ****                                         |(__STM32H7xx_HAL_VERSION_SUB1 << 16)\
  58:../../Drivers/STM32H7xx_HAL_Driver/Src/stm32h7xx_hal.c ****                                         |(__STM32H7xx_HAL_VERSION_SUB2 << 8 )\
  59:../../Drivers/STM32H7xx_HAL_Driver/Src/stm32h7xx_hal.c ****                                         |(__STM32H7xx_HAL_VERSION_RC))
  60:../../Drivers/STM32H7xx_HAL_Driver/Src/stm32h7xx_hal.c **** 
  61:../../Drivers/STM32H7xx_HAL_Driver/Src/stm32h7xx_hal.c **** #define IDCODE_DEVID_MASK    ((uint32_t)0x00000FFF)
  62:../../Drivers/STM32H7xx_HAL_Driver/Src/stm32h7xx_hal.c **** #define VREFBUF_TIMEOUT_VALUE     (uint32_t)10   /* 10 ms  */
  63:../../Drivers/STM32H7xx_HAL_Driver/Src/stm32h7xx_hal.c **** 
  64:../../Drivers/STM32H7xx_HAL_Driver/Src/stm32h7xx_hal.c **** /* Private macro -------------------------------------------------------------*/
  65:../../Drivers/STM32H7xx_HAL_Driver/Src/stm32h7xx_hal.c **** /* Private variables ---------------------------------------------------------*/
  66:../../Drivers/STM32H7xx_HAL_Driver/Src/stm32h7xx_hal.c **** /* Exported variables --------------------------------------------------------*/
  67:../../Drivers/STM32H7xx_HAL_Driver/Src/stm32h7xx_hal.c **** 
  68:../../Drivers/STM32H7xx_HAL_Driver/Src/stm32h7xx_hal.c **** /** @defgroup HAL_Exported_Variables HAL Exported Variables
  69:../../Drivers/STM32H7xx_HAL_Driver/Src/stm32h7xx_hal.c ****   * @{
  70:../../Drivers/STM32H7xx_HAL_Driver/Src/stm32h7xx_hal.c ****   */
  71:../../Drivers/STM32H7xx_HAL_Driver/Src/stm32h7xx_hal.c **** __IO uint32_t uwTick;
  72:../../Drivers/STM32H7xx_HAL_Driver/Src/stm32h7xx_hal.c **** uint32_t uwTickPrio   = (1UL << __NVIC_PRIO_BITS); /* Invalid PRIO */
  73:../../Drivers/STM32H7xx_HAL_Driver/Src/stm32h7xx_hal.c **** HAL_TickFreqTypeDef uwTickFreq = HAL_TICK_FREQ_DEFAULT;  /* 1KHz */
  74:../../Drivers/STM32H7xx_HAL_Driver/Src/stm32h7xx_hal.c **** /**
  75:../../Drivers/STM32H7xx_HAL_Driver/Src/stm32h7xx_hal.c ****   * @}
  76:../../Drivers/STM32H7xx_HAL_Driver/Src/stm32h7xx_hal.c ****   */
  77:../../Drivers/STM32H7xx_HAL_Driver/Src/stm32h7xx_hal.c **** 
  78:../../Drivers/STM32H7xx_HAL_Driver/Src/stm32h7xx_hal.c **** /* Private function prototypes -----------------------------------------------*/
  79:../../Drivers/STM32H7xx_HAL_Driver/Src/stm32h7xx_hal.c **** /* Private functions ---------------------------------------------------------*/
  80:../../Drivers/STM32H7xx_HAL_Driver/Src/stm32h7xx_hal.c **** 
  81:../../Drivers/STM32H7xx_HAL_Driver/Src/stm32h7xx_hal.c **** /** @addtogroup HAL_Exported_Functions
  82:../../Drivers/STM32H7xx_HAL_Driver/Src/stm32h7xx_hal.c ****   * @{
  83:../../Drivers/STM32H7xx_HAL_Driver/Src/stm32h7xx_hal.c ****   */
  84:../../Drivers/STM32H7xx_HAL_Driver/Src/stm32h7xx_hal.c **** 
  85:../../Drivers/STM32H7xx_HAL_Driver/Src/stm32h7xx_hal.c **** /** @addtogroup HAL_Group1
  86:../../Drivers/STM32H7xx_HAL_Driver/Src/stm32h7xx_hal.c ****  *  @brief    Initialization and de-initialization functions
  87:../../Drivers/STM32H7xx_HAL_Driver/Src/stm32h7xx_hal.c ****  *
ARM GAS  /tmp/ccoUsChM.s 			page 3


  88:../../Drivers/STM32H7xx_HAL_Driver/Src/stm32h7xx_hal.c **** @verbatim
  89:../../Drivers/STM32H7xx_HAL_Driver/Src/stm32h7xx_hal.c ****  ===============================================================================
  90:../../Drivers/STM32H7xx_HAL_Driver/Src/stm32h7xx_hal.c ****               ##### Initialization and de-initialization functions #####
  91:../../Drivers/STM32H7xx_HAL_Driver/Src/stm32h7xx_hal.c ****  ===============================================================================
  92:../../Drivers/STM32H7xx_HAL_Driver/Src/stm32h7xx_hal.c ****     [..]  This section provides functions allowing to:
  93:../../Drivers/STM32H7xx_HAL_Driver/Src/stm32h7xx_hal.c ****       (+) Initializes the Flash interface the NVIC allocation and initial clock
  94:../../Drivers/STM32H7xx_HAL_Driver/Src/stm32h7xx_hal.c ****           configuration. It initializes the systick also when timeout is needed
  95:../../Drivers/STM32H7xx_HAL_Driver/Src/stm32h7xx_hal.c ****           and the backup domain when enabled.
  96:../../Drivers/STM32H7xx_HAL_Driver/Src/stm32h7xx_hal.c ****       (+) De-Initializes common part of the HAL.
  97:../../Drivers/STM32H7xx_HAL_Driver/Src/stm32h7xx_hal.c ****       (+) Configure The time base source to have 1ms time base with a dedicated
  98:../../Drivers/STM32H7xx_HAL_Driver/Src/stm32h7xx_hal.c ****           Tick interrupt priority.
  99:../../Drivers/STM32H7xx_HAL_Driver/Src/stm32h7xx_hal.c ****         (++) SysTick timer is used by default as source of time base, but user
 100:../../Drivers/STM32H7xx_HAL_Driver/Src/stm32h7xx_hal.c ****              can eventually implement his proper time base source (a general purpose
 101:../../Drivers/STM32H7xx_HAL_Driver/Src/stm32h7xx_hal.c ****              timer for example or other time source), keeping in mind that Time base
 102:../../Drivers/STM32H7xx_HAL_Driver/Src/stm32h7xx_hal.c ****              duration should be kept 1ms since PPP_TIMEOUT_VALUEs are defined and
 103:../../Drivers/STM32H7xx_HAL_Driver/Src/stm32h7xx_hal.c ****              handled in milliseconds basis.
 104:../../Drivers/STM32H7xx_HAL_Driver/Src/stm32h7xx_hal.c ****         (++) Time base configuration function (HAL_InitTick ()) is called automatically
 105:../../Drivers/STM32H7xx_HAL_Driver/Src/stm32h7xx_hal.c ****              at the beginning of the program after reset by HAL_Init() or at any time
 106:../../Drivers/STM32H7xx_HAL_Driver/Src/stm32h7xx_hal.c ****              when clock is configured, by HAL_RCC_ClockConfig().
 107:../../Drivers/STM32H7xx_HAL_Driver/Src/stm32h7xx_hal.c ****         (++) Source of time base is configured  to generate interrupts at regular
 108:../../Drivers/STM32H7xx_HAL_Driver/Src/stm32h7xx_hal.c ****              time intervals. Care must be taken if HAL_Delay() is called from a
 109:../../Drivers/STM32H7xx_HAL_Driver/Src/stm32h7xx_hal.c ****              peripheral ISR process, the Tick interrupt line must have higher priority
 110:../../Drivers/STM32H7xx_HAL_Driver/Src/stm32h7xx_hal.c ****             (numerically lower) than the peripheral interrupt. Otherwise the caller
 111:../../Drivers/STM32H7xx_HAL_Driver/Src/stm32h7xx_hal.c ****             ISR process will be blocked.
 112:../../Drivers/STM32H7xx_HAL_Driver/Src/stm32h7xx_hal.c ****        (++) functions affecting time base configurations are declared as __weak
 113:../../Drivers/STM32H7xx_HAL_Driver/Src/stm32h7xx_hal.c ****              to make  override possible  in case of other  implementations in user file.
 114:../../Drivers/STM32H7xx_HAL_Driver/Src/stm32h7xx_hal.c **** @endverbatim
 115:../../Drivers/STM32H7xx_HAL_Driver/Src/stm32h7xx_hal.c ****   * @{
 116:../../Drivers/STM32H7xx_HAL_Driver/Src/stm32h7xx_hal.c ****   */
 117:../../Drivers/STM32H7xx_HAL_Driver/Src/stm32h7xx_hal.c **** 
 118:../../Drivers/STM32H7xx_HAL_Driver/Src/stm32h7xx_hal.c **** /**
 119:../../Drivers/STM32H7xx_HAL_Driver/Src/stm32h7xx_hal.c ****   * @brief  This function is used to initialize the HAL Library; it must be the first
 120:../../Drivers/STM32H7xx_HAL_Driver/Src/stm32h7xx_hal.c ****   *         instruction to be executed in the main program (before to call any other
 121:../../Drivers/STM32H7xx_HAL_Driver/Src/stm32h7xx_hal.c ****   *         HAL function), it performs the following:
 122:../../Drivers/STM32H7xx_HAL_Driver/Src/stm32h7xx_hal.c ****   *           Configures the SysTick to generate an interrupt each 1 millisecond,
 123:../../Drivers/STM32H7xx_HAL_Driver/Src/stm32h7xx_hal.c ****   *           which is clocked by the HSI (at this stage, the clock is not yet
 124:../../Drivers/STM32H7xx_HAL_Driver/Src/stm32h7xx_hal.c ****   *           configured and thus the system is running from the internal HSI at 16 MHz).
 125:../../Drivers/STM32H7xx_HAL_Driver/Src/stm32h7xx_hal.c ****   *           Set NVIC Group Priority to 4.
 126:../../Drivers/STM32H7xx_HAL_Driver/Src/stm32h7xx_hal.c ****   *           Calls the HAL_MspInit() callback function defined in user file
 127:../../Drivers/STM32H7xx_HAL_Driver/Src/stm32h7xx_hal.c ****   *           "stm32h7xx_hal_msp.c" to do the global low level hardware initialization
 128:../../Drivers/STM32H7xx_HAL_Driver/Src/stm32h7xx_hal.c ****   *
 129:../../Drivers/STM32H7xx_HAL_Driver/Src/stm32h7xx_hal.c ****   * @note   SysTick is used as time base for the HAL_Delay() function, the application
 130:../../Drivers/STM32H7xx_HAL_Driver/Src/stm32h7xx_hal.c ****   *         need to ensure that the SysTick time base is always set to 1 millisecond
 131:../../Drivers/STM32H7xx_HAL_Driver/Src/stm32h7xx_hal.c ****   *         to have correct HAL operation.
 132:../../Drivers/STM32H7xx_HAL_Driver/Src/stm32h7xx_hal.c ****   * @retval HAL status
 133:../../Drivers/STM32H7xx_HAL_Driver/Src/stm32h7xx_hal.c ****   */
 134:../../Drivers/STM32H7xx_HAL_Driver/Src/stm32h7xx_hal.c **** HAL_StatusTypeDef HAL_Init(void)
 135:../../Drivers/STM32H7xx_HAL_Driver/Src/stm32h7xx_hal.c **** {
 136:../../Drivers/STM32H7xx_HAL_Driver/Src/stm32h7xx_hal.c **** 
 137:../../Drivers/STM32H7xx_HAL_Driver/Src/stm32h7xx_hal.c **** uint32_t common_system_clock;
 138:../../Drivers/STM32H7xx_HAL_Driver/Src/stm32h7xx_hal.c **** 
 139:../../Drivers/STM32H7xx_HAL_Driver/Src/stm32h7xx_hal.c **** #if defined(DUAL_CORE) && defined(CORE_CM4)
 140:../../Drivers/STM32H7xx_HAL_Driver/Src/stm32h7xx_hal.c ****    /* Configure Cortex-M4 Instruction cache through ART accelerator */
 141:../../Drivers/STM32H7xx_HAL_Driver/Src/stm32h7xx_hal.c ****    __HAL_RCC_ART_CLK_ENABLE();                   /* Enable the Cortex-M4 ART Clock */
 142:../../Drivers/STM32H7xx_HAL_Driver/Src/stm32h7xx_hal.c ****    __HAL_ART_CONFIG_BASE_ADDRESS(0x08100000UL);  /* Configure the Cortex-M4 ART Base address to the
 143:../../Drivers/STM32H7xx_HAL_Driver/Src/stm32h7xx_hal.c ****    __HAL_ART_ENABLE();                           /* Enable the Cortex-M4 ART */
 144:../../Drivers/STM32H7xx_HAL_Driver/Src/stm32h7xx_hal.c **** #endif /* DUAL_CORE &&  CORE_CM4 */
ARM GAS  /tmp/ccoUsChM.s 			page 4


 145:../../Drivers/STM32H7xx_HAL_Driver/Src/stm32h7xx_hal.c **** 
 146:../../Drivers/STM32H7xx_HAL_Driver/Src/stm32h7xx_hal.c ****   /* Set Interrupt Group Priority */
 147:../../Drivers/STM32H7xx_HAL_Driver/Src/stm32h7xx_hal.c ****   HAL_NVIC_SetPriorityGrouping(NVIC_PRIORITYGROUP_4);
 148:../../Drivers/STM32H7xx_HAL_Driver/Src/stm32h7xx_hal.c **** 
 149:../../Drivers/STM32H7xx_HAL_Driver/Src/stm32h7xx_hal.c ****   /* Update the SystemCoreClock global variable */
 150:../../Drivers/STM32H7xx_HAL_Driver/Src/stm32h7xx_hal.c **** #if defined(RCC_D1CFGR_D1CPRE)
 151:../../Drivers/STM32H7xx_HAL_Driver/Src/stm32h7xx_hal.c ****   common_system_clock = HAL_RCC_GetSysClockFreq() >> ((D1CorePrescTable[(RCC->D1CFGR & RCC_D1CFGR_D
 152:../../Drivers/STM32H7xx_HAL_Driver/Src/stm32h7xx_hal.c **** #else
 153:../../Drivers/STM32H7xx_HAL_Driver/Src/stm32h7xx_hal.c ****   common_system_clock = HAL_RCC_GetSysClockFreq() >> ((D1CorePrescTable[(RCC->CDCFGR1 & RCC_CDCFGR1
 154:../../Drivers/STM32H7xx_HAL_Driver/Src/stm32h7xx_hal.c **** #endif
 155:../../Drivers/STM32H7xx_HAL_Driver/Src/stm32h7xx_hal.c **** 
 156:../../Drivers/STM32H7xx_HAL_Driver/Src/stm32h7xx_hal.c ****   /* Update the SystemD2Clock global variable */
 157:../../Drivers/STM32H7xx_HAL_Driver/Src/stm32h7xx_hal.c **** #if defined(RCC_D1CFGR_HPRE)
 158:../../Drivers/STM32H7xx_HAL_Driver/Src/stm32h7xx_hal.c ****   SystemD2Clock = (common_system_clock >> ((D1CorePrescTable[(RCC->D1CFGR & RCC_D1CFGR_HPRE)>> RCC_
 159:../../Drivers/STM32H7xx_HAL_Driver/Src/stm32h7xx_hal.c **** #else
 160:../../Drivers/STM32H7xx_HAL_Driver/Src/stm32h7xx_hal.c ****   SystemD2Clock = (common_system_clock >> ((D1CorePrescTable[(RCC->CDCFGR1 & RCC_CDCFGR1_HPRE)>> RC
 161:../../Drivers/STM32H7xx_HAL_Driver/Src/stm32h7xx_hal.c **** #endif
 162:../../Drivers/STM32H7xx_HAL_Driver/Src/stm32h7xx_hal.c **** 
 163:../../Drivers/STM32H7xx_HAL_Driver/Src/stm32h7xx_hal.c **** #if defined(DUAL_CORE) && defined(CORE_CM4)
 164:../../Drivers/STM32H7xx_HAL_Driver/Src/stm32h7xx_hal.c ****   SystemCoreClock = SystemD2Clock;
 165:../../Drivers/STM32H7xx_HAL_Driver/Src/stm32h7xx_hal.c **** #else
 166:../../Drivers/STM32H7xx_HAL_Driver/Src/stm32h7xx_hal.c ****   SystemCoreClock = common_system_clock;
 167:../../Drivers/STM32H7xx_HAL_Driver/Src/stm32h7xx_hal.c **** #endif /* DUAL_CORE && CORE_CM4 */
 168:../../Drivers/STM32H7xx_HAL_Driver/Src/stm32h7xx_hal.c **** 
 169:../../Drivers/STM32H7xx_HAL_Driver/Src/stm32h7xx_hal.c ****   /* Use systick as time base source and configure 1ms tick (default clock after Reset is HSI) */
 170:../../Drivers/STM32H7xx_HAL_Driver/Src/stm32h7xx_hal.c ****   if(HAL_InitTick(TICK_INT_PRIORITY) != HAL_OK)
 171:../../Drivers/STM32H7xx_HAL_Driver/Src/stm32h7xx_hal.c ****   {
 172:../../Drivers/STM32H7xx_HAL_Driver/Src/stm32h7xx_hal.c ****     return HAL_ERROR;
 173:../../Drivers/STM32H7xx_HAL_Driver/Src/stm32h7xx_hal.c ****   }
 174:../../Drivers/STM32H7xx_HAL_Driver/Src/stm32h7xx_hal.c **** 
 175:../../Drivers/STM32H7xx_HAL_Driver/Src/stm32h7xx_hal.c ****   /* Init the low level hardware */
 176:../../Drivers/STM32H7xx_HAL_Driver/Src/stm32h7xx_hal.c ****   HAL_MspInit();
 177:../../Drivers/STM32H7xx_HAL_Driver/Src/stm32h7xx_hal.c **** 
 178:../../Drivers/STM32H7xx_HAL_Driver/Src/stm32h7xx_hal.c ****   /* Return function status */
 179:../../Drivers/STM32H7xx_HAL_Driver/Src/stm32h7xx_hal.c ****   return HAL_OK;
 180:../../Drivers/STM32H7xx_HAL_Driver/Src/stm32h7xx_hal.c **** }
 181:../../Drivers/STM32H7xx_HAL_Driver/Src/stm32h7xx_hal.c **** 
 182:../../Drivers/STM32H7xx_HAL_Driver/Src/stm32h7xx_hal.c **** /**
 183:../../Drivers/STM32H7xx_HAL_Driver/Src/stm32h7xx_hal.c ****   * @brief  This function de-Initializes common part of the HAL and stops the systick.
 184:../../Drivers/STM32H7xx_HAL_Driver/Src/stm32h7xx_hal.c ****   *         This function is optional.
 185:../../Drivers/STM32H7xx_HAL_Driver/Src/stm32h7xx_hal.c ****   * @retval HAL status
 186:../../Drivers/STM32H7xx_HAL_Driver/Src/stm32h7xx_hal.c ****   */
 187:../../Drivers/STM32H7xx_HAL_Driver/Src/stm32h7xx_hal.c **** HAL_StatusTypeDef HAL_DeInit(void)
 188:../../Drivers/STM32H7xx_HAL_Driver/Src/stm32h7xx_hal.c **** {
 189:../../Drivers/STM32H7xx_HAL_Driver/Src/stm32h7xx_hal.c ****   /* Reset of all peripherals */
 190:../../Drivers/STM32H7xx_HAL_Driver/Src/stm32h7xx_hal.c ****   __HAL_RCC_AHB3_FORCE_RESET();
 191:../../Drivers/STM32H7xx_HAL_Driver/Src/stm32h7xx_hal.c ****   __HAL_RCC_AHB3_RELEASE_RESET();
 192:../../Drivers/STM32H7xx_HAL_Driver/Src/stm32h7xx_hal.c **** 
 193:../../Drivers/STM32H7xx_HAL_Driver/Src/stm32h7xx_hal.c ****   __HAL_RCC_AHB1_FORCE_RESET();
 194:../../Drivers/STM32H7xx_HAL_Driver/Src/stm32h7xx_hal.c ****   __HAL_RCC_AHB1_RELEASE_RESET();
 195:../../Drivers/STM32H7xx_HAL_Driver/Src/stm32h7xx_hal.c **** 
 196:../../Drivers/STM32H7xx_HAL_Driver/Src/stm32h7xx_hal.c ****   __HAL_RCC_AHB2_FORCE_RESET();
 197:../../Drivers/STM32H7xx_HAL_Driver/Src/stm32h7xx_hal.c ****   __HAL_RCC_AHB2_RELEASE_RESET();
 198:../../Drivers/STM32H7xx_HAL_Driver/Src/stm32h7xx_hal.c **** 
 199:../../Drivers/STM32H7xx_HAL_Driver/Src/stm32h7xx_hal.c ****   __HAL_RCC_AHB4_FORCE_RESET();
 200:../../Drivers/STM32H7xx_HAL_Driver/Src/stm32h7xx_hal.c ****  __HAL_RCC_AHB4_RELEASE_RESET();
 201:../../Drivers/STM32H7xx_HAL_Driver/Src/stm32h7xx_hal.c **** 
ARM GAS  /tmp/ccoUsChM.s 			page 5


 202:../../Drivers/STM32H7xx_HAL_Driver/Src/stm32h7xx_hal.c ****   __HAL_RCC_APB3_FORCE_RESET();
 203:../../Drivers/STM32H7xx_HAL_Driver/Src/stm32h7xx_hal.c ****   __HAL_RCC_APB3_RELEASE_RESET();
 204:../../Drivers/STM32H7xx_HAL_Driver/Src/stm32h7xx_hal.c **** 
 205:../../Drivers/STM32H7xx_HAL_Driver/Src/stm32h7xx_hal.c ****   __HAL_RCC_APB1L_FORCE_RESET();
 206:../../Drivers/STM32H7xx_HAL_Driver/Src/stm32h7xx_hal.c ****   __HAL_RCC_APB1L_RELEASE_RESET();
 207:../../Drivers/STM32H7xx_HAL_Driver/Src/stm32h7xx_hal.c **** 
 208:../../Drivers/STM32H7xx_HAL_Driver/Src/stm32h7xx_hal.c ****   __HAL_RCC_APB1H_FORCE_RESET();
 209:../../Drivers/STM32H7xx_HAL_Driver/Src/stm32h7xx_hal.c ****   __HAL_RCC_APB1H_RELEASE_RESET();
 210:../../Drivers/STM32H7xx_HAL_Driver/Src/stm32h7xx_hal.c **** 
 211:../../Drivers/STM32H7xx_HAL_Driver/Src/stm32h7xx_hal.c ****    __HAL_RCC_APB2_FORCE_RESET();
 212:../../Drivers/STM32H7xx_HAL_Driver/Src/stm32h7xx_hal.c ****    __HAL_RCC_APB2_RELEASE_RESET();
 213:../../Drivers/STM32H7xx_HAL_Driver/Src/stm32h7xx_hal.c **** 
 214:../../Drivers/STM32H7xx_HAL_Driver/Src/stm32h7xx_hal.c ****   __HAL_RCC_APB4_FORCE_RESET();
 215:../../Drivers/STM32H7xx_HAL_Driver/Src/stm32h7xx_hal.c ****   __HAL_RCC_APB4_RELEASE_RESET();
 216:../../Drivers/STM32H7xx_HAL_Driver/Src/stm32h7xx_hal.c **** 
 217:../../Drivers/STM32H7xx_HAL_Driver/Src/stm32h7xx_hal.c ****   /* De-Init the low level hardware */
 218:../../Drivers/STM32H7xx_HAL_Driver/Src/stm32h7xx_hal.c ****   HAL_MspDeInit();
 219:../../Drivers/STM32H7xx_HAL_Driver/Src/stm32h7xx_hal.c **** 
 220:../../Drivers/STM32H7xx_HAL_Driver/Src/stm32h7xx_hal.c ****   /* Return function status */
 221:../../Drivers/STM32H7xx_HAL_Driver/Src/stm32h7xx_hal.c ****   return HAL_OK;
 222:../../Drivers/STM32H7xx_HAL_Driver/Src/stm32h7xx_hal.c **** }
 223:../../Drivers/STM32H7xx_HAL_Driver/Src/stm32h7xx_hal.c **** 
 224:../../Drivers/STM32H7xx_HAL_Driver/Src/stm32h7xx_hal.c **** /**
 225:../../Drivers/STM32H7xx_HAL_Driver/Src/stm32h7xx_hal.c ****   * @brief  Initializes the MSP.
 226:../../Drivers/STM32H7xx_HAL_Driver/Src/stm32h7xx_hal.c ****   * @retval None
 227:../../Drivers/STM32H7xx_HAL_Driver/Src/stm32h7xx_hal.c ****   */
 228:../../Drivers/STM32H7xx_HAL_Driver/Src/stm32h7xx_hal.c **** __weak void HAL_MspInit(void)
 229:../../Drivers/STM32H7xx_HAL_Driver/Src/stm32h7xx_hal.c **** {
  29              		.loc 1 229 1 view -0
  30              		.cfi_startproc
  31              		@ args = 0, pretend = 0, frame = 0
  32              		@ frame_needed = 0, uses_anonymous_args = 0
  33              		@ link register save eliminated.
 230:../../Drivers/STM32H7xx_HAL_Driver/Src/stm32h7xx_hal.c ****   /* NOTE : This function Should not be modified, when the callback is needed,
 231:../../Drivers/STM32H7xx_HAL_Driver/Src/stm32h7xx_hal.c ****             the HAL_MspInit could be implemented in the user file
 232:../../Drivers/STM32H7xx_HAL_Driver/Src/stm32h7xx_hal.c ****    */
 233:../../Drivers/STM32H7xx_HAL_Driver/Src/stm32h7xx_hal.c **** }
  34              		.loc 1 233 1 view .LVU1
  35 0000 7047     		bx	lr
  36              		.cfi_endproc
  37              	.LFE134:
  39              		.section	.text.HAL_MspDeInit,"ax",%progbits
  40              		.align	1
  41              		.weak	HAL_MspDeInit
  42              		.syntax unified
  43              		.thumb
  44              		.thumb_func
  45              		.fpu fpv4-sp-d16
  47              	HAL_MspDeInit:
  48              	.LFB135:
 234:../../Drivers/STM32H7xx_HAL_Driver/Src/stm32h7xx_hal.c **** 
 235:../../Drivers/STM32H7xx_HAL_Driver/Src/stm32h7xx_hal.c **** /**
 236:../../Drivers/STM32H7xx_HAL_Driver/Src/stm32h7xx_hal.c ****   * @brief  DeInitializes the MSP.
 237:../../Drivers/STM32H7xx_HAL_Driver/Src/stm32h7xx_hal.c ****   * @retval None
 238:../../Drivers/STM32H7xx_HAL_Driver/Src/stm32h7xx_hal.c ****   */
 239:../../Drivers/STM32H7xx_HAL_Driver/Src/stm32h7xx_hal.c **** __weak void HAL_MspDeInit(void)
 240:../../Drivers/STM32H7xx_HAL_Driver/Src/stm32h7xx_hal.c **** {
ARM GAS  /tmp/ccoUsChM.s 			page 6


  49              		.loc 1 240 1 view -0
  50              		.cfi_startproc
  51              		@ args = 0, pretend = 0, frame = 0
  52              		@ frame_needed = 0, uses_anonymous_args = 0
  53              		@ link register save eliminated.
 241:../../Drivers/STM32H7xx_HAL_Driver/Src/stm32h7xx_hal.c ****   /* NOTE : This function Should not be modified, when the callback is needed,
 242:../../Drivers/STM32H7xx_HAL_Driver/Src/stm32h7xx_hal.c ****             the HAL_MspDeInit could be implemented in the user file
 243:../../Drivers/STM32H7xx_HAL_Driver/Src/stm32h7xx_hal.c ****    */
 244:../../Drivers/STM32H7xx_HAL_Driver/Src/stm32h7xx_hal.c **** }
  54              		.loc 1 244 1 view .LVU3
  55 0000 7047     		bx	lr
  56              		.cfi_endproc
  57              	.LFE135:
  59              		.section	.text.HAL_DeInit,"ax",%progbits
  60              		.align	1
  61              		.global	HAL_DeInit
  62              		.syntax unified
  63              		.thumb
  64              		.thumb_func
  65              		.fpu fpv4-sp-d16
  67              	HAL_DeInit:
  68              	.LFB133:
 188:../../Drivers/STM32H7xx_HAL_Driver/Src/stm32h7xx_hal.c ****   /* Reset of all peripherals */
  69              		.loc 1 188 1 view -0
  70              		.cfi_startproc
  71              		@ args = 0, pretend = 0, frame = 0
  72              		@ frame_needed = 0, uses_anonymous_args = 0
  73 0000 10B5     		push	{r4, lr}
  74              	.LCFI0:
  75              		.cfi_def_cfa_offset 8
  76              		.cfi_offset 4, -8
  77              		.cfi_offset 14, -4
 190:../../Drivers/STM32H7xx_HAL_Driver/Src/stm32h7xx_hal.c ****   __HAL_RCC_AHB3_RELEASE_RESET();
  78              		.loc 1 190 3 view .LVU5
  79 0002 194B     		ldr	r3, .L5
  80 0004 194A     		ldr	r2, .L5+4
  81 0006 DA67     		str	r2, [r3, #124]
 191:../../Drivers/STM32H7xx_HAL_Driver/Src/stm32h7xx_hal.c **** 
  82              		.loc 1 191 3 view .LVU6
  83 0008 0024     		movs	r4, #0
  84 000a DC67     		str	r4, [r3, #124]
 193:../../Drivers/STM32H7xx_HAL_Driver/Src/stm32h7xx_hal.c ****   __HAL_RCC_AHB1_RELEASE_RESET();
  85              		.loc 1 193 3 view .LVU7
  86 000c 184A     		ldr	r2, .L5+8
  87 000e C3F88020 		str	r2, [r3, #128]
 194:../../Drivers/STM32H7xx_HAL_Driver/Src/stm32h7xx_hal.c **** 
  88              		.loc 1 194 3 view .LVU8
  89 0012 C3F88040 		str	r4, [r3, #128]
 196:../../Drivers/STM32H7xx_HAL_Driver/Src/stm32h7xx_hal.c ****   __HAL_RCC_AHB2_RELEASE_RESET();
  90              		.loc 1 196 3 view .LVU9
  91 0016 40F27122 		movw	r2, #625
  92 001a C3F88420 		str	r2, [r3, #132]
 197:../../Drivers/STM32H7xx_HAL_Driver/Src/stm32h7xx_hal.c **** 
  93              		.loc 1 197 3 view .LVU10
  94 001e C3F88440 		str	r4, [r3, #132]
 199:../../Drivers/STM32H7xx_HAL_Driver/Src/stm32h7xx_hal.c ****  __HAL_RCC_AHB4_RELEASE_RESET();
  95              		.loc 1 199 3 view .LVU11
ARM GAS  /tmp/ccoUsChM.s 			page 7


  96 0022 144A     		ldr	r2, .L5+12
  97 0024 C3F88820 		str	r2, [r3, #136]
 200:../../Drivers/STM32H7xx_HAL_Driver/Src/stm32h7xx_hal.c **** 
  98              		.loc 1 200 2 view .LVU12
  99 0028 C3F88840 		str	r4, [r3, #136]
 202:../../Drivers/STM32H7xx_HAL_Driver/Src/stm32h7xx_hal.c ****   __HAL_RCC_APB3_RELEASE_RESET();
 100              		.loc 1 202 3 view .LVU13
 101 002c 1822     		movs	r2, #24
 102 002e C3F88C20 		str	r2, [r3, #140]
 203:../../Drivers/STM32H7xx_HAL_Driver/Src/stm32h7xx_hal.c **** 
 103              		.loc 1 203 3 view .LVU14
 104 0032 C3F88C40 		str	r4, [r3, #140]
 205:../../Drivers/STM32H7xx_HAL_Driver/Src/stm32h7xx_hal.c ****   __HAL_RCC_APB1L_RELEASE_RESET();
 105              		.loc 1 205 3 view .LVU15
 106 0036 104A     		ldr	r2, .L5+16
 107 0038 C3F89020 		str	r2, [r3, #144]
 206:../../Drivers/STM32H7xx_HAL_Driver/Src/stm32h7xx_hal.c **** 
 108              		.loc 1 206 3 view .LVU16
 109 003c C3F89040 		str	r4, [r3, #144]
 208:../../Drivers/STM32H7xx_HAL_Driver/Src/stm32h7xx_hal.c ****   __HAL_RCC_APB1H_RELEASE_RESET();
 110              		.loc 1 208 3 view .LVU17
 111 0040 4FF49B72 		mov	r2, #310
 112 0044 C3F89420 		str	r2, [r3, #148]
 209:../../Drivers/STM32H7xx_HAL_Driver/Src/stm32h7xx_hal.c **** 
 113              		.loc 1 209 3 view .LVU18
 114 0048 C3F89440 		str	r4, [r3, #148]
 211:../../Drivers/STM32H7xx_HAL_Driver/Src/stm32h7xx_hal.c ****    __HAL_RCC_APB2_RELEASE_RESET();
 115              		.loc 1 211 4 view .LVU19
 116 004c 0B4A     		ldr	r2, .L5+20
 117 004e C3F89820 		str	r2, [r3, #152]
 212:../../Drivers/STM32H7xx_HAL_Driver/Src/stm32h7xx_hal.c **** 
 118              		.loc 1 212 4 view .LVU20
 119 0052 C3F89840 		str	r4, [r3, #152]
 214:../../Drivers/STM32H7xx_HAL_Driver/Src/stm32h7xx_hal.c ****   __HAL_RCC_APB4_RELEASE_RESET();
 120              		.loc 1 214 3 view .LVU21
 121 0056 0A4A     		ldr	r2, .L5+24
 122 0058 C3F89C20 		str	r2, [r3, #156]
 215:../../Drivers/STM32H7xx_HAL_Driver/Src/stm32h7xx_hal.c **** 
 123              		.loc 1 215 3 view .LVU22
 124 005c C3F89C40 		str	r4, [r3, #156]
 218:../../Drivers/STM32H7xx_HAL_Driver/Src/stm32h7xx_hal.c **** 
 125              		.loc 1 218 3 view .LVU23
 126 0060 FFF7FEFF 		bl	HAL_MspDeInit
 127              	.LVL0:
 221:../../Drivers/STM32H7xx_HAL_Driver/Src/stm32h7xx_hal.c **** }
 128              		.loc 1 221 3 view .LVU24
 222:../../Drivers/STM32H7xx_HAL_Driver/Src/stm32h7xx_hal.c **** 
 129              		.loc 1 222 1 is_stmt 0 view .LVU25
 130 0064 2046     		mov	r0, r4
 131 0066 10BD     		pop	{r4, pc}
 132              	.L6:
 133              		.align	2
 134              	.L5:
 135 0068 00440258 		.word	1476543488
 136 006c 31500100 		.word	86065
 137 0070 23C0000A 		.word	167821347
 138 0074 FF072803 		.word	52955135
ARM GAS  /tmp/ccoUsChM.s 			page 8


 139 0078 FFC3FFE8 		.word	-385891329
 140 007c 3330D731 		.word	836186163
 141 0080 AADE2000 		.word	2154154
 142              		.cfi_endproc
 143              	.LFE133:
 145              		.section	.text.HAL_InitTick,"ax",%progbits
 146              		.align	1
 147              		.weak	HAL_InitTick
 148              		.syntax unified
 149              		.thumb
 150              		.thumb_func
 151              		.fpu fpv4-sp-d16
 153              	HAL_InitTick:
 154              	.LVL1:
 155              	.LFB136:
 245:../../Drivers/STM32H7xx_HAL_Driver/Src/stm32h7xx_hal.c **** 
 246:../../Drivers/STM32H7xx_HAL_Driver/Src/stm32h7xx_hal.c **** /**
 247:../../Drivers/STM32H7xx_HAL_Driver/Src/stm32h7xx_hal.c ****   * @brief This function configures the source of the time base.
 248:../../Drivers/STM32H7xx_HAL_Driver/Src/stm32h7xx_hal.c ****   *        The time source is configured  to have 1ms time base with a dedicated
 249:../../Drivers/STM32H7xx_HAL_Driver/Src/stm32h7xx_hal.c ****   *        Tick interrupt priority.
 250:../../Drivers/STM32H7xx_HAL_Driver/Src/stm32h7xx_hal.c ****   * @note This function is called  automatically at the beginning of program after
 251:../../Drivers/STM32H7xx_HAL_Driver/Src/stm32h7xx_hal.c ****   *       reset by HAL_Init() or at any time when clock is reconfigured  by HAL_RCC_ClockConfig().
 252:../../Drivers/STM32H7xx_HAL_Driver/Src/stm32h7xx_hal.c ****   * @note In the default implementation, SysTick timer is the source of time base.
 253:../../Drivers/STM32H7xx_HAL_Driver/Src/stm32h7xx_hal.c ****   *       It is used to generate interrupts at regular time intervals.
 254:../../Drivers/STM32H7xx_HAL_Driver/Src/stm32h7xx_hal.c ****   *       Care must be taken if HAL_Delay() is called from a peripheral ISR process,
 255:../../Drivers/STM32H7xx_HAL_Driver/Src/stm32h7xx_hal.c ****   *       the SysTick interrupt must have higher priority (numerically lower)
 256:../../Drivers/STM32H7xx_HAL_Driver/Src/stm32h7xx_hal.c ****   *       than the peripheral interrupt. Otherwise the caller ISR process will be blocked.
 257:../../Drivers/STM32H7xx_HAL_Driver/Src/stm32h7xx_hal.c ****   *       The function is declared as __weak  to be overwritten  in case of other
 258:../../Drivers/STM32H7xx_HAL_Driver/Src/stm32h7xx_hal.c ****   *       implementation  in user file.
 259:../../Drivers/STM32H7xx_HAL_Driver/Src/stm32h7xx_hal.c ****   * @param TickPriority: Tick interrupt priority.
 260:../../Drivers/STM32H7xx_HAL_Driver/Src/stm32h7xx_hal.c ****   * @retval HAL status
 261:../../Drivers/STM32H7xx_HAL_Driver/Src/stm32h7xx_hal.c ****   */
 262:../../Drivers/STM32H7xx_HAL_Driver/Src/stm32h7xx_hal.c **** __weak HAL_StatusTypeDef HAL_InitTick(uint32_t TickPriority)
 263:../../Drivers/STM32H7xx_HAL_Driver/Src/stm32h7xx_hal.c **** {
 156              		.loc 1 263 1 is_stmt 1 view -0
 157              		.cfi_startproc
 158              		@ args = 0, pretend = 0, frame = 0
 159              		@ frame_needed = 0, uses_anonymous_args = 0
 264:../../Drivers/STM32H7xx_HAL_Driver/Src/stm32h7xx_hal.c ****   /* Check uwTickFreq for MisraC 2012 (even if uwTickFreq is a enum type that don't take the value 
 265:../../Drivers/STM32H7xx_HAL_Driver/Src/stm32h7xx_hal.c ****   if((uint32_t)uwTickFreq == 0UL)
 160              		.loc 1 265 3 view .LVU27
 161              		.loc 1 265 27 is_stmt 0 view .LVU28
 162 0000 104B     		ldr	r3, .L18
 163 0002 1B78     		ldrb	r3, [r3]	@ zero_extendqisi2
 164              		.loc 1 265 5 view .LVU29
 165 0004 0BB9     		cbnz	r3, .L16
 266:../../Drivers/STM32H7xx_HAL_Driver/Src/stm32h7xx_hal.c ****   {
 267:../../Drivers/STM32H7xx_HAL_Driver/Src/stm32h7xx_hal.c ****     return HAL_ERROR;
 166              		.loc 1 267 12 view .LVU30
 167 0006 0120     		movs	r0, #1
 168              	.LVL2:
 268:../../Drivers/STM32H7xx_HAL_Driver/Src/stm32h7xx_hal.c ****   }
 269:../../Drivers/STM32H7xx_HAL_Driver/Src/stm32h7xx_hal.c **** 
 270:../../Drivers/STM32H7xx_HAL_Driver/Src/stm32h7xx_hal.c ****     /* Configure the SysTick to have interrupt in 1ms time basis*/
 271:../../Drivers/STM32H7xx_HAL_Driver/Src/stm32h7xx_hal.c ****     if (HAL_SYSTICK_Config(SystemCoreClock / (1000UL / (uint32_t)uwTickFreq)) > 0U)
 272:../../Drivers/STM32H7xx_HAL_Driver/Src/stm32h7xx_hal.c ****     {
 273:../../Drivers/STM32H7xx_HAL_Driver/Src/stm32h7xx_hal.c ****       return HAL_ERROR;
ARM GAS  /tmp/ccoUsChM.s 			page 9


 274:../../Drivers/STM32H7xx_HAL_Driver/Src/stm32h7xx_hal.c ****     }
 275:../../Drivers/STM32H7xx_HAL_Driver/Src/stm32h7xx_hal.c **** 
 276:../../Drivers/STM32H7xx_HAL_Driver/Src/stm32h7xx_hal.c ****   /* Configure the SysTick IRQ priority */
 277:../../Drivers/STM32H7xx_HAL_Driver/Src/stm32h7xx_hal.c ****   if (TickPriority < (1UL << __NVIC_PRIO_BITS))
 278:../../Drivers/STM32H7xx_HAL_Driver/Src/stm32h7xx_hal.c ****   {
 279:../../Drivers/STM32H7xx_HAL_Driver/Src/stm32h7xx_hal.c ****     HAL_NVIC_SetPriority(SysTick_IRQn, TickPriority, 0U);
 280:../../Drivers/STM32H7xx_HAL_Driver/Src/stm32h7xx_hal.c ****     uwTickPrio = TickPriority;
 281:../../Drivers/STM32H7xx_HAL_Driver/Src/stm32h7xx_hal.c ****   }
 282:../../Drivers/STM32H7xx_HAL_Driver/Src/stm32h7xx_hal.c ****   else
 283:../../Drivers/STM32H7xx_HAL_Driver/Src/stm32h7xx_hal.c ****   {
 284:../../Drivers/STM32H7xx_HAL_Driver/Src/stm32h7xx_hal.c ****     return HAL_ERROR;
 285:../../Drivers/STM32H7xx_HAL_Driver/Src/stm32h7xx_hal.c ****   }
 286:../../Drivers/STM32H7xx_HAL_Driver/Src/stm32h7xx_hal.c **** 
 287:../../Drivers/STM32H7xx_HAL_Driver/Src/stm32h7xx_hal.c ****   /* Return function status */
 288:../../Drivers/STM32H7xx_HAL_Driver/Src/stm32h7xx_hal.c ****   return HAL_OK;
 289:../../Drivers/STM32H7xx_HAL_Driver/Src/stm32h7xx_hal.c **** }
 169              		.loc 1 289 1 view .LVU31
 170 0008 7047     		bx	lr
 171              	.LVL3:
 172              	.L16:
 263:../../Drivers/STM32H7xx_HAL_Driver/Src/stm32h7xx_hal.c ****   /* Check uwTickFreq for MisraC 2012 (even if uwTickFreq is a enum type that don't take the value 
 173              		.loc 1 263 1 view .LVU32
 174 000a 10B5     		push	{r4, lr}
 175              	.LCFI1:
 176              		.cfi_def_cfa_offset 8
 177              		.cfi_offset 4, -8
 178              		.cfi_offset 14, -4
 179 000c 0446     		mov	r4, r0
 271:../../Drivers/STM32H7xx_HAL_Driver/Src/stm32h7xx_hal.c ****     {
 180              		.loc 1 271 5 is_stmt 1 view .LVU33
 271:../../Drivers/STM32H7xx_HAL_Driver/Src/stm32h7xx_hal.c ****     {
 181              		.loc 1 271 54 is_stmt 0 view .LVU34
 182 000e 4FF47A70 		mov	r0, #1000
 183              	.LVL4:
 271:../../Drivers/STM32H7xx_HAL_Driver/Src/stm32h7xx_hal.c ****     {
 184              		.loc 1 271 54 view .LVU35
 185 0012 B0FBF3F3 		udiv	r3, r0, r3
 271:../../Drivers/STM32H7xx_HAL_Driver/Src/stm32h7xx_hal.c ****     {
 186              		.loc 1 271 9 view .LVU36
 187 0016 0C4A     		ldr	r2, .L18+4
 188 0018 1068     		ldr	r0, [r2]
 189 001a B0FBF3F0 		udiv	r0, r0, r3
 190 001e FFF7FEFF 		bl	HAL_SYSTICK_Config
 191              	.LVL5:
 271:../../Drivers/STM32H7xx_HAL_Driver/Src/stm32h7xx_hal.c ****     {
 192              		.loc 1 271 8 view .LVU37
 193 0022 68B9     		cbnz	r0, .L10
 277:../../Drivers/STM32H7xx_HAL_Driver/Src/stm32h7xx_hal.c ****   {
 194              		.loc 1 277 3 is_stmt 1 view .LVU38
 277:../../Drivers/STM32H7xx_HAL_Driver/Src/stm32h7xx_hal.c ****   {
 195              		.loc 1 277 6 is_stmt 0 view .LVU39
 196 0024 0F2C     		cmp	r4, #15
 197 0026 01D9     		bls	.L17
 284:../../Drivers/STM32H7xx_HAL_Driver/Src/stm32h7xx_hal.c ****   }
 198              		.loc 1 284 12 view .LVU40
 199 0028 0120     		movs	r0, #1
 200 002a 0AE0     		b	.L8
ARM GAS  /tmp/ccoUsChM.s 			page 10


 201              	.L17:
 279:../../Drivers/STM32H7xx_HAL_Driver/Src/stm32h7xx_hal.c ****     uwTickPrio = TickPriority;
 202              		.loc 1 279 5 is_stmt 1 view .LVU41
 203 002c 0022     		movs	r2, #0
 204 002e 2146     		mov	r1, r4
 205 0030 4FF0FF30 		mov	r0, #-1
 206 0034 FFF7FEFF 		bl	HAL_NVIC_SetPriority
 207              	.LVL6:
 280:../../Drivers/STM32H7xx_HAL_Driver/Src/stm32h7xx_hal.c ****   }
 208              		.loc 1 280 5 view .LVU42
 280:../../Drivers/STM32H7xx_HAL_Driver/Src/stm32h7xx_hal.c ****   }
 209              		.loc 1 280 16 is_stmt 0 view .LVU43
 210 0038 044B     		ldr	r3, .L18+8
 211 003a 1C60     		str	r4, [r3]
 288:../../Drivers/STM32H7xx_HAL_Driver/Src/stm32h7xx_hal.c **** }
 212              		.loc 1 288 3 is_stmt 1 view .LVU44
 288:../../Drivers/STM32H7xx_HAL_Driver/Src/stm32h7xx_hal.c **** }
 213              		.loc 1 288 10 is_stmt 0 view .LVU45
 214 003c 0020     		movs	r0, #0
 215 003e 00E0     		b	.L8
 216              	.L10:
 273:../../Drivers/STM32H7xx_HAL_Driver/Src/stm32h7xx_hal.c ****     }
 217              		.loc 1 273 14 view .LVU46
 218 0040 0120     		movs	r0, #1
 219              	.L8:
 220              		.loc 1 289 1 view .LVU47
 221 0042 10BD     		pop	{r4, pc}
 222              	.LVL7:
 223              	.L19:
 224              		.loc 1 289 1 view .LVU48
 225              		.align	2
 226              	.L18:
 227 0044 00000000 		.word	.LANCHOR0
 228 0048 00000000 		.word	SystemCoreClock
 229 004c 00000000 		.word	.LANCHOR1
 230              		.cfi_endproc
 231              	.LFE136:
 233              		.section	.text.HAL_Init,"ax",%progbits
 234              		.align	1
 235              		.global	HAL_Init
 236              		.syntax unified
 237              		.thumb
 238              		.thumb_func
 239              		.fpu fpv4-sp-d16
 241              	HAL_Init:
 242              	.LFB132:
 135:../../Drivers/STM32H7xx_HAL_Driver/Src/stm32h7xx_hal.c **** 
 243              		.loc 1 135 1 is_stmt 1 view -0
 244              		.cfi_startproc
 245              		@ args = 0, pretend = 0, frame = 8
 246              		@ frame_needed = 0, uses_anonymous_args = 0
 247 0000 10B5     		push	{r4, lr}
 248              	.LCFI2:
 249              		.cfi_def_cfa_offset 8
 250              		.cfi_offset 4, -8
 251              		.cfi_offset 14, -4
 252 0002 82B0     		sub	sp, sp, #8
ARM GAS  /tmp/ccoUsChM.s 			page 11


 253              	.LCFI3:
 254              		.cfi_def_cfa_offset 16
 137:../../Drivers/STM32H7xx_HAL_Driver/Src/stm32h7xx_hal.c **** 
 255              		.loc 1 137 1 view .LVU50
 141:../../Drivers/STM32H7xx_HAL_Driver/Src/stm32h7xx_hal.c ****    __HAL_ART_CONFIG_BASE_ADDRESS(0x08100000UL);  /* Configure the Cortex-M4 ART Base address to the
 256              		.loc 1 141 4 view .LVU51
 257              	.LBB2:
 141:../../Drivers/STM32H7xx_HAL_Driver/Src/stm32h7xx_hal.c ****    __HAL_ART_CONFIG_BASE_ADDRESS(0x08100000UL);  /* Configure the Cortex-M4 ART Base address to the
 258              		.loc 1 141 4 view .LVU52
 141:../../Drivers/STM32H7xx_HAL_Driver/Src/stm32h7xx_hal.c ****    __HAL_ART_CONFIG_BASE_ADDRESS(0x08100000UL);  /* Configure the Cortex-M4 ART Base address to the
 259              		.loc 1 141 4 view .LVU53
 260 0004 1D4C     		ldr	r4, .L25
 261 0006 D4F8D830 		ldr	r3, [r4, #216]
 262 000a 43F48043 		orr	r3, r3, #16384
 263 000e C4F8D830 		str	r3, [r4, #216]
 141:../../Drivers/STM32H7xx_HAL_Driver/Src/stm32h7xx_hal.c ****    __HAL_ART_CONFIG_BASE_ADDRESS(0x08100000UL);  /* Configure the Cortex-M4 ART Base address to the
 264              		.loc 1 141 4 view .LVU54
 265 0012 D4F8D830 		ldr	r3, [r4, #216]
 266 0016 03F48043 		and	r3, r3, #16384
 267 001a 0193     		str	r3, [sp, #4]
 141:../../Drivers/STM32H7xx_HAL_Driver/Src/stm32h7xx_hal.c ****    __HAL_ART_CONFIG_BASE_ADDRESS(0x08100000UL);  /* Configure the Cortex-M4 ART Base address to the
 268              		.loc 1 141 4 view .LVU55
 269 001c 019B     		ldr	r3, [sp, #4]
 270              	.LBE2:
 141:../../Drivers/STM32H7xx_HAL_Driver/Src/stm32h7xx_hal.c ****    __HAL_ART_CONFIG_BASE_ADDRESS(0x08100000UL);  /* Configure the Cortex-M4 ART Base address to the
 271              		.loc 1 141 4 view .LVU56
 142:../../Drivers/STM32H7xx_HAL_Driver/Src/stm32h7xx_hal.c ****    __HAL_ART_ENABLE();                           /* Enable the Cortex-M4 ART */
 272              		.loc 1 142 4 view .LVU57
 273 001e 184A     		ldr	r2, .L25+4
 274 0020 1168     		ldr	r1, [r2]
 275 0022 184B     		ldr	r3, .L25+8
 276 0024 0B40     		ands	r3, r3, r1
 277 0026 43F40143 		orr	r3, r3, #33024
 278 002a 1360     		str	r3, [r2]
 143:../../Drivers/STM32H7xx_HAL_Driver/Src/stm32h7xx_hal.c **** #endif /* DUAL_CORE &&  CORE_CM4 */
 279              		.loc 1 143 4 view .LVU58
 280 002c 1368     		ldr	r3, [r2]
 281 002e 43F00103 		orr	r3, r3, #1
 282 0032 1360     		str	r3, [r2]
 147:../../Drivers/STM32H7xx_HAL_Driver/Src/stm32h7xx_hal.c **** 
 283              		.loc 1 147 3 view .LVU59
 284 0034 0320     		movs	r0, #3
 285 0036 FFF7FEFF 		bl	HAL_NVIC_SetPriorityGrouping
 286              	.LVL8:
 151:../../Drivers/STM32H7xx_HAL_Driver/Src/stm32h7xx_hal.c **** #else
 287              		.loc 1 151 3 view .LVU60
 151:../../Drivers/STM32H7xx_HAL_Driver/Src/stm32h7xx_hal.c **** #else
 288              		.loc 1 151 25 is_stmt 0 view .LVU61
 289 003a FFF7FEFF 		bl	HAL_RCC_GetSysClockFreq
 290              	.LVL9:
 151:../../Drivers/STM32H7xx_HAL_Driver/Src/stm32h7xx_hal.c **** #else
 291              		.loc 1 151 77 view .LVU62
 292 003e A369     		ldr	r3, [r4, #24]
 151:../../Drivers/STM32H7xx_HAL_Driver/Src/stm32h7xx_hal.c **** #else
 293              		.loc 1 151 106 view .LVU63
 294 0040 C3F30323 		ubfx	r3, r3, #8, #4
 151:../../Drivers/STM32H7xx_HAL_Driver/Src/stm32h7xx_hal.c **** #else
ARM GAS  /tmp/ccoUsChM.s 			page 12


 295              		.loc 1 151 72 view .LVU64
 296 0044 104A     		ldr	r2, .L25+12
 297 0046 D35C     		ldrb	r3, [r2, r3]	@ zero_extendqisi2
 151:../../Drivers/STM32H7xx_HAL_Driver/Src/stm32h7xx_hal.c **** #else
 298              		.loc 1 151 133 view .LVU65
 299 0048 03F01F03 		and	r3, r3, #31
 151:../../Drivers/STM32H7xx_HAL_Driver/Src/stm32h7xx_hal.c **** #else
 300              		.loc 1 151 23 view .LVU66
 301 004c D840     		lsrs	r0, r0, r3
 302              	.LVL10:
 158:../../Drivers/STM32H7xx_HAL_Driver/Src/stm32h7xx_hal.c **** #else
 303              		.loc 1 158 3 is_stmt 1 view .LVU67
 158:../../Drivers/STM32H7xx_HAL_Driver/Src/stm32h7xx_hal.c **** #else
 304              		.loc 1 158 66 is_stmt 0 view .LVU68
 305 004e A369     		ldr	r3, [r4, #24]
 158:../../Drivers/STM32H7xx_HAL_Driver/Src/stm32h7xx_hal.c **** #else
 306              		.loc 1 158 93 view .LVU69
 307 0050 03F00F03 		and	r3, r3, #15
 158:../../Drivers/STM32H7xx_HAL_Driver/Src/stm32h7xx_hal.c **** #else
 308              		.loc 1 158 61 view .LVU70
 309 0054 D35C     		ldrb	r3, [r2, r3]	@ zero_extendqisi2
 158:../../Drivers/STM32H7xx_HAL_Driver/Src/stm32h7xx_hal.c **** #else
 310              		.loc 1 158 118 view .LVU71
 311 0056 03F01F03 		and	r3, r3, #31
 158:../../Drivers/STM32H7xx_HAL_Driver/Src/stm32h7xx_hal.c **** #else
 312              		.loc 1 158 40 view .LVU72
 313 005a D840     		lsrs	r0, r0, r3
 314              	.LVL11:
 158:../../Drivers/STM32H7xx_HAL_Driver/Src/stm32h7xx_hal.c **** #else
 315              		.loc 1 158 17 view .LVU73
 316 005c 0B4B     		ldr	r3, .L25+16
 317 005e 1860     		str	r0, [r3]
 164:../../Drivers/STM32H7xx_HAL_Driver/Src/stm32h7xx_hal.c **** #else
 318              		.loc 1 164 3 is_stmt 1 view .LVU74
 164:../../Drivers/STM32H7xx_HAL_Driver/Src/stm32h7xx_hal.c **** #else
 319              		.loc 1 164 19 is_stmt 0 view .LVU75
 320 0060 0B4B     		ldr	r3, .L25+20
 321 0062 1860     		str	r0, [r3]
 170:../../Drivers/STM32H7xx_HAL_Driver/Src/stm32h7xx_hal.c ****   {
 322              		.loc 1 170 3 is_stmt 1 view .LVU76
 170:../../Drivers/STM32H7xx_HAL_Driver/Src/stm32h7xx_hal.c ****   {
 323              		.loc 1 170 6 is_stmt 0 view .LVU77
 324 0064 0F20     		movs	r0, #15
 325 0066 FFF7FEFF 		bl	HAL_InitTick
 326              	.LVL12:
 170:../../Drivers/STM32H7xx_HAL_Driver/Src/stm32h7xx_hal.c ****   {
 327              		.loc 1 170 5 view .LVU78
 328 006a 18B1     		cbz	r0, .L24
 172:../../Drivers/STM32H7xx_HAL_Driver/Src/stm32h7xx_hal.c ****   }
 329              		.loc 1 172 12 view .LVU79
 330 006c 0124     		movs	r4, #1
 331              	.L21:
 180:../../Drivers/STM32H7xx_HAL_Driver/Src/stm32h7xx_hal.c **** 
 332              		.loc 1 180 1 view .LVU80
 333 006e 2046     		mov	r0, r4
 334 0070 02B0     		add	sp, sp, #8
 335              	.LCFI4:
ARM GAS  /tmp/ccoUsChM.s 			page 13


 336              		.cfi_remember_state
 337              		.cfi_def_cfa_offset 8
 338              		@ sp needed
 339 0072 10BD     		pop	{r4, pc}
 340              	.L24:
 341              	.LCFI5:
 342              		.cfi_restore_state
 343 0074 0446     		mov	r4, r0
 176:../../Drivers/STM32H7xx_HAL_Driver/Src/stm32h7xx_hal.c **** 
 344              		.loc 1 176 3 is_stmt 1 view .LVU81
 345 0076 FFF7FEFF 		bl	HAL_MspInit
 346              	.LVL13:
 179:../../Drivers/STM32H7xx_HAL_Driver/Src/stm32h7xx_hal.c **** }
 347              		.loc 1 179 3 view .LVU82
 179:../../Drivers/STM32H7xx_HAL_Driver/Src/stm32h7xx_hal.c **** }
 348              		.loc 1 179 10 is_stmt 0 view .LVU83
 349 007a F8E7     		b	.L21
 350              	.L26:
 351              		.align	2
 352              	.L25:
 353 007c 00440258 		.word	1476543488
 354 0080 00440240 		.word	1073890304
 355 0084 FF00F0FF 		.word	-1048321
 356 0088 00000000 		.word	D1CorePrescTable
 357 008c 00000000 		.word	SystemD2Clock
 358 0090 00000000 		.word	SystemCoreClock
 359              		.cfi_endproc
 360              	.LFE132:
 362              		.section	.text.HAL_IncTick,"ax",%progbits
 363              		.align	1
 364              		.weak	HAL_IncTick
 365              		.syntax unified
 366              		.thumb
 367              		.thumb_func
 368              		.fpu fpv4-sp-d16
 370              	HAL_IncTick:
 371              	.LFB137:
 290:../../Drivers/STM32H7xx_HAL_Driver/Src/stm32h7xx_hal.c **** 
 291:../../Drivers/STM32H7xx_HAL_Driver/Src/stm32h7xx_hal.c **** /**
 292:../../Drivers/STM32H7xx_HAL_Driver/Src/stm32h7xx_hal.c ****   * @}
 293:../../Drivers/STM32H7xx_HAL_Driver/Src/stm32h7xx_hal.c ****   */
 294:../../Drivers/STM32H7xx_HAL_Driver/Src/stm32h7xx_hal.c **** 
 295:../../Drivers/STM32H7xx_HAL_Driver/Src/stm32h7xx_hal.c **** /** @addtogroup HAL_Group2
 296:../../Drivers/STM32H7xx_HAL_Driver/Src/stm32h7xx_hal.c ****  *  @brief    HAL Control functions
 297:../../Drivers/STM32H7xx_HAL_Driver/Src/stm32h7xx_hal.c ****  *
 298:../../Drivers/STM32H7xx_HAL_Driver/Src/stm32h7xx_hal.c **** @verbatim
 299:../../Drivers/STM32H7xx_HAL_Driver/Src/stm32h7xx_hal.c ****  ===============================================================================
 300:../../Drivers/STM32H7xx_HAL_Driver/Src/stm32h7xx_hal.c ****                       ##### HAL Control functions #####
 301:../../Drivers/STM32H7xx_HAL_Driver/Src/stm32h7xx_hal.c ****  ===============================================================================
 302:../../Drivers/STM32H7xx_HAL_Driver/Src/stm32h7xx_hal.c ****     [..]  This section provides functions allowing to:
 303:../../Drivers/STM32H7xx_HAL_Driver/Src/stm32h7xx_hal.c ****       (+) Provide a tick value in millisecond
 304:../../Drivers/STM32H7xx_HAL_Driver/Src/stm32h7xx_hal.c ****       (+) Provide a blocking delay in millisecond
 305:../../Drivers/STM32H7xx_HAL_Driver/Src/stm32h7xx_hal.c ****       (+) Suspend the time base source interrupt
 306:../../Drivers/STM32H7xx_HAL_Driver/Src/stm32h7xx_hal.c ****       (+) Resume the time base source interrupt
 307:../../Drivers/STM32H7xx_HAL_Driver/Src/stm32h7xx_hal.c ****       (+) Get the HAL API driver version
 308:../../Drivers/STM32H7xx_HAL_Driver/Src/stm32h7xx_hal.c ****       (+) Get the device identifier
 309:../../Drivers/STM32H7xx_HAL_Driver/Src/stm32h7xx_hal.c ****       (+) Get the device revision identifier
ARM GAS  /tmp/ccoUsChM.s 			page 14


 310:../../Drivers/STM32H7xx_HAL_Driver/Src/stm32h7xx_hal.c ****       (+) Enable/Disable Debug module during SLEEP mode
 311:../../Drivers/STM32H7xx_HAL_Driver/Src/stm32h7xx_hal.c ****       (+) Enable/Disable Debug module during STOP mode
 312:../../Drivers/STM32H7xx_HAL_Driver/Src/stm32h7xx_hal.c ****       (+) Enable/Disable Debug module during STANDBY mode
 313:../../Drivers/STM32H7xx_HAL_Driver/Src/stm32h7xx_hal.c **** 
 314:../../Drivers/STM32H7xx_HAL_Driver/Src/stm32h7xx_hal.c **** @endverbatim
 315:../../Drivers/STM32H7xx_HAL_Driver/Src/stm32h7xx_hal.c ****   * @{
 316:../../Drivers/STM32H7xx_HAL_Driver/Src/stm32h7xx_hal.c ****   */
 317:../../Drivers/STM32H7xx_HAL_Driver/Src/stm32h7xx_hal.c **** 
 318:../../Drivers/STM32H7xx_HAL_Driver/Src/stm32h7xx_hal.c **** /**
 319:../../Drivers/STM32H7xx_HAL_Driver/Src/stm32h7xx_hal.c ****   * @brief This function is called to increment  a global variable "uwTick"
 320:../../Drivers/STM32H7xx_HAL_Driver/Src/stm32h7xx_hal.c ****   *        used as application time base.
 321:../../Drivers/STM32H7xx_HAL_Driver/Src/stm32h7xx_hal.c ****   * @note In the default implementation, this variable is incremented each 1ms
 322:../../Drivers/STM32H7xx_HAL_Driver/Src/stm32h7xx_hal.c ****   *       in Systick ISR.
 323:../../Drivers/STM32H7xx_HAL_Driver/Src/stm32h7xx_hal.c ****  * @note This function is declared as __weak to be overwritten in case of other
 324:../../Drivers/STM32H7xx_HAL_Driver/Src/stm32h7xx_hal.c ****   *      implementations in user file.
 325:../../Drivers/STM32H7xx_HAL_Driver/Src/stm32h7xx_hal.c ****   * @retval None
 326:../../Drivers/STM32H7xx_HAL_Driver/Src/stm32h7xx_hal.c ****   */
 327:../../Drivers/STM32H7xx_HAL_Driver/Src/stm32h7xx_hal.c **** __weak void HAL_IncTick(void)
 328:../../Drivers/STM32H7xx_HAL_Driver/Src/stm32h7xx_hal.c **** {
 372              		.loc 1 328 1 is_stmt 1 view -0
 373              		.cfi_startproc
 374              		@ args = 0, pretend = 0, frame = 0
 375              		@ frame_needed = 0, uses_anonymous_args = 0
 376              		@ link register save eliminated.
 329:../../Drivers/STM32H7xx_HAL_Driver/Src/stm32h7xx_hal.c ****   uwTick += (uint32_t)uwTickFreq;
 377              		.loc 1 329 3 view .LVU85
 378              		.loc 1 329 13 is_stmt 0 view .LVU86
 379 0000 034B     		ldr	r3, .L28
 380 0002 1B78     		ldrb	r3, [r3]	@ zero_extendqisi2
 381              		.loc 1 329 10 view .LVU87
 382 0004 034A     		ldr	r2, .L28+4
 383 0006 1168     		ldr	r1, [r2]
 384 0008 0B44     		add	r3, r3, r1
 385 000a 1360     		str	r3, [r2]
 330:../../Drivers/STM32H7xx_HAL_Driver/Src/stm32h7xx_hal.c **** }
 386              		.loc 1 330 1 view .LVU88
 387 000c 7047     		bx	lr
 388              	.L29:
 389 000e 00BF     		.align	2
 390              	.L28:
 391 0010 00000000 		.word	.LANCHOR0
 392 0014 00000000 		.word	uwTick
 393              		.cfi_endproc
 394              	.LFE137:
 396              		.section	.text.HAL_GetTick,"ax",%progbits
 397              		.align	1
 398              		.weak	HAL_GetTick
 399              		.syntax unified
 400              		.thumb
 401              		.thumb_func
 402              		.fpu fpv4-sp-d16
 404              	HAL_GetTick:
 405              	.LFB138:
 331:../../Drivers/STM32H7xx_HAL_Driver/Src/stm32h7xx_hal.c **** 
 332:../../Drivers/STM32H7xx_HAL_Driver/Src/stm32h7xx_hal.c **** /**
 333:../../Drivers/STM32H7xx_HAL_Driver/Src/stm32h7xx_hal.c ****   * @brief Provides a tick value in millisecond.
 334:../../Drivers/STM32H7xx_HAL_Driver/Src/stm32h7xx_hal.c ****   * @note This function is declared as __weak to be overwritten in case of other
ARM GAS  /tmp/ccoUsChM.s 			page 15


 335:../../Drivers/STM32H7xx_HAL_Driver/Src/stm32h7xx_hal.c ****   *       implementations in user file.
 336:../../Drivers/STM32H7xx_HAL_Driver/Src/stm32h7xx_hal.c ****   * @retval tick value
 337:../../Drivers/STM32H7xx_HAL_Driver/Src/stm32h7xx_hal.c ****   */
 338:../../Drivers/STM32H7xx_HAL_Driver/Src/stm32h7xx_hal.c **** __weak uint32_t HAL_GetTick(void)
 339:../../Drivers/STM32H7xx_HAL_Driver/Src/stm32h7xx_hal.c **** {
 406              		.loc 1 339 1 is_stmt 1 view -0
 407              		.cfi_startproc
 408              		@ args = 0, pretend = 0, frame = 0
 409              		@ frame_needed = 0, uses_anonymous_args = 0
 410              		@ link register save eliminated.
 340:../../Drivers/STM32H7xx_HAL_Driver/Src/stm32h7xx_hal.c ****   return uwTick;
 411              		.loc 1 340 3 view .LVU90
 412              		.loc 1 340 10 is_stmt 0 view .LVU91
 413 0000 014B     		ldr	r3, .L31
 414 0002 1868     		ldr	r0, [r3]
 341:../../Drivers/STM32H7xx_HAL_Driver/Src/stm32h7xx_hal.c **** }
 415              		.loc 1 341 1 view .LVU92
 416 0004 7047     		bx	lr
 417              	.L32:
 418 0006 00BF     		.align	2
 419              	.L31:
 420 0008 00000000 		.word	uwTick
 421              		.cfi_endproc
 422              	.LFE138:
 424              		.section	.text.HAL_GetTickPrio,"ax",%progbits
 425              		.align	1
 426              		.global	HAL_GetTickPrio
 427              		.syntax unified
 428              		.thumb
 429              		.thumb_func
 430              		.fpu fpv4-sp-d16
 432              	HAL_GetTickPrio:
 433              	.LFB139:
 342:../../Drivers/STM32H7xx_HAL_Driver/Src/stm32h7xx_hal.c **** 
 343:../../Drivers/STM32H7xx_HAL_Driver/Src/stm32h7xx_hal.c **** /**
 344:../../Drivers/STM32H7xx_HAL_Driver/Src/stm32h7xx_hal.c ****   * @brief This function returns a tick priority.
 345:../../Drivers/STM32H7xx_HAL_Driver/Src/stm32h7xx_hal.c ****   * @retval tick priority
 346:../../Drivers/STM32H7xx_HAL_Driver/Src/stm32h7xx_hal.c ****   */
 347:../../Drivers/STM32H7xx_HAL_Driver/Src/stm32h7xx_hal.c **** uint32_t HAL_GetTickPrio(void)
 348:../../Drivers/STM32H7xx_HAL_Driver/Src/stm32h7xx_hal.c **** {
 434              		.loc 1 348 1 is_stmt 1 view -0
 435              		.cfi_startproc
 436              		@ args = 0, pretend = 0, frame = 0
 437              		@ frame_needed = 0, uses_anonymous_args = 0
 438              		@ link register save eliminated.
 349:../../Drivers/STM32H7xx_HAL_Driver/Src/stm32h7xx_hal.c ****   return uwTickPrio;
 439              		.loc 1 349 3 view .LVU94
 350:../../Drivers/STM32H7xx_HAL_Driver/Src/stm32h7xx_hal.c **** }
 440              		.loc 1 350 1 is_stmt 0 view .LVU95
 441 0000 014B     		ldr	r3, .L34
 442 0002 1868     		ldr	r0, [r3]
 443 0004 7047     		bx	lr
 444              	.L35:
 445 0006 00BF     		.align	2
 446              	.L34:
 447 0008 00000000 		.word	.LANCHOR1
 448              		.cfi_endproc
ARM GAS  /tmp/ccoUsChM.s 			page 16


 449              	.LFE139:
 451              		.section	.text.HAL_SetTickFreq,"ax",%progbits
 452              		.align	1
 453              		.global	HAL_SetTickFreq
 454              		.syntax unified
 455              		.thumb
 456              		.thumb_func
 457              		.fpu fpv4-sp-d16
 459              	HAL_SetTickFreq:
 460              	.LVL14:
 461              	.LFB140:
 351:../../Drivers/STM32H7xx_HAL_Driver/Src/stm32h7xx_hal.c **** 
 352:../../Drivers/STM32H7xx_HAL_Driver/Src/stm32h7xx_hal.c **** /**
 353:../../Drivers/STM32H7xx_HAL_Driver/Src/stm32h7xx_hal.c ****   * @brief Set new tick Freq.
 354:../../Drivers/STM32H7xx_HAL_Driver/Src/stm32h7xx_hal.c ****   * @retval Status
 355:../../Drivers/STM32H7xx_HAL_Driver/Src/stm32h7xx_hal.c ****   */
 356:../../Drivers/STM32H7xx_HAL_Driver/Src/stm32h7xx_hal.c **** HAL_StatusTypeDef HAL_SetTickFreq(HAL_TickFreqTypeDef Freq)
 357:../../Drivers/STM32H7xx_HAL_Driver/Src/stm32h7xx_hal.c **** {
 462              		.loc 1 357 1 is_stmt 1 view -0
 463              		.cfi_startproc
 464              		@ args = 0, pretend = 0, frame = 0
 465              		@ frame_needed = 0, uses_anonymous_args = 0
 466              		.loc 1 357 1 is_stmt 0 view .LVU97
 467 0000 10B5     		push	{r4, lr}
 468              	.LCFI6:
 469              		.cfi_def_cfa_offset 8
 470              		.cfi_offset 4, -8
 471              		.cfi_offset 14, -4
 358:../../Drivers/STM32H7xx_HAL_Driver/Src/stm32h7xx_hal.c ****   HAL_StatusTypeDef status  = HAL_OK;
 472              		.loc 1 358 3 is_stmt 1 view .LVU98
 473              	.LVL15:
 359:../../Drivers/STM32H7xx_HAL_Driver/Src/stm32h7xx_hal.c ****   HAL_TickFreqTypeDef prevTickFreq;
 474              		.loc 1 359 3 view .LVU99
 360:../../Drivers/STM32H7xx_HAL_Driver/Src/stm32h7xx_hal.c **** 
 361:../../Drivers/STM32H7xx_HAL_Driver/Src/stm32h7xx_hal.c ****   assert_param(IS_TICKFREQ(Freq));
 475              		.loc 1 361 3 view .LVU100
 362:../../Drivers/STM32H7xx_HAL_Driver/Src/stm32h7xx_hal.c **** 
 363:../../Drivers/STM32H7xx_HAL_Driver/Src/stm32h7xx_hal.c ****   if (uwTickFreq != Freq)
 476              		.loc 1 363 3 view .LVU101
 477              		.loc 1 363 18 is_stmt 0 view .LVU102
 478 0002 084B     		ldr	r3, .L41
 479 0004 1C78     		ldrb	r4, [r3]	@ zero_extendqisi2
 480              		.loc 1 363 6 view .LVU103
 481 0006 8442     		cmp	r4, r0
 482 0008 01D1     		bne	.L40
 358:../../Drivers/STM32H7xx_HAL_Driver/Src/stm32h7xx_hal.c ****   HAL_TickFreqTypeDef prevTickFreq;
 483              		.loc 1 358 21 view .LVU104
 484 000a 0020     		movs	r0, #0
 485              	.LVL16:
 486              	.L37:
 364:../../Drivers/STM32H7xx_HAL_Driver/Src/stm32h7xx_hal.c ****   {
 365:../../Drivers/STM32H7xx_HAL_Driver/Src/stm32h7xx_hal.c **** 
 366:../../Drivers/STM32H7xx_HAL_Driver/Src/stm32h7xx_hal.c ****     /* Back up uwTickFreq frequency */
 367:../../Drivers/STM32H7xx_HAL_Driver/Src/stm32h7xx_hal.c ****     prevTickFreq = uwTickFreq;
 368:../../Drivers/STM32H7xx_HAL_Driver/Src/stm32h7xx_hal.c **** 
 369:../../Drivers/STM32H7xx_HAL_Driver/Src/stm32h7xx_hal.c ****     /* Update uwTickFreq global variable used by HAL_InitTick() */
 370:../../Drivers/STM32H7xx_HAL_Driver/Src/stm32h7xx_hal.c ****     uwTickFreq = Freq;
ARM GAS  /tmp/ccoUsChM.s 			page 17


 371:../../Drivers/STM32H7xx_HAL_Driver/Src/stm32h7xx_hal.c **** 
 372:../../Drivers/STM32H7xx_HAL_Driver/Src/stm32h7xx_hal.c ****     /* Apply the new tick Freq  */
 373:../../Drivers/STM32H7xx_HAL_Driver/Src/stm32h7xx_hal.c ****     status = HAL_InitTick(uwTickPrio);
 374:../../Drivers/STM32H7xx_HAL_Driver/Src/stm32h7xx_hal.c ****     if (status != HAL_OK)
 375:../../Drivers/STM32H7xx_HAL_Driver/Src/stm32h7xx_hal.c ****     {
 376:../../Drivers/STM32H7xx_HAL_Driver/Src/stm32h7xx_hal.c ****       /* Restore previous tick frequency */
 377:../../Drivers/STM32H7xx_HAL_Driver/Src/stm32h7xx_hal.c ****       uwTickFreq = prevTickFreq;
 378:../../Drivers/STM32H7xx_HAL_Driver/Src/stm32h7xx_hal.c ****     }
 379:../../Drivers/STM32H7xx_HAL_Driver/Src/stm32h7xx_hal.c ****   }
 380:../../Drivers/STM32H7xx_HAL_Driver/Src/stm32h7xx_hal.c **** 
 381:../../Drivers/STM32H7xx_HAL_Driver/Src/stm32h7xx_hal.c ****   return status;
 487              		.loc 1 381 3 is_stmt 1 view .LVU105
 382:../../Drivers/STM32H7xx_HAL_Driver/Src/stm32h7xx_hal.c **** }
 488              		.loc 1 382 1 is_stmt 0 view .LVU106
 489 000c 10BD     		pop	{r4, pc}
 490              	.LVL17:
 491              	.L40:
 367:../../Drivers/STM32H7xx_HAL_Driver/Src/stm32h7xx_hal.c **** 
 492              		.loc 1 367 5 is_stmt 1 view .LVU107
 370:../../Drivers/STM32H7xx_HAL_Driver/Src/stm32h7xx_hal.c **** 
 493              		.loc 1 370 5 view .LVU108
 370:../../Drivers/STM32H7xx_HAL_Driver/Src/stm32h7xx_hal.c **** 
 494              		.loc 1 370 16 is_stmt 0 view .LVU109
 495 000e 1870     		strb	r0, [r3]
 373:../../Drivers/STM32H7xx_HAL_Driver/Src/stm32h7xx_hal.c ****     if (status != HAL_OK)
 496              		.loc 1 373 5 is_stmt 1 view .LVU110
 373:../../Drivers/STM32H7xx_HAL_Driver/Src/stm32h7xx_hal.c ****     if (status != HAL_OK)
 497              		.loc 1 373 14 is_stmt 0 view .LVU111
 498 0010 054B     		ldr	r3, .L41+4
 499 0012 1868     		ldr	r0, [r3]
 500              	.LVL18:
 373:../../Drivers/STM32H7xx_HAL_Driver/Src/stm32h7xx_hal.c ****     if (status != HAL_OK)
 501              		.loc 1 373 14 view .LVU112
 502 0014 FFF7FEFF 		bl	HAL_InitTick
 503              	.LVL19:
 374:../../Drivers/STM32H7xx_HAL_Driver/Src/stm32h7xx_hal.c ****     {
 504              		.loc 1 374 5 is_stmt 1 view .LVU113
 374:../../Drivers/STM32H7xx_HAL_Driver/Src/stm32h7xx_hal.c ****     {
 505              		.loc 1 374 8 is_stmt 0 view .LVU114
 506 0018 0028     		cmp	r0, #0
 507 001a F7D0     		beq	.L37
 377:../../Drivers/STM32H7xx_HAL_Driver/Src/stm32h7xx_hal.c ****     }
 508              		.loc 1 377 7 is_stmt 1 view .LVU115
 377:../../Drivers/STM32H7xx_HAL_Driver/Src/stm32h7xx_hal.c ****     }
 509              		.loc 1 377 18 is_stmt 0 view .LVU116
 510 001c 014B     		ldr	r3, .L41
 511 001e 1C70     		strb	r4, [r3]
 512 0020 F4E7     		b	.L37
 513              	.L42:
 514 0022 00BF     		.align	2
 515              	.L41:
 516 0024 00000000 		.word	.LANCHOR0
 517 0028 00000000 		.word	.LANCHOR1
 518              		.cfi_endproc
 519              	.LFE140:
 521              		.section	.text.HAL_GetTickFreq,"ax",%progbits
 522              		.align	1
ARM GAS  /tmp/ccoUsChM.s 			page 18


 523              		.global	HAL_GetTickFreq
 524              		.syntax unified
 525              		.thumb
 526              		.thumb_func
 527              		.fpu fpv4-sp-d16
 529              	HAL_GetTickFreq:
 530              	.LFB141:
 383:../../Drivers/STM32H7xx_HAL_Driver/Src/stm32h7xx_hal.c **** 
 384:../../Drivers/STM32H7xx_HAL_Driver/Src/stm32h7xx_hal.c **** /**
 385:../../Drivers/STM32H7xx_HAL_Driver/Src/stm32h7xx_hal.c ****   * @brief Return tick frequency.
 386:../../Drivers/STM32H7xx_HAL_Driver/Src/stm32h7xx_hal.c ****   * @retval tick period in Hz
 387:../../Drivers/STM32H7xx_HAL_Driver/Src/stm32h7xx_hal.c ****   */
 388:../../Drivers/STM32H7xx_HAL_Driver/Src/stm32h7xx_hal.c **** HAL_TickFreqTypeDef HAL_GetTickFreq(void)
 389:../../Drivers/STM32H7xx_HAL_Driver/Src/stm32h7xx_hal.c **** {
 531              		.loc 1 389 1 is_stmt 1 view -0
 532              		.cfi_startproc
 533              		@ args = 0, pretend = 0, frame = 0
 534              		@ frame_needed = 0, uses_anonymous_args = 0
 535              		@ link register save eliminated.
 390:../../Drivers/STM32H7xx_HAL_Driver/Src/stm32h7xx_hal.c ****   return uwTickFreq;
 536              		.loc 1 390 3 view .LVU118
 391:../../Drivers/STM32H7xx_HAL_Driver/Src/stm32h7xx_hal.c **** }
 537              		.loc 1 391 1 is_stmt 0 view .LVU119
 538 0000 014B     		ldr	r3, .L44
 539 0002 1878     		ldrb	r0, [r3]	@ zero_extendqisi2
 540 0004 7047     		bx	lr
 541              	.L45:
 542 0006 00BF     		.align	2
 543              	.L44:
 544 0008 00000000 		.word	.LANCHOR0
 545              		.cfi_endproc
 546              	.LFE141:
 548              		.section	.text.HAL_Delay,"ax",%progbits
 549              		.align	1
 550              		.weak	HAL_Delay
 551              		.syntax unified
 552              		.thumb
 553              		.thumb_func
 554              		.fpu fpv4-sp-d16
 556              	HAL_Delay:
 557              	.LVL20:
 558              	.LFB142:
 392:../../Drivers/STM32H7xx_HAL_Driver/Src/stm32h7xx_hal.c **** 
 393:../../Drivers/STM32H7xx_HAL_Driver/Src/stm32h7xx_hal.c **** /**
 394:../../Drivers/STM32H7xx_HAL_Driver/Src/stm32h7xx_hal.c ****   * @brief This function provides minimum delay (in milliseconds) based
 395:../../Drivers/STM32H7xx_HAL_Driver/Src/stm32h7xx_hal.c ****   *        on variable incremented.
 396:../../Drivers/STM32H7xx_HAL_Driver/Src/stm32h7xx_hal.c ****   * @note In the default implementation , SysTick timer is the source of time base.
 397:../../Drivers/STM32H7xx_HAL_Driver/Src/stm32h7xx_hal.c ****   *       It is used to generate interrupts at regular time intervals where uwTick
 398:../../Drivers/STM32H7xx_HAL_Driver/Src/stm32h7xx_hal.c ****   *       is incremented.
 399:../../Drivers/STM32H7xx_HAL_Driver/Src/stm32h7xx_hal.c ****   * @note This function is declared as __weak to be overwritten in case of other
 400:../../Drivers/STM32H7xx_HAL_Driver/Src/stm32h7xx_hal.c ****   *       implementations in user file.
 401:../../Drivers/STM32H7xx_HAL_Driver/Src/stm32h7xx_hal.c ****   * @param Delay  specifies the delay time length, in milliseconds.
 402:../../Drivers/STM32H7xx_HAL_Driver/Src/stm32h7xx_hal.c ****   * @retval None
 403:../../Drivers/STM32H7xx_HAL_Driver/Src/stm32h7xx_hal.c ****   */
 404:../../Drivers/STM32H7xx_HAL_Driver/Src/stm32h7xx_hal.c **** __weak void HAL_Delay(uint32_t Delay)
 405:../../Drivers/STM32H7xx_HAL_Driver/Src/stm32h7xx_hal.c **** {
 559              		.loc 1 405 1 is_stmt 1 view -0
ARM GAS  /tmp/ccoUsChM.s 			page 19


 560              		.cfi_startproc
 561              		@ args = 0, pretend = 0, frame = 0
 562              		@ frame_needed = 0, uses_anonymous_args = 0
 563              		.loc 1 405 1 is_stmt 0 view .LVU121
 564 0000 38B5     		push	{r3, r4, r5, lr}
 565              	.LCFI7:
 566              		.cfi_def_cfa_offset 16
 567              		.cfi_offset 3, -16
 568              		.cfi_offset 4, -12
 569              		.cfi_offset 5, -8
 570              		.cfi_offset 14, -4
 571 0002 0446     		mov	r4, r0
 406:../../Drivers/STM32H7xx_HAL_Driver/Src/stm32h7xx_hal.c ****   uint32_t tickstart = HAL_GetTick();
 572              		.loc 1 406 3 is_stmt 1 view .LVU122
 573              		.loc 1 406 24 is_stmt 0 view .LVU123
 574 0004 FFF7FEFF 		bl	HAL_GetTick
 575              	.LVL21:
 576              		.loc 1 406 24 view .LVU124
 577 0008 0546     		mov	r5, r0
 578              	.LVL22:
 407:../../Drivers/STM32H7xx_HAL_Driver/Src/stm32h7xx_hal.c ****   uint32_t wait = Delay;
 579              		.loc 1 407 3 is_stmt 1 view .LVU125
 408:../../Drivers/STM32H7xx_HAL_Driver/Src/stm32h7xx_hal.c **** 
 409:../../Drivers/STM32H7xx_HAL_Driver/Src/stm32h7xx_hal.c ****   /* Add a freq to guarantee minimum wait */
 410:../../Drivers/STM32H7xx_HAL_Driver/Src/stm32h7xx_hal.c ****   if (wait < HAL_MAX_DELAY)
 580              		.loc 1 410 3 view .LVU126
 581              		.loc 1 410 6 is_stmt 0 view .LVU127
 582 000a B4F1FF3F 		cmp	r4, #-1
 583 000e 02D0     		beq	.L48
 411:../../Drivers/STM32H7xx_HAL_Driver/Src/stm32h7xx_hal.c ****   {
 412:../../Drivers/STM32H7xx_HAL_Driver/Src/stm32h7xx_hal.c ****     wait += (uint32_t)(uwTickFreq);
 584              		.loc 1 412 5 is_stmt 1 view .LVU128
 585              		.loc 1 412 13 is_stmt 0 view .LVU129
 586 0010 044B     		ldr	r3, .L50
 587 0012 1B78     		ldrb	r3, [r3]	@ zero_extendqisi2
 588              		.loc 1 412 10 view .LVU130
 589 0014 1C44     		add	r4, r4, r3
 590              	.LVL23:
 591              	.L48:
 413:../../Drivers/STM32H7xx_HAL_Driver/Src/stm32h7xx_hal.c ****   }
 414:../../Drivers/STM32H7xx_HAL_Driver/Src/stm32h7xx_hal.c **** 
 415:../../Drivers/STM32H7xx_HAL_Driver/Src/stm32h7xx_hal.c ****   while ((HAL_GetTick() - tickstart) < wait)
 416:../../Drivers/STM32H7xx_HAL_Driver/Src/stm32h7xx_hal.c ****   {
 417:../../Drivers/STM32H7xx_HAL_Driver/Src/stm32h7xx_hal.c ****   }
 592              		.loc 1 417 3 is_stmt 1 discriminator 1 view .LVU131
 415:../../Drivers/STM32H7xx_HAL_Driver/Src/stm32h7xx_hal.c ****   {
 593              		.loc 1 415 9 discriminator 1 view .LVU132
 415:../../Drivers/STM32H7xx_HAL_Driver/Src/stm32h7xx_hal.c ****   {
 594              		.loc 1 415 11 is_stmt 0 discriminator 1 view .LVU133
 595 0016 FFF7FEFF 		bl	HAL_GetTick
 596              	.LVL24:
 415:../../Drivers/STM32H7xx_HAL_Driver/Src/stm32h7xx_hal.c ****   {
 597              		.loc 1 415 25 discriminator 1 view .LVU134
 598 001a 401B     		subs	r0, r0, r5
 415:../../Drivers/STM32H7xx_HAL_Driver/Src/stm32h7xx_hal.c ****   {
 599              		.loc 1 415 9 discriminator 1 view .LVU135
 600 001c A042     		cmp	r0, r4
ARM GAS  /tmp/ccoUsChM.s 			page 20


 601 001e FAD3     		bcc	.L48
 418:../../Drivers/STM32H7xx_HAL_Driver/Src/stm32h7xx_hal.c **** }
 602              		.loc 1 418 1 view .LVU136
 603 0020 38BD     		pop	{r3, r4, r5, pc}
 604              	.LVL25:
 605              	.L51:
 606              		.loc 1 418 1 view .LVU137
 607 0022 00BF     		.align	2
 608              	.L50:
 609 0024 00000000 		.word	.LANCHOR0
 610              		.cfi_endproc
 611              	.LFE142:
 613              		.section	.text.HAL_SuspendTick,"ax",%progbits
 614              		.align	1
 615              		.weak	HAL_SuspendTick
 616              		.syntax unified
 617              		.thumb
 618              		.thumb_func
 619              		.fpu fpv4-sp-d16
 621              	HAL_SuspendTick:
 622              	.LFB143:
 419:../../Drivers/STM32H7xx_HAL_Driver/Src/stm32h7xx_hal.c **** 
 420:../../Drivers/STM32H7xx_HAL_Driver/Src/stm32h7xx_hal.c **** /**
 421:../../Drivers/STM32H7xx_HAL_Driver/Src/stm32h7xx_hal.c ****   * @brief Suspend Tick increment.
 422:../../Drivers/STM32H7xx_HAL_Driver/Src/stm32h7xx_hal.c ****   * @note In the default implementation , SysTick timer is the source of time base. It is
 423:../../Drivers/STM32H7xx_HAL_Driver/Src/stm32h7xx_hal.c ****   *       used to generate interrupts at regular time intervals. Once HAL_SuspendTick()
 424:../../Drivers/STM32H7xx_HAL_Driver/Src/stm32h7xx_hal.c ****   *       is called, the SysTick interrupt will be disabled and so Tick increment
 425:../../Drivers/STM32H7xx_HAL_Driver/Src/stm32h7xx_hal.c ****   *       is suspended.
 426:../../Drivers/STM32H7xx_HAL_Driver/Src/stm32h7xx_hal.c ****   * @note This function is declared as __weak to be overwritten in case of other
 427:../../Drivers/STM32H7xx_HAL_Driver/Src/stm32h7xx_hal.c ****   *       implementations in user file.
 428:../../Drivers/STM32H7xx_HAL_Driver/Src/stm32h7xx_hal.c ****   * @retval None
 429:../../Drivers/STM32H7xx_HAL_Driver/Src/stm32h7xx_hal.c ****   */
 430:../../Drivers/STM32H7xx_HAL_Driver/Src/stm32h7xx_hal.c **** __weak void HAL_SuspendTick(void)
 431:../../Drivers/STM32H7xx_HAL_Driver/Src/stm32h7xx_hal.c **** {
 623              		.loc 1 431 1 is_stmt 1 view -0
 624              		.cfi_startproc
 625              		@ args = 0, pretend = 0, frame = 0
 626              		@ frame_needed = 0, uses_anonymous_args = 0
 627              		@ link register save eliminated.
 432:../../Drivers/STM32H7xx_HAL_Driver/Src/stm32h7xx_hal.c ****   /* Disable SysTick Interrupt */
 433:../../Drivers/STM32H7xx_HAL_Driver/Src/stm32h7xx_hal.c ****   SysTick->CTRL &= ~SysTick_CTRL_TICKINT_Msk;
 628              		.loc 1 433 3 view .LVU139
 629              		.loc 1 433 17 is_stmt 0 view .LVU140
 630 0000 024A     		ldr	r2, .L53
 631 0002 1368     		ldr	r3, [r2]
 632 0004 23F00203 		bic	r3, r3, #2
 633 0008 1360     		str	r3, [r2]
 434:../../Drivers/STM32H7xx_HAL_Driver/Src/stm32h7xx_hal.c **** }
 634              		.loc 1 434 1 view .LVU141
 635 000a 7047     		bx	lr
 636              	.L54:
 637              		.align	2
 638              	.L53:
 639 000c 10E000E0 		.word	-536813552
 640              		.cfi_endproc
 641              	.LFE143:
 643              		.section	.text.HAL_ResumeTick,"ax",%progbits
ARM GAS  /tmp/ccoUsChM.s 			page 21


 644              		.align	1
 645              		.weak	HAL_ResumeTick
 646              		.syntax unified
 647              		.thumb
 648              		.thumb_func
 649              		.fpu fpv4-sp-d16
 651              	HAL_ResumeTick:
 652              	.LFB144:
 435:../../Drivers/STM32H7xx_HAL_Driver/Src/stm32h7xx_hal.c **** 
 436:../../Drivers/STM32H7xx_HAL_Driver/Src/stm32h7xx_hal.c **** /**
 437:../../Drivers/STM32H7xx_HAL_Driver/Src/stm32h7xx_hal.c ****   * @brief Resume Tick increment.
 438:../../Drivers/STM32H7xx_HAL_Driver/Src/stm32h7xx_hal.c ****   * @note In the default implementation , SysTick timer is the source of time base. It is
 439:../../Drivers/STM32H7xx_HAL_Driver/Src/stm32h7xx_hal.c ****   *       used to generate interrupts at regular time intervals. Once HAL_ResumeTick()
 440:../../Drivers/STM32H7xx_HAL_Driver/Src/stm32h7xx_hal.c ****   *       is called, the SysTick interrupt will be enabled and so Tick increment
 441:../../Drivers/STM32H7xx_HAL_Driver/Src/stm32h7xx_hal.c ****   *       is resumed.
 442:../../Drivers/STM32H7xx_HAL_Driver/Src/stm32h7xx_hal.c ****   * @note This function is declared as __weak to be overwritten in case of other
 443:../../Drivers/STM32H7xx_HAL_Driver/Src/stm32h7xx_hal.c ****   *       implementations in user file.
 444:../../Drivers/STM32H7xx_HAL_Driver/Src/stm32h7xx_hal.c ****   * @retval None
 445:../../Drivers/STM32H7xx_HAL_Driver/Src/stm32h7xx_hal.c ****   */
 446:../../Drivers/STM32H7xx_HAL_Driver/Src/stm32h7xx_hal.c **** __weak void HAL_ResumeTick(void)
 447:../../Drivers/STM32H7xx_HAL_Driver/Src/stm32h7xx_hal.c **** {
 653              		.loc 1 447 1 is_stmt 1 view -0
 654              		.cfi_startproc
 655              		@ args = 0, pretend = 0, frame = 0
 656              		@ frame_needed = 0, uses_anonymous_args = 0
 657              		@ link register save eliminated.
 448:../../Drivers/STM32H7xx_HAL_Driver/Src/stm32h7xx_hal.c ****   /* Enable SysTick Interrupt */
 449:../../Drivers/STM32H7xx_HAL_Driver/Src/stm32h7xx_hal.c ****   SysTick->CTRL  |= SysTick_CTRL_TICKINT_Msk;
 658              		.loc 1 449 3 view .LVU143
 659              		.loc 1 449 18 is_stmt 0 view .LVU144
 660 0000 024A     		ldr	r2, .L56
 661 0002 1368     		ldr	r3, [r2]
 662 0004 43F00203 		orr	r3, r3, #2
 663 0008 1360     		str	r3, [r2]
 450:../../Drivers/STM32H7xx_HAL_Driver/Src/stm32h7xx_hal.c **** }
 664              		.loc 1 450 1 view .LVU145
 665 000a 7047     		bx	lr
 666              	.L57:
 667              		.align	2
 668              	.L56:
 669 000c 10E000E0 		.word	-536813552
 670              		.cfi_endproc
 671              	.LFE144:
 673              		.section	.text.HAL_GetHalVersion,"ax",%progbits
 674              		.align	1
 675              		.global	HAL_GetHalVersion
 676              		.syntax unified
 677              		.thumb
 678              		.thumb_func
 679              		.fpu fpv4-sp-d16
 681              	HAL_GetHalVersion:
 682              	.LFB145:
 451:../../Drivers/STM32H7xx_HAL_Driver/Src/stm32h7xx_hal.c **** 
 452:../../Drivers/STM32H7xx_HAL_Driver/Src/stm32h7xx_hal.c **** /**
 453:../../Drivers/STM32H7xx_HAL_Driver/Src/stm32h7xx_hal.c ****   * @brief  Returns the HAL revision
 454:../../Drivers/STM32H7xx_HAL_Driver/Src/stm32h7xx_hal.c ****   * @retval version : 0xXYZR (8bits for each decimal, R for RC)
 455:../../Drivers/STM32H7xx_HAL_Driver/Src/stm32h7xx_hal.c ****   */
ARM GAS  /tmp/ccoUsChM.s 			page 22


 456:../../Drivers/STM32H7xx_HAL_Driver/Src/stm32h7xx_hal.c **** uint32_t HAL_GetHalVersion(void)
 457:../../Drivers/STM32H7xx_HAL_Driver/Src/stm32h7xx_hal.c **** {
 683              		.loc 1 457 1 is_stmt 1 view -0
 684              		.cfi_startproc
 685              		@ args = 0, pretend = 0, frame = 0
 686              		@ frame_needed = 0, uses_anonymous_args = 0
 687              		@ link register save eliminated.
 458:../../Drivers/STM32H7xx_HAL_Driver/Src/stm32h7xx_hal.c ****  return __STM32H7xx_HAL_VERSION;
 688              		.loc 1 458 2 view .LVU147
 459:../../Drivers/STM32H7xx_HAL_Driver/Src/stm32h7xx_hal.c **** }
 689              		.loc 1 459 1 is_stmt 0 view .LVU148
 690 0000 0048     		ldr	r0, .L59
 691 0002 7047     		bx	lr
 692              	.L60:
 693              		.align	2
 694              	.L59:
 695 0004 00010B01 		.word	17498368
 696              		.cfi_endproc
 697              	.LFE145:
 699              		.section	.text.HAL_GetREVID,"ax",%progbits
 700              		.align	1
 701              		.global	HAL_GetREVID
 702              		.syntax unified
 703              		.thumb
 704              		.thumb_func
 705              		.fpu fpv4-sp-d16
 707              	HAL_GetREVID:
 708              	.LFB146:
 460:../../Drivers/STM32H7xx_HAL_Driver/Src/stm32h7xx_hal.c **** 
 461:../../Drivers/STM32H7xx_HAL_Driver/Src/stm32h7xx_hal.c **** /**
 462:../../Drivers/STM32H7xx_HAL_Driver/Src/stm32h7xx_hal.c ****   * @brief  Returns the device revision identifier.
 463:../../Drivers/STM32H7xx_HAL_Driver/Src/stm32h7xx_hal.c ****   * @retval Device revision identifier
 464:../../Drivers/STM32H7xx_HAL_Driver/Src/stm32h7xx_hal.c ****   */
 465:../../Drivers/STM32H7xx_HAL_Driver/Src/stm32h7xx_hal.c **** uint32_t HAL_GetREVID(void)
 466:../../Drivers/STM32H7xx_HAL_Driver/Src/stm32h7xx_hal.c **** {
 709              		.loc 1 466 1 is_stmt 1 view -0
 710              		.cfi_startproc
 711              		@ args = 0, pretend = 0, frame = 0
 712              		@ frame_needed = 0, uses_anonymous_args = 0
 713              		@ link register save eliminated.
 467:../../Drivers/STM32H7xx_HAL_Driver/Src/stm32h7xx_hal.c ****    return((DBGMCU->IDCODE) >> 16);
 714              		.loc 1 467 4 view .LVU150
 715              		.loc 1 467 18 is_stmt 0 view .LVU151
 716 0000 014B     		ldr	r3, .L62
 717 0002 1868     		ldr	r0, [r3]
 468:../../Drivers/STM32H7xx_HAL_Driver/Src/stm32h7xx_hal.c **** }
 718              		.loc 1 468 1 view .LVU152
 719 0004 000C     		lsrs	r0, r0, #16
 720 0006 7047     		bx	lr
 721              	.L63:
 722              		.align	2
 723              	.L62:
 724 0008 0010005C 		.word	1543507968
 725              		.cfi_endproc
 726              	.LFE146:
 728              		.section	.text.HAL_GetDEVID,"ax",%progbits
 729              		.align	1
ARM GAS  /tmp/ccoUsChM.s 			page 23


 730              		.global	HAL_GetDEVID
 731              		.syntax unified
 732              		.thumb
 733              		.thumb_func
 734              		.fpu fpv4-sp-d16
 736              	HAL_GetDEVID:
 737              	.LFB147:
 469:../../Drivers/STM32H7xx_HAL_Driver/Src/stm32h7xx_hal.c **** 
 470:../../Drivers/STM32H7xx_HAL_Driver/Src/stm32h7xx_hal.c **** /**
 471:../../Drivers/STM32H7xx_HAL_Driver/Src/stm32h7xx_hal.c ****   * @brief  Returns the device identifier.
 472:../../Drivers/STM32H7xx_HAL_Driver/Src/stm32h7xx_hal.c ****   * @retval Device identifier
 473:../../Drivers/STM32H7xx_HAL_Driver/Src/stm32h7xx_hal.c ****   */
 474:../../Drivers/STM32H7xx_HAL_Driver/Src/stm32h7xx_hal.c **** uint32_t HAL_GetDEVID(void)
 475:../../Drivers/STM32H7xx_HAL_Driver/Src/stm32h7xx_hal.c **** {
 738              		.loc 1 475 1 is_stmt 1 view -0
 739              		.cfi_startproc
 740              		@ args = 0, pretend = 0, frame = 0
 741              		@ frame_needed = 0, uses_anonymous_args = 0
 742              		@ link register save eliminated.
 476:../../Drivers/STM32H7xx_HAL_Driver/Src/stm32h7xx_hal.c ****    return((DBGMCU->IDCODE) & IDCODE_DEVID_MASK);
 743              		.loc 1 476 4 view .LVU154
 744              		.loc 1 476 18 is_stmt 0 view .LVU155
 745 0000 024B     		ldr	r3, .L65
 746 0002 1868     		ldr	r0, [r3]
 477:../../Drivers/STM32H7xx_HAL_Driver/Src/stm32h7xx_hal.c **** }
 747              		.loc 1 477 1 view .LVU156
 748 0004 C0F30B00 		ubfx	r0, r0, #0, #12
 749 0008 7047     		bx	lr
 750              	.L66:
 751 000a 00BF     		.align	2
 752              	.L65:
 753 000c 0010005C 		.word	1543507968
 754              		.cfi_endproc
 755              	.LFE147:
 757              		.section	.text.HAL_GetUIDw0,"ax",%progbits
 758              		.align	1
 759              		.global	HAL_GetUIDw0
 760              		.syntax unified
 761              		.thumb
 762              		.thumb_func
 763              		.fpu fpv4-sp-d16
 765              	HAL_GetUIDw0:
 766              	.LFB148:
 478:../../Drivers/STM32H7xx_HAL_Driver/Src/stm32h7xx_hal.c **** 
 479:../../Drivers/STM32H7xx_HAL_Driver/Src/stm32h7xx_hal.c **** /**
 480:../../Drivers/STM32H7xx_HAL_Driver/Src/stm32h7xx_hal.c ****   * @brief  Return the first word of the unique device identifier (UID based on 96 bits)
 481:../../Drivers/STM32H7xx_HAL_Driver/Src/stm32h7xx_hal.c ****   * @retval Device identifier
 482:../../Drivers/STM32H7xx_HAL_Driver/Src/stm32h7xx_hal.c ****   */
 483:../../Drivers/STM32H7xx_HAL_Driver/Src/stm32h7xx_hal.c **** uint32_t HAL_GetUIDw0(void)
 484:../../Drivers/STM32H7xx_HAL_Driver/Src/stm32h7xx_hal.c **** {
 767              		.loc 1 484 1 is_stmt 1 view -0
 768              		.cfi_startproc
 769              		@ args = 0, pretend = 0, frame = 0
 770              		@ frame_needed = 0, uses_anonymous_args = 0
 771              		@ link register save eliminated.
 485:../../Drivers/STM32H7xx_HAL_Driver/Src/stm32h7xx_hal.c ****   return(READ_REG(*((uint32_t *)UID_BASE)));
 772              		.loc 1 485 3 view .LVU158
ARM GAS  /tmp/ccoUsChM.s 			page 24


 486:../../Drivers/STM32H7xx_HAL_Driver/Src/stm32h7xx_hal.c **** }
 773              		.loc 1 486 1 is_stmt 0 view .LVU159
 774 0000 014B     		ldr	r3, .L68
 775 0002 1868     		ldr	r0, [r3]
 776 0004 7047     		bx	lr
 777              	.L69:
 778 0006 00BF     		.align	2
 779              	.L68:
 780 0008 00E8F11F 		.word	535947264
 781              		.cfi_endproc
 782              	.LFE148:
 784              		.section	.text.HAL_GetUIDw1,"ax",%progbits
 785              		.align	1
 786              		.global	HAL_GetUIDw1
 787              		.syntax unified
 788              		.thumb
 789              		.thumb_func
 790              		.fpu fpv4-sp-d16
 792              	HAL_GetUIDw1:
 793              	.LFB149:
 487:../../Drivers/STM32H7xx_HAL_Driver/Src/stm32h7xx_hal.c **** 
 488:../../Drivers/STM32H7xx_HAL_Driver/Src/stm32h7xx_hal.c **** /**
 489:../../Drivers/STM32H7xx_HAL_Driver/Src/stm32h7xx_hal.c ****   * @brief  Return the second word of the unique device identifier (UID based on 96 bits)
 490:../../Drivers/STM32H7xx_HAL_Driver/Src/stm32h7xx_hal.c ****   * @retval Device identifier
 491:../../Drivers/STM32H7xx_HAL_Driver/Src/stm32h7xx_hal.c ****   */
 492:../../Drivers/STM32H7xx_HAL_Driver/Src/stm32h7xx_hal.c **** uint32_t HAL_GetUIDw1(void)
 493:../../Drivers/STM32H7xx_HAL_Driver/Src/stm32h7xx_hal.c **** {
 794              		.loc 1 493 1 is_stmt 1 view -0
 795              		.cfi_startproc
 796              		@ args = 0, pretend = 0, frame = 0
 797              		@ frame_needed = 0, uses_anonymous_args = 0
 798              		@ link register save eliminated.
 494:../../Drivers/STM32H7xx_HAL_Driver/Src/stm32h7xx_hal.c ****   return(READ_REG(*((uint32_t *)(UID_BASE + 4U))));
 799              		.loc 1 494 3 view .LVU161
 495:../../Drivers/STM32H7xx_HAL_Driver/Src/stm32h7xx_hal.c **** }
 800              		.loc 1 495 1 is_stmt 0 view .LVU162
 801 0000 014B     		ldr	r3, .L71
 802 0002 1868     		ldr	r0, [r3]
 803 0004 7047     		bx	lr
 804              	.L72:
 805 0006 00BF     		.align	2
 806              	.L71:
 807 0008 04E8F11F 		.word	535947268
 808              		.cfi_endproc
 809              	.LFE149:
 811              		.section	.text.HAL_GetUIDw2,"ax",%progbits
 812              		.align	1
 813              		.global	HAL_GetUIDw2
 814              		.syntax unified
 815              		.thumb
 816              		.thumb_func
 817              		.fpu fpv4-sp-d16
 819              	HAL_GetUIDw2:
 820              	.LFB150:
 496:../../Drivers/STM32H7xx_HAL_Driver/Src/stm32h7xx_hal.c **** 
 497:../../Drivers/STM32H7xx_HAL_Driver/Src/stm32h7xx_hal.c **** /**
 498:../../Drivers/STM32H7xx_HAL_Driver/Src/stm32h7xx_hal.c ****   * @brief  Return the third word of the unique device identifier (UID based on 96 bits)
ARM GAS  /tmp/ccoUsChM.s 			page 25


 499:../../Drivers/STM32H7xx_HAL_Driver/Src/stm32h7xx_hal.c ****   * @retval Device identifier
 500:../../Drivers/STM32H7xx_HAL_Driver/Src/stm32h7xx_hal.c ****   */
 501:../../Drivers/STM32H7xx_HAL_Driver/Src/stm32h7xx_hal.c **** uint32_t HAL_GetUIDw2(void)
 502:../../Drivers/STM32H7xx_HAL_Driver/Src/stm32h7xx_hal.c **** {
 821              		.loc 1 502 1 is_stmt 1 view -0
 822              		.cfi_startproc
 823              		@ args = 0, pretend = 0, frame = 0
 824              		@ frame_needed = 0, uses_anonymous_args = 0
 825              		@ link register save eliminated.
 503:../../Drivers/STM32H7xx_HAL_Driver/Src/stm32h7xx_hal.c ****   return(READ_REG(*((uint32_t *)(UID_BASE + 8U))));
 826              		.loc 1 503 3 view .LVU164
 504:../../Drivers/STM32H7xx_HAL_Driver/Src/stm32h7xx_hal.c **** }
 827              		.loc 1 504 1 is_stmt 0 view .LVU165
 828 0000 014B     		ldr	r3, .L74
 829 0002 1868     		ldr	r0, [r3]
 830 0004 7047     		bx	lr
 831              	.L75:
 832 0006 00BF     		.align	2
 833              	.L74:
 834 0008 08E8F11F 		.word	535947272
 835              		.cfi_endproc
 836              	.LFE150:
 838              		.section	.text.HAL_SYSCFG_VREFBUF_VoltageScalingConfig,"ax",%progbits
 839              		.align	1
 840              		.global	HAL_SYSCFG_VREFBUF_VoltageScalingConfig
 841              		.syntax unified
 842              		.thumb
 843              		.thumb_func
 844              		.fpu fpv4-sp-d16
 846              	HAL_SYSCFG_VREFBUF_VoltageScalingConfig:
 847              	.LVL26:
 848              	.LFB151:
 505:../../Drivers/STM32H7xx_HAL_Driver/Src/stm32h7xx_hal.c **** 
 506:../../Drivers/STM32H7xx_HAL_Driver/Src/stm32h7xx_hal.c **** /**
 507:../../Drivers/STM32H7xx_HAL_Driver/Src/stm32h7xx_hal.c ****   * @brief Configure the internal voltage reference buffer voltage scale.
 508:../../Drivers/STM32H7xx_HAL_Driver/Src/stm32h7xx_hal.c ****   * @param VoltageScaling  specifies the output voltage to achieve
 509:../../Drivers/STM32H7xx_HAL_Driver/Src/stm32h7xx_hal.c ****   *          This parameter can be one of the following values:
 510:../../Drivers/STM32H7xx_HAL_Driver/Src/stm32h7xx_hal.c ****   *            @arg SYSCFG_VREFBUF_VOLTAGE_SCALE0: VREF_OUT1 around 2.5 V.
 511:../../Drivers/STM32H7xx_HAL_Driver/Src/stm32h7xx_hal.c ****   *                                                This requires VDDA equal to or higher than 2.8 V
 512:../../Drivers/STM32H7xx_HAL_Driver/Src/stm32h7xx_hal.c ****   *            @arg SYSCFG_VREFBUF_VOLTAGE_SCALE1: VREF_OUT2 around 2.048 V.
 513:../../Drivers/STM32H7xx_HAL_Driver/Src/stm32h7xx_hal.c ****   *                                                This requires VDDA equal to or higher than 2.4 V
 514:../../Drivers/STM32H7xx_HAL_Driver/Src/stm32h7xx_hal.c ****   *            @arg SYSCFG_VREFBUF_VOLTAGE_SCALE2: VREF_OUT3 around 1.8 V.
 515:../../Drivers/STM32H7xx_HAL_Driver/Src/stm32h7xx_hal.c ****   *                                                This requires VDDA equal to or higher than 2.1 V
 516:../../Drivers/STM32H7xx_HAL_Driver/Src/stm32h7xx_hal.c ****   *            @arg SYSCFG_VREFBUF_VOLTAGE_SCALE3: VREF_OUT4 around 1.5 V.
 517:../../Drivers/STM32H7xx_HAL_Driver/Src/stm32h7xx_hal.c ****   *                                                This requires VDDA equal to or higher than 1.8 V
 518:../../Drivers/STM32H7xx_HAL_Driver/Src/stm32h7xx_hal.c ****   * @retval None
 519:../../Drivers/STM32H7xx_HAL_Driver/Src/stm32h7xx_hal.c ****   */
 520:../../Drivers/STM32H7xx_HAL_Driver/Src/stm32h7xx_hal.c **** void HAL_SYSCFG_VREFBUF_VoltageScalingConfig(uint32_t VoltageScaling)
 521:../../Drivers/STM32H7xx_HAL_Driver/Src/stm32h7xx_hal.c **** {
 849              		.loc 1 521 1 is_stmt 1 view -0
 850              		.cfi_startproc
 851              		@ args = 0, pretend = 0, frame = 0
 852              		@ frame_needed = 0, uses_anonymous_args = 0
 853              		@ link register save eliminated.
 522:../../Drivers/STM32H7xx_HAL_Driver/Src/stm32h7xx_hal.c ****   /* Check the parameters */
 523:../../Drivers/STM32H7xx_HAL_Driver/Src/stm32h7xx_hal.c ****   assert_param(IS_SYSCFG_VREFBUF_VOLTAGE_SCALE(VoltageScaling));
 854              		.loc 1 523 3 view .LVU167
ARM GAS  /tmp/ccoUsChM.s 			page 26


 524:../../Drivers/STM32H7xx_HAL_Driver/Src/stm32h7xx_hal.c **** 
 525:../../Drivers/STM32H7xx_HAL_Driver/Src/stm32h7xx_hal.c ****   MODIFY_REG(VREFBUF->CSR, VREFBUF_CSR_VRS, VoltageScaling);
 855              		.loc 1 525 3 view .LVU168
 856 0000 034A     		ldr	r2, .L77
 857 0002 1368     		ldr	r3, [r2]
 858 0004 23F07003 		bic	r3, r3, #112
 859 0008 0343     		orrs	r3, r3, r0
 860 000a 1360     		str	r3, [r2]
 526:../../Drivers/STM32H7xx_HAL_Driver/Src/stm32h7xx_hal.c **** }
 861              		.loc 1 526 1 is_stmt 0 view .LVU169
 862 000c 7047     		bx	lr
 863              	.L78:
 864 000e 00BF     		.align	2
 865              	.L77:
 866 0010 003C0058 		.word	1476410368
 867              		.cfi_endproc
 868              	.LFE151:
 870              		.section	.text.HAL_SYSCFG_VREFBUF_HighImpedanceConfig,"ax",%progbits
 871              		.align	1
 872              		.global	HAL_SYSCFG_VREFBUF_HighImpedanceConfig
 873              		.syntax unified
 874              		.thumb
 875              		.thumb_func
 876              		.fpu fpv4-sp-d16
 878              	HAL_SYSCFG_VREFBUF_HighImpedanceConfig:
 879              	.LVL27:
 880              	.LFB152:
 527:../../Drivers/STM32H7xx_HAL_Driver/Src/stm32h7xx_hal.c **** 
 528:../../Drivers/STM32H7xx_HAL_Driver/Src/stm32h7xx_hal.c **** /**
 529:../../Drivers/STM32H7xx_HAL_Driver/Src/stm32h7xx_hal.c ****   * @brief Configure the internal voltage reference buffer high impedance mode.
 530:../../Drivers/STM32H7xx_HAL_Driver/Src/stm32h7xx_hal.c ****   * @param Mode  specifies the high impedance mode
 531:../../Drivers/STM32H7xx_HAL_Driver/Src/stm32h7xx_hal.c ****   *          This parameter can be one of the following values:
 532:../../Drivers/STM32H7xx_HAL_Driver/Src/stm32h7xx_hal.c ****   *            @arg SYSCFG_VREFBUF_HIGH_IMPEDANCE_DISABLE: VREF+ pin is internally connect to VREFI
 533:../../Drivers/STM32H7xx_HAL_Driver/Src/stm32h7xx_hal.c ****   *            @arg SYSCFG_VREFBUF_HIGH_IMPEDANCE_ENABLE: VREF+ pin is high impedance.
 534:../../Drivers/STM32H7xx_HAL_Driver/Src/stm32h7xx_hal.c ****   * @retval None
 535:../../Drivers/STM32H7xx_HAL_Driver/Src/stm32h7xx_hal.c ****   */
 536:../../Drivers/STM32H7xx_HAL_Driver/Src/stm32h7xx_hal.c **** void HAL_SYSCFG_VREFBUF_HighImpedanceConfig(uint32_t Mode)
 537:../../Drivers/STM32H7xx_HAL_Driver/Src/stm32h7xx_hal.c **** {
 881              		.loc 1 537 1 is_stmt 1 view -0
 882              		.cfi_startproc
 883              		@ args = 0, pretend = 0, frame = 0
 884              		@ frame_needed = 0, uses_anonymous_args = 0
 885              		@ link register save eliminated.
 538:../../Drivers/STM32H7xx_HAL_Driver/Src/stm32h7xx_hal.c ****   /* Check the parameters */
 539:../../Drivers/STM32H7xx_HAL_Driver/Src/stm32h7xx_hal.c ****   assert_param(IS_SYSCFG_VREFBUF_HIGH_IMPEDANCE(Mode));
 886              		.loc 1 539 3 view .LVU171
 540:../../Drivers/STM32H7xx_HAL_Driver/Src/stm32h7xx_hal.c **** 
 541:../../Drivers/STM32H7xx_HAL_Driver/Src/stm32h7xx_hal.c ****   MODIFY_REG(VREFBUF->CSR, VREFBUF_CSR_HIZ, Mode);
 887              		.loc 1 541 3 view .LVU172
 888 0000 034A     		ldr	r2, .L80
 889 0002 1368     		ldr	r3, [r2]
 890 0004 23F00203 		bic	r3, r3, #2
 891 0008 0343     		orrs	r3, r3, r0
 892 000a 1360     		str	r3, [r2]
 542:../../Drivers/STM32H7xx_HAL_Driver/Src/stm32h7xx_hal.c **** }
 893              		.loc 1 542 1 is_stmt 0 view .LVU173
 894 000c 7047     		bx	lr
ARM GAS  /tmp/ccoUsChM.s 			page 27


 895              	.L81:
 896 000e 00BF     		.align	2
 897              	.L80:
 898 0010 003C0058 		.word	1476410368
 899              		.cfi_endproc
 900              	.LFE152:
 902              		.section	.text.HAL_SYSCFG_VREFBUF_TrimmingConfig,"ax",%progbits
 903              		.align	1
 904              		.global	HAL_SYSCFG_VREFBUF_TrimmingConfig
 905              		.syntax unified
 906              		.thumb
 907              		.thumb_func
 908              		.fpu fpv4-sp-d16
 910              	HAL_SYSCFG_VREFBUF_TrimmingConfig:
 911              	.LVL28:
 912              	.LFB153:
 543:../../Drivers/STM32H7xx_HAL_Driver/Src/stm32h7xx_hal.c **** 
 544:../../Drivers/STM32H7xx_HAL_Driver/Src/stm32h7xx_hal.c **** /**
 545:../../Drivers/STM32H7xx_HAL_Driver/Src/stm32h7xx_hal.c ****   * @brief  Tune the Internal Voltage Reference buffer (VREFBUF).
 546:../../Drivers/STM32H7xx_HAL_Driver/Src/stm32h7xx_hal.c ****   * @retval None
 547:../../Drivers/STM32H7xx_HAL_Driver/Src/stm32h7xx_hal.c ****   */
 548:../../Drivers/STM32H7xx_HAL_Driver/Src/stm32h7xx_hal.c **** void HAL_SYSCFG_VREFBUF_TrimmingConfig(uint32_t TrimmingValue)
 549:../../Drivers/STM32H7xx_HAL_Driver/Src/stm32h7xx_hal.c **** {
 913              		.loc 1 549 1 is_stmt 1 view -0
 914              		.cfi_startproc
 915              		@ args = 0, pretend = 0, frame = 0
 916              		@ frame_needed = 0, uses_anonymous_args = 0
 917              		@ link register save eliminated.
 550:../../Drivers/STM32H7xx_HAL_Driver/Src/stm32h7xx_hal.c ****   /* Check the parameters */
 551:../../Drivers/STM32H7xx_HAL_Driver/Src/stm32h7xx_hal.c ****   assert_param(IS_SYSCFG_VREFBUF_TRIMMING(TrimmingValue));
 918              		.loc 1 551 3 view .LVU175
 552:../../Drivers/STM32H7xx_HAL_Driver/Src/stm32h7xx_hal.c **** 
 553:../../Drivers/STM32H7xx_HAL_Driver/Src/stm32h7xx_hal.c ****   MODIFY_REG(VREFBUF->CCR, VREFBUF_CCR_TRIM, TrimmingValue);
 919              		.loc 1 553 3 view .LVU176
 920 0000 034A     		ldr	r2, .L83
 921 0002 5368     		ldr	r3, [r2, #4]
 922 0004 23F03F03 		bic	r3, r3, #63
 923 0008 0343     		orrs	r3, r3, r0
 924 000a 5360     		str	r3, [r2, #4]
 554:../../Drivers/STM32H7xx_HAL_Driver/Src/stm32h7xx_hal.c **** }
 925              		.loc 1 554 1 is_stmt 0 view .LVU177
 926 000c 7047     		bx	lr
 927              	.L84:
 928 000e 00BF     		.align	2
 929              	.L83:
 930 0010 003C0058 		.word	1476410368
 931              		.cfi_endproc
 932              	.LFE153:
 934              		.section	.text.HAL_SYSCFG_EnableVREFBUF,"ax",%progbits
 935              		.align	1
 936              		.global	HAL_SYSCFG_EnableVREFBUF
 937              		.syntax unified
 938              		.thumb
 939              		.thumb_func
 940              		.fpu fpv4-sp-d16
 942              	HAL_SYSCFG_EnableVREFBUF:
 943              	.LFB154:
ARM GAS  /tmp/ccoUsChM.s 			page 28


 555:../../Drivers/STM32H7xx_HAL_Driver/Src/stm32h7xx_hal.c **** 
 556:../../Drivers/STM32H7xx_HAL_Driver/Src/stm32h7xx_hal.c **** /**
 557:../../Drivers/STM32H7xx_HAL_Driver/Src/stm32h7xx_hal.c ****   * @brief  Enable the Internal Voltage Reference buffer (VREFBUF).
 558:../../Drivers/STM32H7xx_HAL_Driver/Src/stm32h7xx_hal.c ****   * @retval HAL_OK/HAL_TIMEOUT
 559:../../Drivers/STM32H7xx_HAL_Driver/Src/stm32h7xx_hal.c ****   */
 560:../../Drivers/STM32H7xx_HAL_Driver/Src/stm32h7xx_hal.c **** HAL_StatusTypeDef HAL_SYSCFG_EnableVREFBUF(void)
 561:../../Drivers/STM32H7xx_HAL_Driver/Src/stm32h7xx_hal.c **** {
 944              		.loc 1 561 1 is_stmt 1 view -0
 945              		.cfi_startproc
 946              		@ args = 0, pretend = 0, frame = 0
 947              		@ frame_needed = 0, uses_anonymous_args = 0
 948 0000 10B5     		push	{r4, lr}
 949              	.LCFI8:
 950              		.cfi_def_cfa_offset 8
 951              		.cfi_offset 4, -8
 952              		.cfi_offset 14, -4
 562:../../Drivers/STM32H7xx_HAL_Driver/Src/stm32h7xx_hal.c ****   uint32_t  tickstart;
 953              		.loc 1 562 3 view .LVU179
 563:../../Drivers/STM32H7xx_HAL_Driver/Src/stm32h7xx_hal.c **** 
 564:../../Drivers/STM32H7xx_HAL_Driver/Src/stm32h7xx_hal.c ****   SET_BIT(VREFBUF->CSR, VREFBUF_CSR_ENVR);
 954              		.loc 1 564 3 view .LVU180
 955 0002 0B4A     		ldr	r2, .L92
 956 0004 1368     		ldr	r3, [r2]
 957 0006 43F00103 		orr	r3, r3, #1
 958 000a 1360     		str	r3, [r2]
 565:../../Drivers/STM32H7xx_HAL_Driver/Src/stm32h7xx_hal.c **** 
 566:../../Drivers/STM32H7xx_HAL_Driver/Src/stm32h7xx_hal.c ****   /* Get Start Tick*/
 567:../../Drivers/STM32H7xx_HAL_Driver/Src/stm32h7xx_hal.c ****   tickstart = HAL_GetTick();
 959              		.loc 1 567 3 view .LVU181
 960              		.loc 1 567 15 is_stmt 0 view .LVU182
 961 000c FFF7FEFF 		bl	HAL_GetTick
 962              	.LVL29:
 963 0010 0446     		mov	r4, r0
 964              	.LVL30:
 568:../../Drivers/STM32H7xx_HAL_Driver/Src/stm32h7xx_hal.c **** 
 569:../../Drivers/STM32H7xx_HAL_Driver/Src/stm32h7xx_hal.c ****   /* Wait for VRR bit  */
 570:../../Drivers/STM32H7xx_HAL_Driver/Src/stm32h7xx_hal.c ****   while(READ_BIT(VREFBUF->CSR, VREFBUF_CSR_VRR) == 0UL)
 965              		.loc 1 570 3 is_stmt 1 view .LVU183
 966              	.L86:
 967              		.loc 1 570 8 view .LVU184
 968              		.loc 1 570 9 is_stmt 0 view .LVU185
 969 0012 074B     		ldr	r3, .L92
 970 0014 1B68     		ldr	r3, [r3]
 971              		.loc 1 570 8 view .LVU186
 972 0016 13F0080F 		tst	r3, #8
 973 001a 06D1     		bne	.L91
 571:../../Drivers/STM32H7xx_HAL_Driver/Src/stm32h7xx_hal.c ****   {
 572:../../Drivers/STM32H7xx_HAL_Driver/Src/stm32h7xx_hal.c ****     if((HAL_GetTick() - tickstart) > VREFBUF_TIMEOUT_VALUE)
 974              		.loc 1 572 5 is_stmt 1 view .LVU187
 975              		.loc 1 572 9 is_stmt 0 view .LVU188
 976 001c FFF7FEFF 		bl	HAL_GetTick
 977              	.LVL31:
 978              		.loc 1 572 23 view .LVU189
 979 0020 001B     		subs	r0, r0, r4
 980              		.loc 1 572 7 view .LVU190
 981 0022 0A28     		cmp	r0, #10
 982 0024 F5D9     		bls	.L86
ARM GAS  /tmp/ccoUsChM.s 			page 29


 573:../../Drivers/STM32H7xx_HAL_Driver/Src/stm32h7xx_hal.c ****     {
 574:../../Drivers/STM32H7xx_HAL_Driver/Src/stm32h7xx_hal.c ****       return HAL_TIMEOUT;
 983              		.loc 1 574 14 view .LVU191
 984 0026 0320     		movs	r0, #3
 985 0028 00E0     		b	.L87
 986              	.L91:
 575:../../Drivers/STM32H7xx_HAL_Driver/Src/stm32h7xx_hal.c ****     }
 576:../../Drivers/STM32H7xx_HAL_Driver/Src/stm32h7xx_hal.c ****   }
 577:../../Drivers/STM32H7xx_HAL_Driver/Src/stm32h7xx_hal.c **** 
 578:../../Drivers/STM32H7xx_HAL_Driver/Src/stm32h7xx_hal.c ****   return HAL_OK;
 987              		.loc 1 578 10 view .LVU192
 988 002a 0020     		movs	r0, #0
 989              	.L87:
 579:../../Drivers/STM32H7xx_HAL_Driver/Src/stm32h7xx_hal.c **** }
 990              		.loc 1 579 1 view .LVU193
 991 002c 10BD     		pop	{r4, pc}
 992              	.LVL32:
 993              	.L93:
 994              		.loc 1 579 1 view .LVU194
 995 002e 00BF     		.align	2
 996              	.L92:
 997 0030 003C0058 		.word	1476410368
 998              		.cfi_endproc
 999              	.LFE154:
 1001              		.section	.text.HAL_SYSCFG_DisableVREFBUF,"ax",%progbits
 1002              		.align	1
 1003              		.global	HAL_SYSCFG_DisableVREFBUF
 1004              		.syntax unified
 1005              		.thumb
 1006              		.thumb_func
 1007              		.fpu fpv4-sp-d16
 1009              	HAL_SYSCFG_DisableVREFBUF:
 1010              	.LFB155:
 580:../../Drivers/STM32H7xx_HAL_Driver/Src/stm32h7xx_hal.c **** 
 581:../../Drivers/STM32H7xx_HAL_Driver/Src/stm32h7xx_hal.c **** /**
 582:../../Drivers/STM32H7xx_HAL_Driver/Src/stm32h7xx_hal.c ****   * @brief  Disable the Internal Voltage Reference buffer (VREFBUF).
 583:../../Drivers/STM32H7xx_HAL_Driver/Src/stm32h7xx_hal.c ****   *
 584:../../Drivers/STM32H7xx_HAL_Driver/Src/stm32h7xx_hal.c ****   * @retval None
 585:../../Drivers/STM32H7xx_HAL_Driver/Src/stm32h7xx_hal.c ****   */
 586:../../Drivers/STM32H7xx_HAL_Driver/Src/stm32h7xx_hal.c **** void HAL_SYSCFG_DisableVREFBUF(void)
 587:../../Drivers/STM32H7xx_HAL_Driver/Src/stm32h7xx_hal.c **** {
 1011              		.loc 1 587 1 is_stmt 1 view -0
 1012              		.cfi_startproc
 1013              		@ args = 0, pretend = 0, frame = 0
 1014              		@ frame_needed = 0, uses_anonymous_args = 0
 1015              		@ link register save eliminated.
 588:../../Drivers/STM32H7xx_HAL_Driver/Src/stm32h7xx_hal.c ****   CLEAR_BIT(VREFBUF->CSR, VREFBUF_CSR_ENVR);
 1016              		.loc 1 588 3 view .LVU196
 1017 0000 024A     		ldr	r2, .L95
 1018 0002 1368     		ldr	r3, [r2]
 1019 0004 23F00103 		bic	r3, r3, #1
 1020 0008 1360     		str	r3, [r2]
 589:../../Drivers/STM32H7xx_HAL_Driver/Src/stm32h7xx_hal.c **** }
 1021              		.loc 1 589 1 is_stmt 0 view .LVU197
 1022 000a 7047     		bx	lr
 1023              	.L96:
 1024              		.align	2
ARM GAS  /tmp/ccoUsChM.s 			page 30


 1025              	.L95:
 1026 000c 003C0058 		.word	1476410368
 1027              		.cfi_endproc
 1028              	.LFE155:
 1030              		.section	.text.HAL_SYSCFG_ETHInterfaceSelect,"ax",%progbits
 1031              		.align	1
 1032              		.global	HAL_SYSCFG_ETHInterfaceSelect
 1033              		.syntax unified
 1034              		.thumb
 1035              		.thumb_func
 1036              		.fpu fpv4-sp-d16
 1038              	HAL_SYSCFG_ETHInterfaceSelect:
 1039              	.LVL33:
 1040              	.LFB156:
 590:../../Drivers/STM32H7xx_HAL_Driver/Src/stm32h7xx_hal.c **** 
 591:../../Drivers/STM32H7xx_HAL_Driver/Src/stm32h7xx_hal.c **** #if defined(SYSCFG_PMCR_EPIS_SEL)
 592:../../Drivers/STM32H7xx_HAL_Driver/Src/stm32h7xx_hal.c **** /**
 593:../../Drivers/STM32H7xx_HAL_Driver/Src/stm32h7xx_hal.c ****   * @brief  Ethernet PHY Interface Selection either MII or RMII
 594:../../Drivers/STM32H7xx_HAL_Driver/Src/stm32h7xx_hal.c ****   * @param  SYSCFG_ETHInterface: Selects the Ethernet PHY interface
 595:../../Drivers/STM32H7xx_HAL_Driver/Src/stm32h7xx_hal.c ****   *   This parameter can be one of the following values:
 596:../../Drivers/STM32H7xx_HAL_Driver/Src/stm32h7xx_hal.c ****   *   @arg SYSCFG_ETH_MII : Select the Media Independent Interface
 597:../../Drivers/STM32H7xx_HAL_Driver/Src/stm32h7xx_hal.c ****   *   @arg SYSCFG_ETH_RMII: Select the Reduced Media Independent Interface
 598:../../Drivers/STM32H7xx_HAL_Driver/Src/stm32h7xx_hal.c ****   * @retval None
 599:../../Drivers/STM32H7xx_HAL_Driver/Src/stm32h7xx_hal.c ****   */
 600:../../Drivers/STM32H7xx_HAL_Driver/Src/stm32h7xx_hal.c **** void HAL_SYSCFG_ETHInterfaceSelect(uint32_t SYSCFG_ETHInterface)
 601:../../Drivers/STM32H7xx_HAL_Driver/Src/stm32h7xx_hal.c **** {
 1041              		.loc 1 601 1 is_stmt 1 view -0
 1042              		.cfi_startproc
 1043              		@ args = 0, pretend = 0, frame = 0
 1044              		@ frame_needed = 0, uses_anonymous_args = 0
 1045              		@ link register save eliminated.
 602:../../Drivers/STM32H7xx_HAL_Driver/Src/stm32h7xx_hal.c ****   /* Check the parameter */
 603:../../Drivers/STM32H7xx_HAL_Driver/Src/stm32h7xx_hal.c ****   assert_param(IS_SYSCFG_ETHERNET_CONFIG(SYSCFG_ETHInterface));
 1046              		.loc 1 603 3 view .LVU199
 604:../../Drivers/STM32H7xx_HAL_Driver/Src/stm32h7xx_hal.c **** 
 605:../../Drivers/STM32H7xx_HAL_Driver/Src/stm32h7xx_hal.c ****   MODIFY_REG(SYSCFG->PMCR, SYSCFG_PMCR_EPIS_SEL, (uint32_t)(SYSCFG_ETHInterface));
 1047              		.loc 1 605 3 view .LVU200
 1048 0000 034A     		ldr	r2, .L98
 1049 0002 5368     		ldr	r3, [r2, #4]
 1050 0004 23F46003 		bic	r3, r3, #14680064
 1051 0008 0343     		orrs	r3, r3, r0
 1052 000a 5360     		str	r3, [r2, #4]
 606:../../Drivers/STM32H7xx_HAL_Driver/Src/stm32h7xx_hal.c **** }
 1053              		.loc 1 606 1 is_stmt 0 view .LVU201
 1054 000c 7047     		bx	lr
 1055              	.L99:
 1056 000e 00BF     		.align	2
 1057              	.L98:
 1058 0010 00040058 		.word	1476396032
 1059              		.cfi_endproc
 1060              	.LFE156:
 1062              		.section	.text.HAL_SYSCFG_AnalogSwitchConfig,"ax",%progbits
 1063              		.align	1
 1064              		.global	HAL_SYSCFG_AnalogSwitchConfig
 1065              		.syntax unified
 1066              		.thumb
 1067              		.thumb_func
ARM GAS  /tmp/ccoUsChM.s 			page 31


 1068              		.fpu fpv4-sp-d16
 1070              	HAL_SYSCFG_AnalogSwitchConfig:
 1071              	.LVL34:
 1072              	.LFB157:
 607:../../Drivers/STM32H7xx_HAL_Driver/Src/stm32h7xx_hal.c **** #endif /* SYSCFG_PMCR_EPIS_SEL */
 608:../../Drivers/STM32H7xx_HAL_Driver/Src/stm32h7xx_hal.c **** 
 609:../../Drivers/STM32H7xx_HAL_Driver/Src/stm32h7xx_hal.c **** /**
 610:../../Drivers/STM32H7xx_HAL_Driver/Src/stm32h7xx_hal.c ****   * @brief  Analog Switch control for dual analog pads.
 611:../../Drivers/STM32H7xx_HAL_Driver/Src/stm32h7xx_hal.c ****   * @param  SYSCFG_AnalogSwitch: Selects the analog pad
 612:../../Drivers/STM32H7xx_HAL_Driver/Src/stm32h7xx_hal.c ****   *   This parameter can be one or a combination of the following values:
 613:../../Drivers/STM32H7xx_HAL_Driver/Src/stm32h7xx_hal.c ****   *   @arg SYSCFG_SWITCH_PA0 : Select PA0 analog switch
 614:../../Drivers/STM32H7xx_HAL_Driver/Src/stm32h7xx_hal.c ****   *   @arg SYSCFG_SWITCH_PA1:  Select PA1 analog switch
 615:../../Drivers/STM32H7xx_HAL_Driver/Src/stm32h7xx_hal.c ****   *   @arg SYSCFG_SWITCH_PC2 : Select PC2 analog switch
 616:../../Drivers/STM32H7xx_HAL_Driver/Src/stm32h7xx_hal.c ****   *   @arg SYSCFG_SWITCH_PC3:  Select PC3 analog switch
 617:../../Drivers/STM32H7xx_HAL_Driver/Src/stm32h7xx_hal.c ****   * @param  SYSCFG_SwitchState: Open or Close the analog switch between dual pads (PXn and PXn_C)
 618:../../Drivers/STM32H7xx_HAL_Driver/Src/stm32h7xx_hal.c ****   *   This parameter can be one or a combination of the following values:
 619:../../Drivers/STM32H7xx_HAL_Driver/Src/stm32h7xx_hal.c ****   *   @arg SYSCFG_SWITCH_PA0_OPEN
 620:../../Drivers/STM32H7xx_HAL_Driver/Src/stm32h7xx_hal.c ****   *   @arg SYSCFG_SWITCH_PA0_CLOSE
 621:../../Drivers/STM32H7xx_HAL_Driver/Src/stm32h7xx_hal.c ****   *   @arg SYSCFG_SWITCH_PA1_OPEN
 622:../../Drivers/STM32H7xx_HAL_Driver/Src/stm32h7xx_hal.c ****   *   @arg SYSCFG_SWITCH_PA1_CLOSE
 623:../../Drivers/STM32H7xx_HAL_Driver/Src/stm32h7xx_hal.c ****   *   @arg SYSCFG_SWITCH_PC2_OPEN
 624:../../Drivers/STM32H7xx_HAL_Driver/Src/stm32h7xx_hal.c ****   *   @arg SYSCFG_SWITCH_PC2_CLOSE
 625:../../Drivers/STM32H7xx_HAL_Driver/Src/stm32h7xx_hal.c ****   *   @arg SYSCFG_SWITCH_PC3_OPEN
 626:../../Drivers/STM32H7xx_HAL_Driver/Src/stm32h7xx_hal.c ****   *   @arg SYSCFG_SWITCH_PC3_CLOSE
 627:../../Drivers/STM32H7xx_HAL_Driver/Src/stm32h7xx_hal.c ****   * @retval None
 628:../../Drivers/STM32H7xx_HAL_Driver/Src/stm32h7xx_hal.c ****   */
 629:../../Drivers/STM32H7xx_HAL_Driver/Src/stm32h7xx_hal.c **** 
 630:../../Drivers/STM32H7xx_HAL_Driver/Src/stm32h7xx_hal.c **** void HAL_SYSCFG_AnalogSwitchConfig(uint32_t SYSCFG_AnalogSwitch , uint32_t SYSCFG_SwitchState )
 631:../../Drivers/STM32H7xx_HAL_Driver/Src/stm32h7xx_hal.c **** {
 1073              		.loc 1 631 1 is_stmt 1 view -0
 1074              		.cfi_startproc
 1075              		@ args = 0, pretend = 0, frame = 0
 1076              		@ frame_needed = 0, uses_anonymous_args = 0
 1077              		@ link register save eliminated.
 632:../../Drivers/STM32H7xx_HAL_Driver/Src/stm32h7xx_hal.c ****   /* Check the parameter */
 633:../../Drivers/STM32H7xx_HAL_Driver/Src/stm32h7xx_hal.c ****   assert_param(IS_SYSCFG_ANALOG_SWITCH(SYSCFG_AnalogSwitch));
 1078              		.loc 1 633 3 view .LVU203
 634:../../Drivers/STM32H7xx_HAL_Driver/Src/stm32h7xx_hal.c ****   assert_param(IS_SYSCFG_SWITCH_STATE(SYSCFG_SwitchState));
 1079              		.loc 1 634 3 view .LVU204
 635:../../Drivers/STM32H7xx_HAL_Driver/Src/stm32h7xx_hal.c **** 
 636:../../Drivers/STM32H7xx_HAL_Driver/Src/stm32h7xx_hal.c ****   MODIFY_REG(SYSCFG->PMCR, (uint32_t) SYSCFG_AnalogSwitch, (uint32_t)(SYSCFG_SwitchState));
 1080              		.loc 1 636 3 view .LVU205
 1081 0000 034A     		ldr	r2, .L101
 1082 0002 5368     		ldr	r3, [r2, #4]
 1083 0004 23EA0003 		bic	r3, r3, r0
 1084 0008 0B43     		orrs	r3, r3, r1
 1085 000a 5360     		str	r3, [r2, #4]
 637:../../Drivers/STM32H7xx_HAL_Driver/Src/stm32h7xx_hal.c **** }
 1086              		.loc 1 637 1 is_stmt 0 view .LVU206
 1087 000c 7047     		bx	lr
 1088              	.L102:
 1089 000e 00BF     		.align	2
 1090              	.L101:
 1091 0010 00040058 		.word	1476396032
 1092              		.cfi_endproc
 1093              	.LFE157:
 1095              		.section	.text.HAL_SYSCFG_EnableBOOST,"ax",%progbits
ARM GAS  /tmp/ccoUsChM.s 			page 32


 1096              		.align	1
 1097              		.global	HAL_SYSCFG_EnableBOOST
 1098              		.syntax unified
 1099              		.thumb
 1100              		.thumb_func
 1101              		.fpu fpv4-sp-d16
 1103              	HAL_SYSCFG_EnableBOOST:
 1104              	.LFB158:
 638:../../Drivers/STM32H7xx_HAL_Driver/Src/stm32h7xx_hal.c **** 
 639:../../Drivers/STM32H7xx_HAL_Driver/Src/stm32h7xx_hal.c **** #if defined(SYSCFG_PMCR_BOOSTEN)
 640:../../Drivers/STM32H7xx_HAL_Driver/Src/stm32h7xx_hal.c **** /**
 641:../../Drivers/STM32H7xx_HAL_Driver/Src/stm32h7xx_hal.c ****   * @brief  Enables the booster to reduce the total harmonic distortion of the analog
 642:../../Drivers/STM32H7xx_HAL_Driver/Src/stm32h7xx_hal.c ****   *         switch when the supply voltage is lower than 2.7 V.
 643:../../Drivers/STM32H7xx_HAL_Driver/Src/stm32h7xx_hal.c ****   * @note   Activating the booster allows to guaranty the analog switch AC performance
 644:../../Drivers/STM32H7xx_HAL_Driver/Src/stm32h7xx_hal.c ****   *         when the supply voltage is below 2.7 V: in this case, the analog switch
 645:../../Drivers/STM32H7xx_HAL_Driver/Src/stm32h7xx_hal.c ****   *         performance is the same on the full voltage range
 646:../../Drivers/STM32H7xx_HAL_Driver/Src/stm32h7xx_hal.c ****   * @retval None
 647:../../Drivers/STM32H7xx_HAL_Driver/Src/stm32h7xx_hal.c ****   */
 648:../../Drivers/STM32H7xx_HAL_Driver/Src/stm32h7xx_hal.c **** void HAL_SYSCFG_EnableBOOST(void)
 649:../../Drivers/STM32H7xx_HAL_Driver/Src/stm32h7xx_hal.c **** {
 1105              		.loc 1 649 1 is_stmt 1 view -0
 1106              		.cfi_startproc
 1107              		@ args = 0, pretend = 0, frame = 0
 1108              		@ frame_needed = 0, uses_anonymous_args = 0
 1109              		@ link register save eliminated.
 650:../../Drivers/STM32H7xx_HAL_Driver/Src/stm32h7xx_hal.c ****  SET_BIT(SYSCFG->PMCR, SYSCFG_PMCR_BOOSTEN) ;
 1110              		.loc 1 650 2 view .LVU208
 1111 0000 024A     		ldr	r2, .L104
 1112 0002 5368     		ldr	r3, [r2, #4]
 1113 0004 43F48073 		orr	r3, r3, #256
 1114 0008 5360     		str	r3, [r2, #4]
 651:../../Drivers/STM32H7xx_HAL_Driver/Src/stm32h7xx_hal.c **** }
 1115              		.loc 1 651 1 is_stmt 0 view .LVU209
 1116 000a 7047     		bx	lr
 1117              	.L105:
 1118              		.align	2
 1119              	.L104:
 1120 000c 00040058 		.word	1476396032
 1121              		.cfi_endproc
 1122              	.LFE158:
 1124              		.section	.text.HAL_SYSCFG_DisableBOOST,"ax",%progbits
 1125              		.align	1
 1126              		.global	HAL_SYSCFG_DisableBOOST
 1127              		.syntax unified
 1128              		.thumb
 1129              		.thumb_func
 1130              		.fpu fpv4-sp-d16
 1132              	HAL_SYSCFG_DisableBOOST:
 1133              	.LFB159:
 652:../../Drivers/STM32H7xx_HAL_Driver/Src/stm32h7xx_hal.c **** 
 653:../../Drivers/STM32H7xx_HAL_Driver/Src/stm32h7xx_hal.c **** /**
 654:../../Drivers/STM32H7xx_HAL_Driver/Src/stm32h7xx_hal.c ****   * @brief  Disables the booster
 655:../../Drivers/STM32H7xx_HAL_Driver/Src/stm32h7xx_hal.c ****   * @note   Activating the booster allows to guaranty the analog switch AC performance
 656:../../Drivers/STM32H7xx_HAL_Driver/Src/stm32h7xx_hal.c ****   *         when the supply voltage is below 2.7 V: in this case, the analog switch
 657:../../Drivers/STM32H7xx_HAL_Driver/Src/stm32h7xx_hal.c ****   *         performance is the same on the full voltage range
 658:../../Drivers/STM32H7xx_HAL_Driver/Src/stm32h7xx_hal.c ****   * @retval None
 659:../../Drivers/STM32H7xx_HAL_Driver/Src/stm32h7xx_hal.c ****   */
ARM GAS  /tmp/ccoUsChM.s 			page 33


 660:../../Drivers/STM32H7xx_HAL_Driver/Src/stm32h7xx_hal.c **** void HAL_SYSCFG_DisableBOOST(void)
 661:../../Drivers/STM32H7xx_HAL_Driver/Src/stm32h7xx_hal.c **** {
 1134              		.loc 1 661 1 is_stmt 1 view -0
 1135              		.cfi_startproc
 1136              		@ args = 0, pretend = 0, frame = 0
 1137              		@ frame_needed = 0, uses_anonymous_args = 0
 1138              		@ link register save eliminated.
 662:../../Drivers/STM32H7xx_HAL_Driver/Src/stm32h7xx_hal.c ****  CLEAR_BIT(SYSCFG->PMCR, SYSCFG_PMCR_BOOSTEN) ;
 1139              		.loc 1 662 2 view .LVU211
 1140 0000 024A     		ldr	r2, .L107
 1141 0002 5368     		ldr	r3, [r2, #4]
 1142 0004 23F48073 		bic	r3, r3, #256
 1143 0008 5360     		str	r3, [r2, #4]
 663:../../Drivers/STM32H7xx_HAL_Driver/Src/stm32h7xx_hal.c **** }
 1144              		.loc 1 663 1 is_stmt 0 view .LVU212
 1145 000a 7047     		bx	lr
 1146              	.L108:
 1147              		.align	2
 1148              	.L107:
 1149 000c 00040058 		.word	1476396032
 1150              		.cfi_endproc
 1151              	.LFE159:
 1153              		.section	.text.HAL_SYSCFG_CM7BootAddConfig,"ax",%progbits
 1154              		.align	1
 1155              		.global	HAL_SYSCFG_CM7BootAddConfig
 1156              		.syntax unified
 1157              		.thumb
 1158              		.thumb_func
 1159              		.fpu fpv4-sp-d16
 1161              	HAL_SYSCFG_CM7BootAddConfig:
 1162              	.LVL35:
 1163              	.LFB160:
 664:../../Drivers/STM32H7xx_HAL_Driver/Src/stm32h7xx_hal.c **** #endif /* SYSCFG_PMCR_BOOSTEN */
 665:../../Drivers/STM32H7xx_HAL_Driver/Src/stm32h7xx_hal.c **** 
 666:../../Drivers/STM32H7xx_HAL_Driver/Src/stm32h7xx_hal.c **** #if defined (SYSCFG_UR2_BOOT_ADD0) ||  defined (SYSCFG_UR2_BCM7_ADD0)
 667:../../Drivers/STM32H7xx_HAL_Driver/Src/stm32h7xx_hal.c **** /**
 668:../../Drivers/STM32H7xx_HAL_Driver/Src/stm32h7xx_hal.c ****   * @brief  BootCM7 address 0 configuration
 669:../../Drivers/STM32H7xx_HAL_Driver/Src/stm32h7xx_hal.c ****   * @param  BootRegister :Specifies the Boot Address register (Address0 or Address1)
 670:../../Drivers/STM32H7xx_HAL_Driver/Src/stm32h7xx_hal.c ****   *   This parameter can be one of the following values:
 671:../../Drivers/STM32H7xx_HAL_Driver/Src/stm32h7xx_hal.c ****   *   @arg SYSCFG_BOOT_ADDR0 : Select the boot address0
 672:../../Drivers/STM32H7xx_HAL_Driver/Src/stm32h7xx_hal.c ****   *   @arg SYSCFG_BOOT_ADDR1:  Select the boot address1
 673:../../Drivers/STM32H7xx_HAL_Driver/Src/stm32h7xx_hal.c ****   * @param  BootAddress :Specifies the CM7 Boot Address to be loaded in Address0 or Address1
 674:../../Drivers/STM32H7xx_HAL_Driver/Src/stm32h7xx_hal.c ****   * @retval None
 675:../../Drivers/STM32H7xx_HAL_Driver/Src/stm32h7xx_hal.c ****   */
 676:../../Drivers/STM32H7xx_HAL_Driver/Src/stm32h7xx_hal.c **** void HAL_SYSCFG_CM7BootAddConfig(uint32_t BootRegister, uint32_t BootAddress)
 677:../../Drivers/STM32H7xx_HAL_Driver/Src/stm32h7xx_hal.c **** {
 1164              		.loc 1 677 1 is_stmt 1 view -0
 1165              		.cfi_startproc
 1166              		@ args = 0, pretend = 0, frame = 0
 1167              		@ frame_needed = 0, uses_anonymous_args = 0
 1168              		@ link register save eliminated.
 678:../../Drivers/STM32H7xx_HAL_Driver/Src/stm32h7xx_hal.c ****   /* Check the parameters */
 679:../../Drivers/STM32H7xx_HAL_Driver/Src/stm32h7xx_hal.c ****   assert_param(IS_SYSCFG_BOOT_REGISTER(BootRegister));
 1169              		.loc 1 679 3 view .LVU214
 680:../../Drivers/STM32H7xx_HAL_Driver/Src/stm32h7xx_hal.c ****   assert_param(IS_SYSCFG_BOOT_ADDRESS(BootAddress));
 1170              		.loc 1 680 3 view .LVU215
 681:../../Drivers/STM32H7xx_HAL_Driver/Src/stm32h7xx_hal.c ****   if ( BootRegister == SYSCFG_BOOT_ADDR0 )
ARM GAS  /tmp/ccoUsChM.s 			page 34


 1171              		.loc 1 681 3 view .LVU216
 1172              		.loc 1 681 6 is_stmt 0 view .LVU217
 1173 0000 48B9     		cbnz	r0, .L110
 682:../../Drivers/STM32H7xx_HAL_Driver/Src/stm32h7xx_hal.c ****   {
 683:../../Drivers/STM32H7xx_HAL_Driver/Src/stm32h7xx_hal.c ****     /* Configure CM7 BOOT ADD0 */
 684:../../Drivers/STM32H7xx_HAL_Driver/Src/stm32h7xx_hal.c **** #if defined(DUAL_CORE)
 685:../../Drivers/STM32H7xx_HAL_Driver/Src/stm32h7xx_hal.c ****     MODIFY_REG(SYSCFG->UR2, SYSCFG_UR2_BCM7_ADD0, ((BootAddress >> 16) << SYSCFG_UR2_BCM7_ADD0_Pos)
 1174              		.loc 1 685 5 is_stmt 1 view .LVU218
 1175 0002 0A48     		ldr	r0, .L112
 1176              	.LVL36:
 1177              		.loc 1 685 5 is_stmt 0 view .LVU219
 1178 0004 D0F80833 		ldr	r3, [r0, #776]
 1179 0008 9BB2     		uxth	r3, r3
 1180 000a 094A     		ldr	r2, .L112+4
 1181 000c 0A40     		ands	r2, r2, r1
 1182 000e 1343     		orrs	r3, r3, r2
 1183 0010 C0F80833 		str	r3, [r0, #776]
 1184 0014 7047     		bx	lr
 1185              	.LVL37:
 1186              	.L110:
 686:../../Drivers/STM32H7xx_HAL_Driver/Src/stm32h7xx_hal.c **** #else
 687:../../Drivers/STM32H7xx_HAL_Driver/Src/stm32h7xx_hal.c ****     MODIFY_REG(SYSCFG->UR2, SYSCFG_UR2_BOOT_ADD0, ((BootAddress >> 16) << SYSCFG_UR2_BOOT_ADD0_Pos)
 688:../../Drivers/STM32H7xx_HAL_Driver/Src/stm32h7xx_hal.c **** #endif /*DUAL_CORE*/
 689:../../Drivers/STM32H7xx_HAL_Driver/Src/stm32h7xx_hal.c ****   }
 690:../../Drivers/STM32H7xx_HAL_Driver/Src/stm32h7xx_hal.c ****   else
 691:../../Drivers/STM32H7xx_HAL_Driver/Src/stm32h7xx_hal.c ****   {
 692:../../Drivers/STM32H7xx_HAL_Driver/Src/stm32h7xx_hal.c ****     /* Configure CM7 BOOT ADD1 */
 693:../../Drivers/STM32H7xx_HAL_Driver/Src/stm32h7xx_hal.c **** #if defined(DUAL_CORE)
 694:../../Drivers/STM32H7xx_HAL_Driver/Src/stm32h7xx_hal.c ****     MODIFY_REG(SYSCFG->UR3, SYSCFG_UR3_BCM7_ADD1, (BootAddress >> 16));
 1187              		.loc 1 694 5 is_stmt 1 view .LVU220
 1188 0016 054A     		ldr	r2, .L112
 1189 0018 D2F80C03 		ldr	r0, [r2, #780]
 1190              	.LVL38:
 1191              		.loc 1 694 5 is_stmt 0 view .LVU221
 1192 001c 044B     		ldr	r3, .L112+4
 1193 001e 0340     		ands	r3, r3, r0
 1194 0020 43EA1141 		orr	r1, r3, r1, lsr #16
 1195              	.LVL39:
 1196              		.loc 1 694 5 view .LVU222
 1197 0024 C2F80C13 		str	r1, [r2, #780]
 695:../../Drivers/STM32H7xx_HAL_Driver/Src/stm32h7xx_hal.c **** #else
 696:../../Drivers/STM32H7xx_HAL_Driver/Src/stm32h7xx_hal.c ****     MODIFY_REG(SYSCFG->UR3, SYSCFG_UR3_BOOT_ADD1, (BootAddress >> 16));
 697:../../Drivers/STM32H7xx_HAL_Driver/Src/stm32h7xx_hal.c **** #endif /*DUAL_CORE*/
 698:../../Drivers/STM32H7xx_HAL_Driver/Src/stm32h7xx_hal.c ****   }
 699:../../Drivers/STM32H7xx_HAL_Driver/Src/stm32h7xx_hal.c **** }
 1198              		.loc 1 699 1 view .LVU223
 1199 0028 7047     		bx	lr
 1200              	.L113:
 1201 002a 00BF     		.align	2
 1202              	.L112:
 1203 002c 00040058 		.word	1476396032
 1204 0030 0000FFFF 		.word	-65536
 1205              		.cfi_endproc
 1206              	.LFE160:
 1208              		.section	.text.HAL_SYSCFG_CM4BootAddConfig,"ax",%progbits
 1209              		.align	1
 1210              		.global	HAL_SYSCFG_CM4BootAddConfig
ARM GAS  /tmp/ccoUsChM.s 			page 35


 1211              		.syntax unified
 1212              		.thumb
 1213              		.thumb_func
 1214              		.fpu fpv4-sp-d16
 1216              	HAL_SYSCFG_CM4BootAddConfig:
 1217              	.LVL40:
 1218              	.LFB161:
 700:../../Drivers/STM32H7xx_HAL_Driver/Src/stm32h7xx_hal.c **** #endif /* SYSCFG_UR2_BOOT_ADD0 || SYSCFG_UR2_BCM7_ADD0 */
 701:../../Drivers/STM32H7xx_HAL_Driver/Src/stm32h7xx_hal.c **** 
 702:../../Drivers/STM32H7xx_HAL_Driver/Src/stm32h7xx_hal.c **** #if defined(DUAL_CORE)
 703:../../Drivers/STM32H7xx_HAL_Driver/Src/stm32h7xx_hal.c **** /**
 704:../../Drivers/STM32H7xx_HAL_Driver/Src/stm32h7xx_hal.c ****   * @brief  BootCM4 address 0 configuration
 705:../../Drivers/STM32H7xx_HAL_Driver/Src/stm32h7xx_hal.c ****   * @param  BootRegister :Specifies the Boot Address register (Address0 or Address1)
 706:../../Drivers/STM32H7xx_HAL_Driver/Src/stm32h7xx_hal.c ****   *   This parameter can be one of the following values:
 707:../../Drivers/STM32H7xx_HAL_Driver/Src/stm32h7xx_hal.c ****   *   @arg SYSCFG_BOOT_ADDR0 : Select the boot address0
 708:../../Drivers/STM32H7xx_HAL_Driver/Src/stm32h7xx_hal.c ****   *   @arg SYSCFG_BOOT_ADDR1:  Select the boot address1
 709:../../Drivers/STM32H7xx_HAL_Driver/Src/stm32h7xx_hal.c ****   * @param  BootAddress :Specifies the CM4 Boot Address to be loaded in Address0 or Address1
 710:../../Drivers/STM32H7xx_HAL_Driver/Src/stm32h7xx_hal.c ****   * @retval None
 711:../../Drivers/STM32H7xx_HAL_Driver/Src/stm32h7xx_hal.c ****   */
 712:../../Drivers/STM32H7xx_HAL_Driver/Src/stm32h7xx_hal.c **** void HAL_SYSCFG_CM4BootAddConfig(uint32_t BootRegister, uint32_t BootAddress)
 713:../../Drivers/STM32H7xx_HAL_Driver/Src/stm32h7xx_hal.c **** {
 1219              		.loc 1 713 1 is_stmt 1 view -0
 1220              		.cfi_startproc
 1221              		@ args = 0, pretend = 0, frame = 0
 1222              		@ frame_needed = 0, uses_anonymous_args = 0
 1223              		@ link register save eliminated.
 714:../../Drivers/STM32H7xx_HAL_Driver/Src/stm32h7xx_hal.c ****   /* Check the parameters */
 715:../../Drivers/STM32H7xx_HAL_Driver/Src/stm32h7xx_hal.c ****   assert_param(IS_SYSCFG_BOOT_REGISTER(BootRegister));
 1224              		.loc 1 715 3 view .LVU225
 716:../../Drivers/STM32H7xx_HAL_Driver/Src/stm32h7xx_hal.c ****   assert_param(IS_SYSCFG_BOOT_ADDRESS(BootAddress));
 1225              		.loc 1 716 3 view .LVU226
 717:../../Drivers/STM32H7xx_HAL_Driver/Src/stm32h7xx_hal.c **** 
 718:../../Drivers/STM32H7xx_HAL_Driver/Src/stm32h7xx_hal.c ****   if ( BootRegister == SYSCFG_BOOT_ADDR0 )
 1226              		.loc 1 718 3 view .LVU227
 1227              		.loc 1 718 6 is_stmt 0 view .LVU228
 1228 0000 48B9     		cbnz	r0, .L115
 719:../../Drivers/STM32H7xx_HAL_Driver/Src/stm32h7xx_hal.c ****   {
 720:../../Drivers/STM32H7xx_HAL_Driver/Src/stm32h7xx_hal.c ****     /* Configure CM4 BOOT ADD0 */
 721:../../Drivers/STM32H7xx_HAL_Driver/Src/stm32h7xx_hal.c ****     MODIFY_REG(SYSCFG->UR3, SYSCFG_UR3_BCM4_ADD0, ((BootAddress >> 16)<< SYSCFG_UR3_BCM4_ADD0_Pos))
 1229              		.loc 1 721 5 is_stmt 1 view .LVU229
 1230 0002 0A48     		ldr	r0, .L117
 1231              	.LVL41:
 1232              		.loc 1 721 5 is_stmt 0 view .LVU230
 1233 0004 D0F80C33 		ldr	r3, [r0, #780]
 1234 0008 9BB2     		uxth	r3, r3
 1235 000a 094A     		ldr	r2, .L117+4
 1236 000c 0A40     		ands	r2, r2, r1
 1237 000e 1343     		orrs	r3, r3, r2
 1238 0010 C0F80C33 		str	r3, [r0, #780]
 1239 0014 7047     		bx	lr
 1240              	.LVL42:
 1241              	.L115:
 722:../../Drivers/STM32H7xx_HAL_Driver/Src/stm32h7xx_hal.c ****   }
 723:../../Drivers/STM32H7xx_HAL_Driver/Src/stm32h7xx_hal.c **** 
 724:../../Drivers/STM32H7xx_HAL_Driver/Src/stm32h7xx_hal.c ****   else
 725:../../Drivers/STM32H7xx_HAL_Driver/Src/stm32h7xx_hal.c ****   {
 726:../../Drivers/STM32H7xx_HAL_Driver/Src/stm32h7xx_hal.c ****     /* Configure CM4 BOOT ADD1 */
ARM GAS  /tmp/ccoUsChM.s 			page 36


 727:../../Drivers/STM32H7xx_HAL_Driver/Src/stm32h7xx_hal.c ****     MODIFY_REG(SYSCFG->UR4, SYSCFG_UR4_BCM4_ADD1, (BootAddress >> 16));
 1242              		.loc 1 727 5 is_stmt 1 view .LVU231
 1243 0016 054A     		ldr	r2, .L117
 1244 0018 D2F81003 		ldr	r0, [r2, #784]
 1245              	.LVL43:
 1246              		.loc 1 727 5 is_stmt 0 view .LVU232
 1247 001c 044B     		ldr	r3, .L117+4
 1248 001e 0340     		ands	r3, r3, r0
 1249 0020 43EA1141 		orr	r1, r3, r1, lsr #16
 1250              	.LVL44:
 1251              		.loc 1 727 5 view .LVU233
 1252 0024 C2F81013 		str	r1, [r2, #784]
 728:../../Drivers/STM32H7xx_HAL_Driver/Src/stm32h7xx_hal.c ****   }
 729:../../Drivers/STM32H7xx_HAL_Driver/Src/stm32h7xx_hal.c **** }
 1253              		.loc 1 729 1 view .LVU234
 1254 0028 7047     		bx	lr
 1255              	.L118:
 1256 002a 00BF     		.align	2
 1257              	.L117:
 1258 002c 00040058 		.word	1476396032
 1259 0030 0000FFFF 		.word	-65536
 1260              		.cfi_endproc
 1261              	.LFE161:
 1263              		.section	.text.HAL_SYSCFG_EnableCM7BOOT,"ax",%progbits
 1264              		.align	1
 1265              		.global	HAL_SYSCFG_EnableCM7BOOT
 1266              		.syntax unified
 1267              		.thumb
 1268              		.thumb_func
 1269              		.fpu fpv4-sp-d16
 1271              	HAL_SYSCFG_EnableCM7BOOT:
 1272              	.LFB162:
 730:../../Drivers/STM32H7xx_HAL_Driver/Src/stm32h7xx_hal.c **** 
 731:../../Drivers/STM32H7xx_HAL_Driver/Src/stm32h7xx_hal.c **** /**
 732:../../Drivers/STM32H7xx_HAL_Driver/Src/stm32h7xx_hal.c ****   * @brief  Enables the Cortex-M7 boot
 733:../../Drivers/STM32H7xx_HAL_Driver/Src/stm32h7xx_hal.c ****   * @retval None
 734:../../Drivers/STM32H7xx_HAL_Driver/Src/stm32h7xx_hal.c ****   */
 735:../../Drivers/STM32H7xx_HAL_Driver/Src/stm32h7xx_hal.c **** void HAL_SYSCFG_EnableCM7BOOT(void)
 736:../../Drivers/STM32H7xx_HAL_Driver/Src/stm32h7xx_hal.c **** {
 1273              		.loc 1 736 1 is_stmt 1 view -0
 1274              		.cfi_startproc
 1275              		@ args = 0, pretend = 0, frame = 0
 1276              		@ frame_needed = 0, uses_anonymous_args = 0
 1277              		@ link register save eliminated.
 737:../../Drivers/STM32H7xx_HAL_Driver/Src/stm32h7xx_hal.c ****  SET_BIT(SYSCFG->UR1, SYSCFG_UR1_BCM7);
 1278              		.loc 1 737 2 view .LVU236
 1279 0000 034A     		ldr	r2, .L120
 1280 0002 D2F80433 		ldr	r3, [r2, #772]
 1281 0006 43F48033 		orr	r3, r3, #65536
 1282 000a C2F80433 		str	r3, [r2, #772]
 738:../../Drivers/STM32H7xx_HAL_Driver/Src/stm32h7xx_hal.c **** }
 1283              		.loc 1 738 1 is_stmt 0 view .LVU237
 1284 000e 7047     		bx	lr
 1285              	.L121:
 1286              		.align	2
 1287              	.L120:
 1288 0010 00040058 		.word	1476396032
ARM GAS  /tmp/ccoUsChM.s 			page 37


 1289              		.cfi_endproc
 1290              	.LFE162:
 1292              		.section	.text.HAL_SYSCFG_DisableCM7BOOT,"ax",%progbits
 1293              		.align	1
 1294              		.global	HAL_SYSCFG_DisableCM7BOOT
 1295              		.syntax unified
 1296              		.thumb
 1297              		.thumb_func
 1298              		.fpu fpv4-sp-d16
 1300              	HAL_SYSCFG_DisableCM7BOOT:
 1301              	.LFB163:
 739:../../Drivers/STM32H7xx_HAL_Driver/Src/stm32h7xx_hal.c **** 
 740:../../Drivers/STM32H7xx_HAL_Driver/Src/stm32h7xx_hal.c **** /**
 741:../../Drivers/STM32H7xx_HAL_Driver/Src/stm32h7xx_hal.c ****   * @brief  Disables the Cortex-M7 boot
 742:../../Drivers/STM32H7xx_HAL_Driver/Src/stm32h7xx_hal.c ****   * @note   Disabling the boot will gate the CPU clock
 743:../../Drivers/STM32H7xx_HAL_Driver/Src/stm32h7xx_hal.c ****   * @retval None
 744:../../Drivers/STM32H7xx_HAL_Driver/Src/stm32h7xx_hal.c ****   */
 745:../../Drivers/STM32H7xx_HAL_Driver/Src/stm32h7xx_hal.c **** void HAL_SYSCFG_DisableCM7BOOT(void)
 746:../../Drivers/STM32H7xx_HAL_Driver/Src/stm32h7xx_hal.c **** {
 1302              		.loc 1 746 1 is_stmt 1 view -0
 1303              		.cfi_startproc
 1304              		@ args = 0, pretend = 0, frame = 0
 1305              		@ frame_needed = 0, uses_anonymous_args = 0
 1306              		@ link register save eliminated.
 747:../../Drivers/STM32H7xx_HAL_Driver/Src/stm32h7xx_hal.c ****  CLEAR_BIT(SYSCFG->UR1, SYSCFG_UR1_BCM7) ;
 1307              		.loc 1 747 2 view .LVU239
 1308 0000 034A     		ldr	r2, .L123
 1309 0002 D2F80433 		ldr	r3, [r2, #772]
 1310 0006 23F48033 		bic	r3, r3, #65536
 1311 000a C2F80433 		str	r3, [r2, #772]
 748:../../Drivers/STM32H7xx_HAL_Driver/Src/stm32h7xx_hal.c **** }
 1312              		.loc 1 748 1 is_stmt 0 view .LVU240
 1313 000e 7047     		bx	lr
 1314              	.L124:
 1315              		.align	2
 1316              	.L123:
 1317 0010 00040058 		.word	1476396032
 1318              		.cfi_endproc
 1319              	.LFE163:
 1321              		.section	.text.HAL_SYSCFG_EnableCM4BOOT,"ax",%progbits
 1322              		.align	1
 1323              		.global	HAL_SYSCFG_EnableCM4BOOT
 1324              		.syntax unified
 1325              		.thumb
 1326              		.thumb_func
 1327              		.fpu fpv4-sp-d16
 1329              	HAL_SYSCFG_EnableCM4BOOT:
 1330              	.LFB164:
 749:../../Drivers/STM32H7xx_HAL_Driver/Src/stm32h7xx_hal.c **** 
 750:../../Drivers/STM32H7xx_HAL_Driver/Src/stm32h7xx_hal.c **** /**
 751:../../Drivers/STM32H7xx_HAL_Driver/Src/stm32h7xx_hal.c ****   * @brief  Enables the Cortex-M4 boot
 752:../../Drivers/STM32H7xx_HAL_Driver/Src/stm32h7xx_hal.c ****   * @retval None
 753:../../Drivers/STM32H7xx_HAL_Driver/Src/stm32h7xx_hal.c ****   */
 754:../../Drivers/STM32H7xx_HAL_Driver/Src/stm32h7xx_hal.c **** void HAL_SYSCFG_EnableCM4BOOT(void)
 755:../../Drivers/STM32H7xx_HAL_Driver/Src/stm32h7xx_hal.c **** {
 1331              		.loc 1 755 1 is_stmt 1 view -0
 1332              		.cfi_startproc
ARM GAS  /tmp/ccoUsChM.s 			page 38


 1333              		@ args = 0, pretend = 0, frame = 0
 1334              		@ frame_needed = 0, uses_anonymous_args = 0
 1335              		@ link register save eliminated.
 756:../../Drivers/STM32H7xx_HAL_Driver/Src/stm32h7xx_hal.c ****  SET_BIT(SYSCFG->UR1, SYSCFG_UR1_BCM4);
 1336              		.loc 1 756 2 view .LVU242
 1337 0000 034A     		ldr	r2, .L126
 1338 0002 D2F80433 		ldr	r3, [r2, #772]
 1339 0006 43F00103 		orr	r3, r3, #1
 1340 000a C2F80433 		str	r3, [r2, #772]
 757:../../Drivers/STM32H7xx_HAL_Driver/Src/stm32h7xx_hal.c **** }
 1341              		.loc 1 757 1 is_stmt 0 view .LVU243
 1342 000e 7047     		bx	lr
 1343              	.L127:
 1344              		.align	2
 1345              	.L126:
 1346 0010 00040058 		.word	1476396032
 1347              		.cfi_endproc
 1348              	.LFE164:
 1350              		.section	.text.HAL_SYSCFG_DisableCM4BOOT,"ax",%progbits
 1351              		.align	1
 1352              		.global	HAL_SYSCFG_DisableCM4BOOT
 1353              		.syntax unified
 1354              		.thumb
 1355              		.thumb_func
 1356              		.fpu fpv4-sp-d16
 1358              	HAL_SYSCFG_DisableCM4BOOT:
 1359              	.LFB165:
 758:../../Drivers/STM32H7xx_HAL_Driver/Src/stm32h7xx_hal.c **** 
 759:../../Drivers/STM32H7xx_HAL_Driver/Src/stm32h7xx_hal.c **** /**
 760:../../Drivers/STM32H7xx_HAL_Driver/Src/stm32h7xx_hal.c ****   * @brief  Disables the Cortex-M4 boot
 761:../../Drivers/STM32H7xx_HAL_Driver/Src/stm32h7xx_hal.c ****   * @note   Disabling the boot will gate the CPU clock
 762:../../Drivers/STM32H7xx_HAL_Driver/Src/stm32h7xx_hal.c ****   * @retval None
 763:../../Drivers/STM32H7xx_HAL_Driver/Src/stm32h7xx_hal.c ****   */
 764:../../Drivers/STM32H7xx_HAL_Driver/Src/stm32h7xx_hal.c **** void HAL_SYSCFG_DisableCM4BOOT(void)
 765:../../Drivers/STM32H7xx_HAL_Driver/Src/stm32h7xx_hal.c **** {
 1360              		.loc 1 765 1 is_stmt 1 view -0
 1361              		.cfi_startproc
 1362              		@ args = 0, pretend = 0, frame = 0
 1363              		@ frame_needed = 0, uses_anonymous_args = 0
 1364              		@ link register save eliminated.
 766:../../Drivers/STM32H7xx_HAL_Driver/Src/stm32h7xx_hal.c ****   CLEAR_BIT(SYSCFG->UR1, SYSCFG_UR1_BCM4);
 1365              		.loc 1 766 3 view .LVU245
 1366 0000 034A     		ldr	r2, .L129
 1367 0002 D2F80433 		ldr	r3, [r2, #772]
 1368 0006 23F00103 		bic	r3, r3, #1
 1369 000a C2F80433 		str	r3, [r2, #772]
 767:../../Drivers/STM32H7xx_HAL_Driver/Src/stm32h7xx_hal.c **** }
 1370              		.loc 1 767 1 is_stmt 0 view .LVU246
 1371 000e 7047     		bx	lr
 1372              	.L130:
 1373              		.align	2
 1374              	.L129:
 1375 0010 00040058 		.word	1476396032
 1376              		.cfi_endproc
 1377              	.LFE165:
 1379              		.section	.text.HAL_EnableCompensationCell,"ax",%progbits
 1380              		.align	1
ARM GAS  /tmp/ccoUsChM.s 			page 39


 1381              		.global	HAL_EnableCompensationCell
 1382              		.syntax unified
 1383              		.thumb
 1384              		.thumb_func
 1385              		.fpu fpv4-sp-d16
 1387              	HAL_EnableCompensationCell:
 1388              	.LFB166:
 768:../../Drivers/STM32H7xx_HAL_Driver/Src/stm32h7xx_hal.c **** #endif /*DUAL_CORE*/
 769:../../Drivers/STM32H7xx_HAL_Driver/Src/stm32h7xx_hal.c **** /**
 770:../../Drivers/STM32H7xx_HAL_Driver/Src/stm32h7xx_hal.c ****   * @brief  Enables the I/O Compensation Cell.
 771:../../Drivers/STM32H7xx_HAL_Driver/Src/stm32h7xx_hal.c ****   * @note   The I/O compensation cell can be used only when the device supply
 772:../../Drivers/STM32H7xx_HAL_Driver/Src/stm32h7xx_hal.c ****   *         voltage ranges from 1.62 to 2.0 V and from 2.7 to 3.6 V.
 773:../../Drivers/STM32H7xx_HAL_Driver/Src/stm32h7xx_hal.c ****   * @retval None
 774:../../Drivers/STM32H7xx_HAL_Driver/Src/stm32h7xx_hal.c ****   */
 775:../../Drivers/STM32H7xx_HAL_Driver/Src/stm32h7xx_hal.c **** void HAL_EnableCompensationCell(void)
 776:../../Drivers/STM32H7xx_HAL_Driver/Src/stm32h7xx_hal.c **** {
 1389              		.loc 1 776 1 is_stmt 1 view -0
 1390              		.cfi_startproc
 1391              		@ args = 0, pretend = 0, frame = 0
 1392              		@ frame_needed = 0, uses_anonymous_args = 0
 1393              		@ link register save eliminated.
 777:../../Drivers/STM32H7xx_HAL_Driver/Src/stm32h7xx_hal.c ****   SET_BIT(SYSCFG->CCCSR, SYSCFG_CCCSR_EN) ;
 1394              		.loc 1 777 3 view .LVU248
 1395 0000 024A     		ldr	r2, .L132
 1396 0002 136A     		ldr	r3, [r2, #32]
 1397 0004 43F00103 		orr	r3, r3, #1
 1398 0008 1362     		str	r3, [r2, #32]
 778:../../Drivers/STM32H7xx_HAL_Driver/Src/stm32h7xx_hal.c **** }
 1399              		.loc 1 778 1 is_stmt 0 view .LVU249
 1400 000a 7047     		bx	lr
 1401              	.L133:
 1402              		.align	2
 1403              	.L132:
 1404 000c 00040058 		.word	1476396032
 1405              		.cfi_endproc
 1406              	.LFE166:
 1408              		.section	.text.HAL_DisableCompensationCell,"ax",%progbits
 1409              		.align	1
 1410              		.global	HAL_DisableCompensationCell
 1411              		.syntax unified
 1412              		.thumb
 1413              		.thumb_func
 1414              		.fpu fpv4-sp-d16
 1416              	HAL_DisableCompensationCell:
 1417              	.LFB167:
 779:../../Drivers/STM32H7xx_HAL_Driver/Src/stm32h7xx_hal.c **** 
 780:../../Drivers/STM32H7xx_HAL_Driver/Src/stm32h7xx_hal.c **** /**
 781:../../Drivers/STM32H7xx_HAL_Driver/Src/stm32h7xx_hal.c ****   * @brief  Power-down the I/O Compensation Cell.
 782:../../Drivers/STM32H7xx_HAL_Driver/Src/stm32h7xx_hal.c ****   * @note   The I/O compensation cell can be used only when the device supply
 783:../../Drivers/STM32H7xx_HAL_Driver/Src/stm32h7xx_hal.c ****   *         voltage ranges from 1.62 to 2.0 V and from 2.7 to 3.6 V.
 784:../../Drivers/STM32H7xx_HAL_Driver/Src/stm32h7xx_hal.c ****   * @retval None
 785:../../Drivers/STM32H7xx_HAL_Driver/Src/stm32h7xx_hal.c ****   */
 786:../../Drivers/STM32H7xx_HAL_Driver/Src/stm32h7xx_hal.c **** void HAL_DisableCompensationCell(void)
 787:../../Drivers/STM32H7xx_HAL_Driver/Src/stm32h7xx_hal.c **** {
 1418              		.loc 1 787 1 is_stmt 1 view -0
 1419              		.cfi_startproc
 1420              		@ args = 0, pretend = 0, frame = 0
ARM GAS  /tmp/ccoUsChM.s 			page 40


 1421              		@ frame_needed = 0, uses_anonymous_args = 0
 1422              		@ link register save eliminated.
 788:../../Drivers/STM32H7xx_HAL_Driver/Src/stm32h7xx_hal.c ****   CLEAR_BIT(SYSCFG->CCCSR, SYSCFG_CCCSR_EN);
 1423              		.loc 1 788 3 view .LVU251
 1424 0000 024A     		ldr	r2, .L135
 1425 0002 136A     		ldr	r3, [r2, #32]
 1426 0004 23F00103 		bic	r3, r3, #1
 1427 0008 1362     		str	r3, [r2, #32]
 789:../../Drivers/STM32H7xx_HAL_Driver/Src/stm32h7xx_hal.c **** }
 1428              		.loc 1 789 1 is_stmt 0 view .LVU252
 1429 000a 7047     		bx	lr
 1430              	.L136:
 1431              		.align	2
 1432              	.L135:
 1433 000c 00040058 		.word	1476396032
 1434              		.cfi_endproc
 1435              	.LFE167:
 1437              		.section	.text.HAL_SYSCFG_EnableIOSpeedOptimize,"ax",%progbits
 1438              		.align	1
 1439              		.global	HAL_SYSCFG_EnableIOSpeedOptimize
 1440              		.syntax unified
 1441              		.thumb
 1442              		.thumb_func
 1443              		.fpu fpv4-sp-d16
 1445              	HAL_SYSCFG_EnableIOSpeedOptimize:
 1446              	.LFB168:
 790:../../Drivers/STM32H7xx_HAL_Driver/Src/stm32h7xx_hal.c **** 
 791:../../Drivers/STM32H7xx_HAL_Driver/Src/stm32h7xx_hal.c **** 
 792:../../Drivers/STM32H7xx_HAL_Driver/Src/stm32h7xx_hal.c **** /**
 793:../../Drivers/STM32H7xx_HAL_Driver/Src/stm32h7xx_hal.c ****   * @brief  To Enable optimize the I/O speed when the product voltage is low.
 794:../../Drivers/STM32H7xx_HAL_Driver/Src/stm32h7xx_hal.c ****   * @note   This bit is active only if PRODUCT_BELOW_25V user option bit is set. It must be
 795:../../Drivers/STM32H7xx_HAL_Driver/Src/stm32h7xx_hal.c ****   *         used only if the product supply voltage is below 2.5 V. Setting this bit when VDD is
 796:../../Drivers/STM32H7xx_HAL_Driver/Src/stm32h7xx_hal.c ****   *         higher than 2.5 V might be destructive.
 797:../../Drivers/STM32H7xx_HAL_Driver/Src/stm32h7xx_hal.c ****   * @retval None
 798:../../Drivers/STM32H7xx_HAL_Driver/Src/stm32h7xx_hal.c ****   */
 799:../../Drivers/STM32H7xx_HAL_Driver/Src/stm32h7xx_hal.c **** void HAL_SYSCFG_EnableIOSpeedOptimize(void)
 800:../../Drivers/STM32H7xx_HAL_Driver/Src/stm32h7xx_hal.c **** {
 1447              		.loc 1 800 1 is_stmt 1 view -0
 1448              		.cfi_startproc
 1449              		@ args = 0, pretend = 0, frame = 0
 1450              		@ frame_needed = 0, uses_anonymous_args = 0
 1451              		@ link register save eliminated.
 801:../../Drivers/STM32H7xx_HAL_Driver/Src/stm32h7xx_hal.c **** #if defined(SYSCFG_CCCSR_HSLV)
 802:../../Drivers/STM32H7xx_HAL_Driver/Src/stm32h7xx_hal.c ****   SET_BIT(SYSCFG->CCCSR, SYSCFG_CCCSR_HSLV);
 1452              		.loc 1 802 3 view .LVU254
 1453 0000 024A     		ldr	r2, .L138
 1454 0002 136A     		ldr	r3, [r2, #32]
 1455 0004 43F48033 		orr	r3, r3, #65536
 1456 0008 1362     		str	r3, [r2, #32]
 803:../../Drivers/STM32H7xx_HAL_Driver/Src/stm32h7xx_hal.c **** #else
 804:../../Drivers/STM32H7xx_HAL_Driver/Src/stm32h7xx_hal.c ****   SET_BIT(SYSCFG->CCCSR, (SYSCFG_CCCSR_HSLV0| SYSCFG_CCCSR_HSLV1 | SYSCFG_CCCSR_HSLV2  | SYSCFG_CCC
 805:../../Drivers/STM32H7xx_HAL_Driver/Src/stm32h7xx_hal.c **** #endif   /* SYSCFG_CCCSR_HSLV */
 806:../../Drivers/STM32H7xx_HAL_Driver/Src/stm32h7xx_hal.c **** }
 1457              		.loc 1 806 1 is_stmt 0 view .LVU255
 1458 000a 7047     		bx	lr
 1459              	.L139:
 1460              		.align	2
ARM GAS  /tmp/ccoUsChM.s 			page 41


 1461              	.L138:
 1462 000c 00040058 		.word	1476396032
 1463              		.cfi_endproc
 1464              	.LFE168:
 1466              		.section	.text.HAL_SYSCFG_DisableIOSpeedOptimize,"ax",%progbits
 1467              		.align	1
 1468              		.global	HAL_SYSCFG_DisableIOSpeedOptimize
 1469              		.syntax unified
 1470              		.thumb
 1471              		.thumb_func
 1472              		.fpu fpv4-sp-d16
 1474              	HAL_SYSCFG_DisableIOSpeedOptimize:
 1475              	.LFB169:
 807:../../Drivers/STM32H7xx_HAL_Driver/Src/stm32h7xx_hal.c **** 
 808:../../Drivers/STM32H7xx_HAL_Driver/Src/stm32h7xx_hal.c **** /**
 809:../../Drivers/STM32H7xx_HAL_Driver/Src/stm32h7xx_hal.c ****   * @brief  To Disable optimize the I/O speed when the product voltage is low.
 810:../../Drivers/STM32H7xx_HAL_Driver/Src/stm32h7xx_hal.c ****   * @note   This bit is active only if PRODUCT_BELOW_25V user option bit is set. It must be
 811:../../Drivers/STM32H7xx_HAL_Driver/Src/stm32h7xx_hal.c ****   *         used only if the product supply voltage is below 2.5 V. Setting this bit when VDD is
 812:../../Drivers/STM32H7xx_HAL_Driver/Src/stm32h7xx_hal.c ****   *         higher than 2.5 V might be destructive.
 813:../../Drivers/STM32H7xx_HAL_Driver/Src/stm32h7xx_hal.c ****   * @retval None
 814:../../Drivers/STM32H7xx_HAL_Driver/Src/stm32h7xx_hal.c ****   */
 815:../../Drivers/STM32H7xx_HAL_Driver/Src/stm32h7xx_hal.c **** void HAL_SYSCFG_DisableIOSpeedOptimize(void)
 816:../../Drivers/STM32H7xx_HAL_Driver/Src/stm32h7xx_hal.c **** {
 1476              		.loc 1 816 1 is_stmt 1 view -0
 1477              		.cfi_startproc
 1478              		@ args = 0, pretend = 0, frame = 0
 1479              		@ frame_needed = 0, uses_anonymous_args = 0
 1480              		@ link register save eliminated.
 817:../../Drivers/STM32H7xx_HAL_Driver/Src/stm32h7xx_hal.c **** #if defined(SYSCFG_CCCSR_HSLV)
 818:../../Drivers/STM32H7xx_HAL_Driver/Src/stm32h7xx_hal.c ****   CLEAR_BIT(SYSCFG->CCCSR, SYSCFG_CCCSR_HSLV);
 1481              		.loc 1 818 3 view .LVU257
 1482 0000 024A     		ldr	r2, .L141
 1483 0002 136A     		ldr	r3, [r2, #32]
 1484 0004 23F48033 		bic	r3, r3, #65536
 1485 0008 1362     		str	r3, [r2, #32]
 819:../../Drivers/STM32H7xx_HAL_Driver/Src/stm32h7xx_hal.c **** #else
 820:../../Drivers/STM32H7xx_HAL_Driver/Src/stm32h7xx_hal.c ****   CLEAR_BIT(SYSCFG->CCCSR, (SYSCFG_CCCSR_HSLV0| SYSCFG_CCCSR_HSLV1 | SYSCFG_CCCSR_HSLV2  | SYSCFG_C
 821:../../Drivers/STM32H7xx_HAL_Driver/Src/stm32h7xx_hal.c **** #endif   /* SYSCFG_CCCSR_HSLV */
 822:../../Drivers/STM32H7xx_HAL_Driver/Src/stm32h7xx_hal.c **** }
 1486              		.loc 1 822 1 is_stmt 0 view .LVU258
 1487 000a 7047     		bx	lr
 1488              	.L142:
 1489              		.align	2
 1490              	.L141:
 1491 000c 00040058 		.word	1476396032
 1492              		.cfi_endproc
 1493              	.LFE169:
 1495              		.section	.text.HAL_SYSCFG_CompensationCodeSelect,"ax",%progbits
 1496              		.align	1
 1497              		.global	HAL_SYSCFG_CompensationCodeSelect
 1498              		.syntax unified
 1499              		.thumb
 1500              		.thumb_func
 1501              		.fpu fpv4-sp-d16
 1503              	HAL_SYSCFG_CompensationCodeSelect:
 1504              	.LVL45:
 1505              	.LFB170:
ARM GAS  /tmp/ccoUsChM.s 			page 42


 823:../../Drivers/STM32H7xx_HAL_Driver/Src/stm32h7xx_hal.c **** 
 824:../../Drivers/STM32H7xx_HAL_Driver/Src/stm32h7xx_hal.c **** /**
 825:../../Drivers/STM32H7xx_HAL_Driver/Src/stm32h7xx_hal.c ****   * @brief  Code selection for the I/O Compensation cell
 826:../../Drivers/STM32H7xx_HAL_Driver/Src/stm32h7xx_hal.c ****   * @param  SYSCFG_CompCode: Selects the code to be applied for the I/O compensation cell
 827:../../Drivers/STM32H7xx_HAL_Driver/Src/stm32h7xx_hal.c ****   *   This parameter can be one of the following values:
 828:../../Drivers/STM32H7xx_HAL_Driver/Src/stm32h7xx_hal.c ****   *   @arg SYSCFG_CELL_CODE : Select Code from the cell (available in the SYSCFG_CCVR)
 829:../../Drivers/STM32H7xx_HAL_Driver/Src/stm32h7xx_hal.c ****   *   @arg SYSCFG_REGISTER_CODE: Select Code from the SYSCFG compensation cell code register (SYSCF
 830:../../Drivers/STM32H7xx_HAL_Driver/Src/stm32h7xx_hal.c ****   * @retval None
 831:../../Drivers/STM32H7xx_HAL_Driver/Src/stm32h7xx_hal.c ****   */
 832:../../Drivers/STM32H7xx_HAL_Driver/Src/stm32h7xx_hal.c **** void HAL_SYSCFG_CompensationCodeSelect(uint32_t SYSCFG_CompCode)
 833:../../Drivers/STM32H7xx_HAL_Driver/Src/stm32h7xx_hal.c **** {
 1506              		.loc 1 833 1 is_stmt 1 view -0
 1507              		.cfi_startproc
 1508              		@ args = 0, pretend = 0, frame = 0
 1509              		@ frame_needed = 0, uses_anonymous_args = 0
 1510              		@ link register save eliminated.
 834:../../Drivers/STM32H7xx_HAL_Driver/Src/stm32h7xx_hal.c ****   /* Check the parameter */
 835:../../Drivers/STM32H7xx_HAL_Driver/Src/stm32h7xx_hal.c ****   assert_param(IS_SYSCFG_CODE_SELECT(SYSCFG_CompCode));
 1511              		.loc 1 835 3 view .LVU260
 836:../../Drivers/STM32H7xx_HAL_Driver/Src/stm32h7xx_hal.c ****   MODIFY_REG(SYSCFG->CCCSR, SYSCFG_CCCSR_CS, (uint32_t)(SYSCFG_CompCode));
 1512              		.loc 1 836 3 view .LVU261
 1513 0000 034A     		ldr	r2, .L144
 1514 0002 136A     		ldr	r3, [r2, #32]
 1515 0004 23F00203 		bic	r3, r3, #2
 1516 0008 0343     		orrs	r3, r3, r0
 1517 000a 1362     		str	r3, [r2, #32]
 837:../../Drivers/STM32H7xx_HAL_Driver/Src/stm32h7xx_hal.c **** }
 1518              		.loc 1 837 1 is_stmt 0 view .LVU262
 1519 000c 7047     		bx	lr
 1520              	.L145:
 1521 000e 00BF     		.align	2
 1522              	.L144:
 1523 0010 00040058 		.word	1476396032
 1524              		.cfi_endproc
 1525              	.LFE170:
 1527              		.section	.text.HAL_SYSCFG_CompensationCodeConfig,"ax",%progbits
 1528              		.align	1
 1529              		.global	HAL_SYSCFG_CompensationCodeConfig
 1530              		.syntax unified
 1531              		.thumb
 1532              		.thumb_func
 1533              		.fpu fpv4-sp-d16
 1535              	HAL_SYSCFG_CompensationCodeConfig:
 1536              	.LVL46:
 1537              	.LFB171:
 838:../../Drivers/STM32H7xx_HAL_Driver/Src/stm32h7xx_hal.c **** 
 839:../../Drivers/STM32H7xx_HAL_Driver/Src/stm32h7xx_hal.c **** /**
 840:../../Drivers/STM32H7xx_HAL_Driver/Src/stm32h7xx_hal.c ****   * @brief  Code selection for the I/O Compensation cell
 841:../../Drivers/STM32H7xx_HAL_Driver/Src/stm32h7xx_hal.c ****   * @param  SYSCFG_PMOSCode: PMOS compensation code
 842:../../Drivers/STM32H7xx_HAL_Driver/Src/stm32h7xx_hal.c ****   *         This code is applied to the I/O compensation cell when the CS bit of the
 843:../../Drivers/STM32H7xx_HAL_Driver/Src/stm32h7xx_hal.c ****   *          SYSCFG_CMPCR is set
 844:../../Drivers/STM32H7xx_HAL_Driver/Src/stm32h7xx_hal.c ****   * @param  SYSCFG_NMOSCode: NMOS compensation code
 845:../../Drivers/STM32H7xx_HAL_Driver/Src/stm32h7xx_hal.c ****   *         This code is applied to the I/O compensation cell when the CS bit of the
 846:../../Drivers/STM32H7xx_HAL_Driver/Src/stm32h7xx_hal.c ****   *          SYSCFG_CMPCR is set
 847:../../Drivers/STM32H7xx_HAL_Driver/Src/stm32h7xx_hal.c ****   * @retval None
 848:../../Drivers/STM32H7xx_HAL_Driver/Src/stm32h7xx_hal.c ****   */
 849:../../Drivers/STM32H7xx_HAL_Driver/Src/stm32h7xx_hal.c **** void HAL_SYSCFG_CompensationCodeConfig(uint32_t SYSCFG_PMOSCode, uint32_t SYSCFG_NMOSCode )
ARM GAS  /tmp/ccoUsChM.s 			page 43


 850:../../Drivers/STM32H7xx_HAL_Driver/Src/stm32h7xx_hal.c **** {
 1538              		.loc 1 850 1 is_stmt 1 view -0
 1539              		.cfi_startproc
 1540              		@ args = 0, pretend = 0, frame = 0
 1541              		@ frame_needed = 0, uses_anonymous_args = 0
 1542              		@ link register save eliminated.
 851:../../Drivers/STM32H7xx_HAL_Driver/Src/stm32h7xx_hal.c ****   /* Check the parameter */
 852:../../Drivers/STM32H7xx_HAL_Driver/Src/stm32h7xx_hal.c ****   assert_param(IS_SYSCFG_CODE_CONFIG(SYSCFG_PMOSCode));
 1543              		.loc 1 852 3 view .LVU264
 853:../../Drivers/STM32H7xx_HAL_Driver/Src/stm32h7xx_hal.c ****   assert_param(IS_SYSCFG_CODE_CONFIG(SYSCFG_NMOSCode));
 1544              		.loc 1 853 3 view .LVU265
 854:../../Drivers/STM32H7xx_HAL_Driver/Src/stm32h7xx_hal.c ****   MODIFY_REG(SYSCFG->CCCR, SYSCFG_CCCR_NCC|SYSCFG_CCCR_PCC, (((uint32_t)(SYSCFG_PMOSCode)<< 4)|(uin
 1545              		.loc 1 854 3 view .LVU266
 1546 0000 044A     		ldr	r2, .L147
 1547 0002 936A     		ldr	r3, [r2, #40]
 1548 0004 23F0FF03 		bic	r3, r3, #255
 1549 0008 41EA0011 		orr	r1, r1, r0, lsl #4
 1550              	.LVL47:
 1551              		.loc 1 854 3 is_stmt 0 view .LVU267
 1552 000c 0B43     		orrs	r3, r3, r1
 1553 000e 9362     		str	r3, [r2, #40]
 855:../../Drivers/STM32H7xx_HAL_Driver/Src/stm32h7xx_hal.c **** }
 1554              		.loc 1 855 1 view .LVU268
 1555 0010 7047     		bx	lr
 1556              	.L148:
 1557 0012 00BF     		.align	2
 1558              	.L147:
 1559 0014 00040058 		.word	1476396032
 1560              		.cfi_endproc
 1561              	.LFE171:
 1563              		.section	.text.HAL_DBGMCU_EnableDBGSleepMode,"ax",%progbits
 1564              		.align	1
 1565              		.global	HAL_DBGMCU_EnableDBGSleepMode
 1566              		.syntax unified
 1567              		.thumb
 1568              		.thumb_func
 1569              		.fpu fpv4-sp-d16
 1571              	HAL_DBGMCU_EnableDBGSleepMode:
 1572              	.LFB172:
 856:../../Drivers/STM32H7xx_HAL_Driver/Src/stm32h7xx_hal.c **** 
 857:../../Drivers/STM32H7xx_HAL_Driver/Src/stm32h7xx_hal.c **** #if defined(SYSCFG_CCCR_NCC_MMC)
 858:../../Drivers/STM32H7xx_HAL_Driver/Src/stm32h7xx_hal.c **** /**
 859:../../Drivers/STM32H7xx_HAL_Driver/Src/stm32h7xx_hal.c ****   * @brief  Code selection for the I/O Compensation cell
 860:../../Drivers/STM32H7xx_HAL_Driver/Src/stm32h7xx_hal.c ****   * @param  SYSCFG_PMOSCode: VDDMMC PMOS compensation code
 861:../../Drivers/STM32H7xx_HAL_Driver/Src/stm32h7xx_hal.c ****   *         This code is applied to the I/O compensation cell when the CS bit of the
 862:../../Drivers/STM32H7xx_HAL_Driver/Src/stm32h7xx_hal.c ****   *          SYSCFG_CMPCR is set
 863:../../Drivers/STM32H7xx_HAL_Driver/Src/stm32h7xx_hal.c ****   * @param  SYSCFG_NMOSCode: VDDMMC NMOS compensation code
 864:../../Drivers/STM32H7xx_HAL_Driver/Src/stm32h7xx_hal.c ****   *         This code is applied to the I/O compensation cell when the CS bit of the
 865:../../Drivers/STM32H7xx_HAL_Driver/Src/stm32h7xx_hal.c ****   *          SYSCFG_CMPCR is set
 866:../../Drivers/STM32H7xx_HAL_Driver/Src/stm32h7xx_hal.c ****   * @retval None
 867:../../Drivers/STM32H7xx_HAL_Driver/Src/stm32h7xx_hal.c ****   */
 868:../../Drivers/STM32H7xx_HAL_Driver/Src/stm32h7xx_hal.c **** void HAL_SYSCFG_VDDMMC_CompensationCodeConfig(uint32_t SYSCFG_PMOSCode, uint32_t SYSCFG_NMOSCode )
 869:../../Drivers/STM32H7xx_HAL_Driver/Src/stm32h7xx_hal.c **** {
 870:../../Drivers/STM32H7xx_HAL_Driver/Src/stm32h7xx_hal.c ****   /* Check the parameter */
 871:../../Drivers/STM32H7xx_HAL_Driver/Src/stm32h7xx_hal.c ****   assert_param(IS_SYSCFG_CODE_CONFIG(SYSCFG_PMOSCode));
 872:../../Drivers/STM32H7xx_HAL_Driver/Src/stm32h7xx_hal.c ****   assert_param(IS_SYSCFG_CODE_CONFIG(SYSCFG_NMOSCode));
 873:../../Drivers/STM32H7xx_HAL_Driver/Src/stm32h7xx_hal.c ****   MODIFY_REG(SYSCFG->CCCR, (SYSCFG_CCCR_NCC_MMC | SYSCFG_CCCR_PCC_MMC), (((uint32_t)(SYSCFG_PMOSCod
ARM GAS  /tmp/ccoUsChM.s 			page 44


 874:../../Drivers/STM32H7xx_HAL_Driver/Src/stm32h7xx_hal.c **** }
 875:../../Drivers/STM32H7xx_HAL_Driver/Src/stm32h7xx_hal.c **** #endif /* SYSCFG_CCCR_NCC_MMC */
 876:../../Drivers/STM32H7xx_HAL_Driver/Src/stm32h7xx_hal.c **** 
 877:../../Drivers/STM32H7xx_HAL_Driver/Src/stm32h7xx_hal.c **** #if defined(SYSCFG_ADC2ALT_ADC2_ROUT0)
 878:../../Drivers/STM32H7xx_HAL_Driver/Src/stm32h7xx_hal.c **** /** @brief  SYSCFG ADC2 internal input alternate connection macros
 879:../../Drivers/STM32H7xx_HAL_Driver/Src/stm32h7xx_hal.c ****   * @param Adc2AltRout0 This parameter can be a value of :
 880:../../Drivers/STM32H7xx_HAL_Driver/Src/stm32h7xx_hal.c ****   *     @arg @ref SYSCFG_ADC2_ROUT0_DAC1_1   DAC1_out1 connected to ADC2 VINP[16]
 881:../../Drivers/STM32H7xx_HAL_Driver/Src/stm32h7xx_hal.c ****   *     @arg @ref SYSCFG_ADC2_ROUT0_VBAT4    VBAT/4 connected to ADC2 VINP[16]
 882:../../Drivers/STM32H7xx_HAL_Driver/Src/stm32h7xx_hal.c ****   */
 883:../../Drivers/STM32H7xx_HAL_Driver/Src/stm32h7xx_hal.c **** void HAL_SYSCFG_ADC2ALT_Rout0Config(uint32_t Adc2AltRout0)
 884:../../Drivers/STM32H7xx_HAL_Driver/Src/stm32h7xx_hal.c **** {
 885:../../Drivers/STM32H7xx_HAL_Driver/Src/stm32h7xx_hal.c ****   /* Check the parameters */
 886:../../Drivers/STM32H7xx_HAL_Driver/Src/stm32h7xx_hal.c ****   assert_param(IS_SYSCFG_ADC2ALT_ROUT0(Adc2AltRout0));
 887:../../Drivers/STM32H7xx_HAL_Driver/Src/stm32h7xx_hal.c **** 
 888:../../Drivers/STM32H7xx_HAL_Driver/Src/stm32h7xx_hal.c ****   MODIFY_REG(SYSCFG->ADC2ALT, SYSCFG_ADC2ALT_ADC2_ROUT0, Adc2AltRout0);
 889:../../Drivers/STM32H7xx_HAL_Driver/Src/stm32h7xx_hal.c **** }
 890:../../Drivers/STM32H7xx_HAL_Driver/Src/stm32h7xx_hal.c **** #endif /*SYSCFG_ADC2ALT_ADC2_ROUT0*/
 891:../../Drivers/STM32H7xx_HAL_Driver/Src/stm32h7xx_hal.c **** 
 892:../../Drivers/STM32H7xx_HAL_Driver/Src/stm32h7xx_hal.c **** #if defined(SYSCFG_ADC2ALT_ADC2_ROUT1)
 893:../../Drivers/STM32H7xx_HAL_Driver/Src/stm32h7xx_hal.c **** /** @brief  SYSCFG ADC2 internal input alternate connection macros
 894:../../Drivers/STM32H7xx_HAL_Driver/Src/stm32h7xx_hal.c ****   * @param Adc2AltRout1  This parameter can be a value of :
 895:../../Drivers/STM32H7xx_HAL_Driver/Src/stm32h7xx_hal.c ****   *     @arg @ref SYSCFG_ADC2_ROUT1_DAC1_2   DAC1_out2 connected to ADC2 VINP[17]
 896:../../Drivers/STM32H7xx_HAL_Driver/Src/stm32h7xx_hal.c ****   *     @arg @ref SYSCFG_ADC2_ROUT1_VREFINT  VREFINT connected to ADC2 VINP[17]
 897:../../Drivers/STM32H7xx_HAL_Driver/Src/stm32h7xx_hal.c ****   */
 898:../../Drivers/STM32H7xx_HAL_Driver/Src/stm32h7xx_hal.c **** void HAL_SYSCFG_ADC2ALT_Rout1Config(uint32_t Adc2AltRout1)
 899:../../Drivers/STM32H7xx_HAL_Driver/Src/stm32h7xx_hal.c **** {
 900:../../Drivers/STM32H7xx_HAL_Driver/Src/stm32h7xx_hal.c ****   /* Check the parameters */
 901:../../Drivers/STM32H7xx_HAL_Driver/Src/stm32h7xx_hal.c ****   assert_param(IS_SYSCFG_ADC2ALT_ROUT1(Adc2AltRout1));
 902:../../Drivers/STM32H7xx_HAL_Driver/Src/stm32h7xx_hal.c **** 
 903:../../Drivers/STM32H7xx_HAL_Driver/Src/stm32h7xx_hal.c ****   MODIFY_REG(SYSCFG->ADC2ALT, SYSCFG_ADC2ALT_ADC2_ROUT1, Adc2AltRout1);
 904:../../Drivers/STM32H7xx_HAL_Driver/Src/stm32h7xx_hal.c **** }
 905:../../Drivers/STM32H7xx_HAL_Driver/Src/stm32h7xx_hal.c **** #endif /*SYSCFG_ADC2ALT_ADC2_ROUT1*/
 906:../../Drivers/STM32H7xx_HAL_Driver/Src/stm32h7xx_hal.c **** 
 907:../../Drivers/STM32H7xx_HAL_Driver/Src/stm32h7xx_hal.c **** /**
 908:../../Drivers/STM32H7xx_HAL_Driver/Src/stm32h7xx_hal.c ****   * @brief  Enable the Debug Module during Domain1/CDomain SLEEP mode
 909:../../Drivers/STM32H7xx_HAL_Driver/Src/stm32h7xx_hal.c ****   * @retval None
 910:../../Drivers/STM32H7xx_HAL_Driver/Src/stm32h7xx_hal.c ****   */
 911:../../Drivers/STM32H7xx_HAL_Driver/Src/stm32h7xx_hal.c **** void HAL_DBGMCU_EnableDBGSleepMode(void)
 912:../../Drivers/STM32H7xx_HAL_Driver/Src/stm32h7xx_hal.c **** {
 1573              		.loc 1 912 1 is_stmt 1 view -0
 1574              		.cfi_startproc
 1575              		@ args = 0, pretend = 0, frame = 0
 1576              		@ frame_needed = 0, uses_anonymous_args = 0
 1577              		@ link register save eliminated.
 913:../../Drivers/STM32H7xx_HAL_Driver/Src/stm32h7xx_hal.c ****   SET_BIT(DBGMCU->CR, DBGMCU_CR_DBG_SLEEPD1);
 1578              		.loc 1 913 3 view .LVU270
 1579 0000 024A     		ldr	r2, .L150
 1580 0002 5368     		ldr	r3, [r2, #4]
 1581 0004 43F00103 		orr	r3, r3, #1
 1582 0008 5360     		str	r3, [r2, #4]
 914:../../Drivers/STM32H7xx_HAL_Driver/Src/stm32h7xx_hal.c **** }
 1583              		.loc 1 914 1 is_stmt 0 view .LVU271
 1584 000a 7047     		bx	lr
 1585              	.L151:
 1586              		.align	2
 1587              	.L150:
 1588 000c 0010005C 		.word	1543507968
ARM GAS  /tmp/ccoUsChM.s 			page 45


 1589              		.cfi_endproc
 1590              	.LFE172:
 1592              		.section	.text.HAL_DBGMCU_DisableDBGSleepMode,"ax",%progbits
 1593              		.align	1
 1594              		.global	HAL_DBGMCU_DisableDBGSleepMode
 1595              		.syntax unified
 1596              		.thumb
 1597              		.thumb_func
 1598              		.fpu fpv4-sp-d16
 1600              	HAL_DBGMCU_DisableDBGSleepMode:
 1601              	.LFB173:
 915:../../Drivers/STM32H7xx_HAL_Driver/Src/stm32h7xx_hal.c **** 
 916:../../Drivers/STM32H7xx_HAL_Driver/Src/stm32h7xx_hal.c **** /**
 917:../../Drivers/STM32H7xx_HAL_Driver/Src/stm32h7xx_hal.c ****   * @brief  Disable the Debug Module during Domain1/CDomain SLEEP mode
 918:../../Drivers/STM32H7xx_HAL_Driver/Src/stm32h7xx_hal.c ****   * @retval None
 919:../../Drivers/STM32H7xx_HAL_Driver/Src/stm32h7xx_hal.c ****   */
 920:../../Drivers/STM32H7xx_HAL_Driver/Src/stm32h7xx_hal.c **** void HAL_DBGMCU_DisableDBGSleepMode(void)
 921:../../Drivers/STM32H7xx_HAL_Driver/Src/stm32h7xx_hal.c **** {
 1602              		.loc 1 921 1 is_stmt 1 view -0
 1603              		.cfi_startproc
 1604              		@ args = 0, pretend = 0, frame = 0
 1605              		@ frame_needed = 0, uses_anonymous_args = 0
 1606              		@ link register save eliminated.
 922:../../Drivers/STM32H7xx_HAL_Driver/Src/stm32h7xx_hal.c ****   CLEAR_BIT(DBGMCU->CR, DBGMCU_CR_DBG_SLEEPD1);
 1607              		.loc 1 922 3 view .LVU273
 1608 0000 024A     		ldr	r2, .L153
 1609 0002 5368     		ldr	r3, [r2, #4]
 1610 0004 23F00103 		bic	r3, r3, #1
 1611 0008 5360     		str	r3, [r2, #4]
 923:../../Drivers/STM32H7xx_HAL_Driver/Src/stm32h7xx_hal.c **** }
 1612              		.loc 1 923 1 is_stmt 0 view .LVU274
 1613 000a 7047     		bx	lr
 1614              	.L154:
 1615              		.align	2
 1616              	.L153:
 1617 000c 0010005C 		.word	1543507968
 1618              		.cfi_endproc
 1619              	.LFE173:
 1621              		.section	.text.HAL_DBGMCU_EnableDBGStopMode,"ax",%progbits
 1622              		.align	1
 1623              		.global	HAL_DBGMCU_EnableDBGStopMode
 1624              		.syntax unified
 1625              		.thumb
 1626              		.thumb_func
 1627              		.fpu fpv4-sp-d16
 1629              	HAL_DBGMCU_EnableDBGStopMode:
 1630              	.LFB174:
 924:../../Drivers/STM32H7xx_HAL_Driver/Src/stm32h7xx_hal.c **** 
 925:../../Drivers/STM32H7xx_HAL_Driver/Src/stm32h7xx_hal.c **** 
 926:../../Drivers/STM32H7xx_HAL_Driver/Src/stm32h7xx_hal.c **** /**
 927:../../Drivers/STM32H7xx_HAL_Driver/Src/stm32h7xx_hal.c ****   * @brief  Enable the Debug Module during Domain1/CDomain STOP mode
 928:../../Drivers/STM32H7xx_HAL_Driver/Src/stm32h7xx_hal.c ****   * @retval None
 929:../../Drivers/STM32H7xx_HAL_Driver/Src/stm32h7xx_hal.c ****   */
 930:../../Drivers/STM32H7xx_HAL_Driver/Src/stm32h7xx_hal.c **** void HAL_DBGMCU_EnableDBGStopMode(void)
 931:../../Drivers/STM32H7xx_HAL_Driver/Src/stm32h7xx_hal.c **** {
 1631              		.loc 1 931 1 is_stmt 1 view -0
 1632              		.cfi_startproc
ARM GAS  /tmp/ccoUsChM.s 			page 46


 1633              		@ args = 0, pretend = 0, frame = 0
 1634              		@ frame_needed = 0, uses_anonymous_args = 0
 1635              		@ link register save eliminated.
 932:../../Drivers/STM32H7xx_HAL_Driver/Src/stm32h7xx_hal.c ****   SET_BIT(DBGMCU->CR, DBGMCU_CR_DBG_STOPD1);
 1636              		.loc 1 932 3 view .LVU276
 1637 0000 024A     		ldr	r2, .L156
 1638 0002 5368     		ldr	r3, [r2, #4]
 1639 0004 43F00203 		orr	r3, r3, #2
 1640 0008 5360     		str	r3, [r2, #4]
 933:../../Drivers/STM32H7xx_HAL_Driver/Src/stm32h7xx_hal.c **** }
 1641              		.loc 1 933 1 is_stmt 0 view .LVU277
 1642 000a 7047     		bx	lr
 1643              	.L157:
 1644              		.align	2
 1645              	.L156:
 1646 000c 0010005C 		.word	1543507968
 1647              		.cfi_endproc
 1648              	.LFE174:
 1650              		.section	.text.HAL_DBGMCU_DisableDBGStopMode,"ax",%progbits
 1651              		.align	1
 1652              		.global	HAL_DBGMCU_DisableDBGStopMode
 1653              		.syntax unified
 1654              		.thumb
 1655              		.thumb_func
 1656              		.fpu fpv4-sp-d16
 1658              	HAL_DBGMCU_DisableDBGStopMode:
 1659              	.LFB175:
 934:../../Drivers/STM32H7xx_HAL_Driver/Src/stm32h7xx_hal.c **** 
 935:../../Drivers/STM32H7xx_HAL_Driver/Src/stm32h7xx_hal.c **** /**
 936:../../Drivers/STM32H7xx_HAL_Driver/Src/stm32h7xx_hal.c ****   * @brief  Disable the Debug Module during Domain1/CDomain STOP mode
 937:../../Drivers/STM32H7xx_HAL_Driver/Src/stm32h7xx_hal.c ****   * @retval None
 938:../../Drivers/STM32H7xx_HAL_Driver/Src/stm32h7xx_hal.c ****   */
 939:../../Drivers/STM32H7xx_HAL_Driver/Src/stm32h7xx_hal.c **** void HAL_DBGMCU_DisableDBGStopMode(void)
 940:../../Drivers/STM32H7xx_HAL_Driver/Src/stm32h7xx_hal.c **** {
 1660              		.loc 1 940 1 is_stmt 1 view -0
 1661              		.cfi_startproc
 1662              		@ args = 0, pretend = 0, frame = 0
 1663              		@ frame_needed = 0, uses_anonymous_args = 0
 1664              		@ link register save eliminated.
 941:../../Drivers/STM32H7xx_HAL_Driver/Src/stm32h7xx_hal.c ****   CLEAR_BIT(DBGMCU->CR, DBGMCU_CR_DBG_STOPD1);
 1665              		.loc 1 941 3 view .LVU279
 1666 0000 024A     		ldr	r2, .L159
 1667 0002 5368     		ldr	r3, [r2, #4]
 1668 0004 23F00203 		bic	r3, r3, #2
 1669 0008 5360     		str	r3, [r2, #4]
 942:../../Drivers/STM32H7xx_HAL_Driver/Src/stm32h7xx_hal.c **** }
 1670              		.loc 1 942 1 is_stmt 0 view .LVU280
 1671 000a 7047     		bx	lr
 1672              	.L160:
 1673              		.align	2
 1674              	.L159:
 1675 000c 0010005C 		.word	1543507968
 1676              		.cfi_endproc
 1677              	.LFE175:
 1679              		.section	.text.HAL_DBGMCU_EnableDBGStandbyMode,"ax",%progbits
 1680              		.align	1
 1681              		.global	HAL_DBGMCU_EnableDBGStandbyMode
ARM GAS  /tmp/ccoUsChM.s 			page 47


 1682              		.syntax unified
 1683              		.thumb
 1684              		.thumb_func
 1685              		.fpu fpv4-sp-d16
 1687              	HAL_DBGMCU_EnableDBGStandbyMode:
 1688              	.LFB176:
 943:../../Drivers/STM32H7xx_HAL_Driver/Src/stm32h7xx_hal.c **** 
 944:../../Drivers/STM32H7xx_HAL_Driver/Src/stm32h7xx_hal.c **** /**
 945:../../Drivers/STM32H7xx_HAL_Driver/Src/stm32h7xx_hal.c ****   * @brief  Enable the Debug Module during Domain1/CDomain STANDBY mode
 946:../../Drivers/STM32H7xx_HAL_Driver/Src/stm32h7xx_hal.c ****   * @retval None
 947:../../Drivers/STM32H7xx_HAL_Driver/Src/stm32h7xx_hal.c ****   */
 948:../../Drivers/STM32H7xx_HAL_Driver/Src/stm32h7xx_hal.c **** void HAL_DBGMCU_EnableDBGStandbyMode(void)
 949:../../Drivers/STM32H7xx_HAL_Driver/Src/stm32h7xx_hal.c **** {
 1689              		.loc 1 949 1 is_stmt 1 view -0
 1690              		.cfi_startproc
 1691              		@ args = 0, pretend = 0, frame = 0
 1692              		@ frame_needed = 0, uses_anonymous_args = 0
 1693              		@ link register save eliminated.
 950:../../Drivers/STM32H7xx_HAL_Driver/Src/stm32h7xx_hal.c ****   SET_BIT(DBGMCU->CR, DBGMCU_CR_DBG_STANDBYD1);
 1694              		.loc 1 950 3 view .LVU282
 1695 0000 024A     		ldr	r2, .L162
 1696 0002 5368     		ldr	r3, [r2, #4]
 1697 0004 43F00403 		orr	r3, r3, #4
 1698 0008 5360     		str	r3, [r2, #4]
 951:../../Drivers/STM32H7xx_HAL_Driver/Src/stm32h7xx_hal.c **** }
 1699              		.loc 1 951 1 is_stmt 0 view .LVU283
 1700 000a 7047     		bx	lr
 1701              	.L163:
 1702              		.align	2
 1703              	.L162:
 1704 000c 0010005C 		.word	1543507968
 1705              		.cfi_endproc
 1706              	.LFE176:
 1708              		.section	.text.HAL_DBGMCU_DisableDBGStandbyMode,"ax",%progbits
 1709              		.align	1
 1710              		.global	HAL_DBGMCU_DisableDBGStandbyMode
 1711              		.syntax unified
 1712              		.thumb
 1713              		.thumb_func
 1714              		.fpu fpv4-sp-d16
 1716              	HAL_DBGMCU_DisableDBGStandbyMode:
 1717              	.LFB177:
 952:../../Drivers/STM32H7xx_HAL_Driver/Src/stm32h7xx_hal.c **** 
 953:../../Drivers/STM32H7xx_HAL_Driver/Src/stm32h7xx_hal.c **** /**
 954:../../Drivers/STM32H7xx_HAL_Driver/Src/stm32h7xx_hal.c ****   * @brief  Disable the Debug Module during Domain1/CDomain STANDBY mode
 955:../../Drivers/STM32H7xx_HAL_Driver/Src/stm32h7xx_hal.c ****   * @retval None
 956:../../Drivers/STM32H7xx_HAL_Driver/Src/stm32h7xx_hal.c ****   */
 957:../../Drivers/STM32H7xx_HAL_Driver/Src/stm32h7xx_hal.c **** void HAL_DBGMCU_DisableDBGStandbyMode(void)
 958:../../Drivers/STM32H7xx_HAL_Driver/Src/stm32h7xx_hal.c **** {
 1718              		.loc 1 958 1 is_stmt 1 view -0
 1719              		.cfi_startproc
 1720              		@ args = 0, pretend = 0, frame = 0
 1721              		@ frame_needed = 0, uses_anonymous_args = 0
 1722              		@ link register save eliminated.
 959:../../Drivers/STM32H7xx_HAL_Driver/Src/stm32h7xx_hal.c ****   CLEAR_BIT(DBGMCU->CR, DBGMCU_CR_DBG_STANDBYD1);
 1723              		.loc 1 959 3 view .LVU285
 1724 0000 024A     		ldr	r2, .L165
ARM GAS  /tmp/ccoUsChM.s 			page 48


 1725 0002 5368     		ldr	r3, [r2, #4]
 1726 0004 23F00403 		bic	r3, r3, #4
 1727 0008 5360     		str	r3, [r2, #4]
 960:../../Drivers/STM32H7xx_HAL_Driver/Src/stm32h7xx_hal.c **** }
 1728              		.loc 1 960 1 is_stmt 0 view .LVU286
 1729 000a 7047     		bx	lr
 1730              	.L166:
 1731              		.align	2
 1732              	.L165:
 1733 000c 0010005C 		.word	1543507968
 1734              		.cfi_endproc
 1735              	.LFE177:
 1737              		.section	.text.HAL_EnableDomain2DBGSleepMode,"ax",%progbits
 1738              		.align	1
 1739              		.global	HAL_EnableDomain2DBGSleepMode
 1740              		.syntax unified
 1741              		.thumb
 1742              		.thumb_func
 1743              		.fpu fpv4-sp-d16
 1745              	HAL_EnableDomain2DBGSleepMode:
 1746              	.LFB178:
 961:../../Drivers/STM32H7xx_HAL_Driver/Src/stm32h7xx_hal.c **** 
 962:../../Drivers/STM32H7xx_HAL_Driver/Src/stm32h7xx_hal.c **** #if defined(DUAL_CORE)
 963:../../Drivers/STM32H7xx_HAL_Driver/Src/stm32h7xx_hal.c **** /**
 964:../../Drivers/STM32H7xx_HAL_Driver/Src/stm32h7xx_hal.c ****   * @brief  Enable the Debug Module during Domain1 SLEEP mode
 965:../../Drivers/STM32H7xx_HAL_Driver/Src/stm32h7xx_hal.c ****   * @retval None
 966:../../Drivers/STM32H7xx_HAL_Driver/Src/stm32h7xx_hal.c ****   */
 967:../../Drivers/STM32H7xx_HAL_Driver/Src/stm32h7xx_hal.c **** void HAL_EnableDomain2DBGSleepMode(void)
 968:../../Drivers/STM32H7xx_HAL_Driver/Src/stm32h7xx_hal.c **** {
 1747              		.loc 1 968 1 is_stmt 1 view -0
 1748              		.cfi_startproc
 1749              		@ args = 0, pretend = 0, frame = 0
 1750              		@ frame_needed = 0, uses_anonymous_args = 0
 1751              		@ link register save eliminated.
 969:../../Drivers/STM32H7xx_HAL_Driver/Src/stm32h7xx_hal.c ****   SET_BIT(DBGMCU->CR, DBGMCU_CR_DBG_SLEEPD2);
 1752              		.loc 1 969 3 view .LVU288
 1753 0000 024A     		ldr	r2, .L168
 1754 0002 5368     		ldr	r3, [r2, #4]
 1755 0004 43F00803 		orr	r3, r3, #8
 1756 0008 5360     		str	r3, [r2, #4]
 970:../../Drivers/STM32H7xx_HAL_Driver/Src/stm32h7xx_hal.c **** }
 1757              		.loc 1 970 1 is_stmt 0 view .LVU289
 1758 000a 7047     		bx	lr
 1759              	.L169:
 1760              		.align	2
 1761              	.L168:
 1762 000c 0010005C 		.word	1543507968
 1763              		.cfi_endproc
 1764              	.LFE178:
 1766              		.section	.text.HAL_DisableDomain2DBGSleepMode,"ax",%progbits
 1767              		.align	1
 1768              		.global	HAL_DisableDomain2DBGSleepMode
 1769              		.syntax unified
 1770              		.thumb
 1771              		.thumb_func
 1772              		.fpu fpv4-sp-d16
 1774              	HAL_DisableDomain2DBGSleepMode:
ARM GAS  /tmp/ccoUsChM.s 			page 49


 1775              	.LFB179:
 971:../../Drivers/STM32H7xx_HAL_Driver/Src/stm32h7xx_hal.c **** 
 972:../../Drivers/STM32H7xx_HAL_Driver/Src/stm32h7xx_hal.c **** /**
 973:../../Drivers/STM32H7xx_HAL_Driver/Src/stm32h7xx_hal.c ****   * @brief  Disable the Debug Module during Domain2 SLEEP mode
 974:../../Drivers/STM32H7xx_HAL_Driver/Src/stm32h7xx_hal.c ****   * @retval None
 975:../../Drivers/STM32H7xx_HAL_Driver/Src/stm32h7xx_hal.c ****   */
 976:../../Drivers/STM32H7xx_HAL_Driver/Src/stm32h7xx_hal.c **** void HAL_DisableDomain2DBGSleepMode(void)
 977:../../Drivers/STM32H7xx_HAL_Driver/Src/stm32h7xx_hal.c **** {
 1776              		.loc 1 977 1 is_stmt 1 view -0
 1777              		.cfi_startproc
 1778              		@ args = 0, pretend = 0, frame = 0
 1779              		@ frame_needed = 0, uses_anonymous_args = 0
 1780              		@ link register save eliminated.
 978:../../Drivers/STM32H7xx_HAL_Driver/Src/stm32h7xx_hal.c ****   CLEAR_BIT(DBGMCU->CR, DBGMCU_CR_DBG_SLEEPD2);
 1781              		.loc 1 978 3 view .LVU291
 1782 0000 024A     		ldr	r2, .L171
 1783 0002 5368     		ldr	r3, [r2, #4]
 1784 0004 23F00803 		bic	r3, r3, #8
 1785 0008 5360     		str	r3, [r2, #4]
 979:../../Drivers/STM32H7xx_HAL_Driver/Src/stm32h7xx_hal.c **** }
 1786              		.loc 1 979 1 is_stmt 0 view .LVU292
 1787 000a 7047     		bx	lr
 1788              	.L172:
 1789              		.align	2
 1790              	.L171:
 1791 000c 0010005C 		.word	1543507968
 1792              		.cfi_endproc
 1793              	.LFE179:
 1795              		.section	.text.HAL_EnableDomain2DBGStopMode,"ax",%progbits
 1796              		.align	1
 1797              		.global	HAL_EnableDomain2DBGStopMode
 1798              		.syntax unified
 1799              		.thumb
 1800              		.thumb_func
 1801              		.fpu fpv4-sp-d16
 1803              	HAL_EnableDomain2DBGStopMode:
 1804              	.LFB180:
 980:../../Drivers/STM32H7xx_HAL_Driver/Src/stm32h7xx_hal.c **** 
 981:../../Drivers/STM32H7xx_HAL_Driver/Src/stm32h7xx_hal.c **** /**
 982:../../Drivers/STM32H7xx_HAL_Driver/Src/stm32h7xx_hal.c ****   * @brief  Enable the Debug Module during Domain2 STOP mode
 983:../../Drivers/STM32H7xx_HAL_Driver/Src/stm32h7xx_hal.c ****   * @retval None
 984:../../Drivers/STM32H7xx_HAL_Driver/Src/stm32h7xx_hal.c ****   */
 985:../../Drivers/STM32H7xx_HAL_Driver/Src/stm32h7xx_hal.c **** void HAL_EnableDomain2DBGStopMode(void)
 986:../../Drivers/STM32H7xx_HAL_Driver/Src/stm32h7xx_hal.c **** {
 1805              		.loc 1 986 1 is_stmt 1 view -0
 1806              		.cfi_startproc
 1807              		@ args = 0, pretend = 0, frame = 0
 1808              		@ frame_needed = 0, uses_anonymous_args = 0
 1809              		@ link register save eliminated.
 987:../../Drivers/STM32H7xx_HAL_Driver/Src/stm32h7xx_hal.c ****   SET_BIT(DBGMCU->CR, DBGMCU_CR_DBG_STOPD2);
 1810              		.loc 1 987 3 view .LVU294
 1811 0000 024A     		ldr	r2, .L174
 1812 0002 5368     		ldr	r3, [r2, #4]
 1813 0004 43F01003 		orr	r3, r3, #16
 1814 0008 5360     		str	r3, [r2, #4]
 988:../../Drivers/STM32H7xx_HAL_Driver/Src/stm32h7xx_hal.c **** }
 1815              		.loc 1 988 1 is_stmt 0 view .LVU295
ARM GAS  /tmp/ccoUsChM.s 			page 50


 1816 000a 7047     		bx	lr
 1817              	.L175:
 1818              		.align	2
 1819              	.L174:
 1820 000c 0010005C 		.word	1543507968
 1821              		.cfi_endproc
 1822              	.LFE180:
 1824              		.section	.text.HAL_DisableDomain2DBGStopMode,"ax",%progbits
 1825              		.align	1
 1826              		.global	HAL_DisableDomain2DBGStopMode
 1827              		.syntax unified
 1828              		.thumb
 1829              		.thumb_func
 1830              		.fpu fpv4-sp-d16
 1832              	HAL_DisableDomain2DBGStopMode:
 1833              	.LFB181:
 989:../../Drivers/STM32H7xx_HAL_Driver/Src/stm32h7xx_hal.c **** 
 990:../../Drivers/STM32H7xx_HAL_Driver/Src/stm32h7xx_hal.c **** /**
 991:../../Drivers/STM32H7xx_HAL_Driver/Src/stm32h7xx_hal.c ****   * @brief  Disable the Debug Module during Domain2 STOP mode
 992:../../Drivers/STM32H7xx_HAL_Driver/Src/stm32h7xx_hal.c ****   * @retval None
 993:../../Drivers/STM32H7xx_HAL_Driver/Src/stm32h7xx_hal.c ****   */
 994:../../Drivers/STM32H7xx_HAL_Driver/Src/stm32h7xx_hal.c **** void HAL_DisableDomain2DBGStopMode(void)
 995:../../Drivers/STM32H7xx_HAL_Driver/Src/stm32h7xx_hal.c **** {
 1834              		.loc 1 995 1 is_stmt 1 view -0
 1835              		.cfi_startproc
 1836              		@ args = 0, pretend = 0, frame = 0
 1837              		@ frame_needed = 0, uses_anonymous_args = 0
 1838              		@ link register save eliminated.
 996:../../Drivers/STM32H7xx_HAL_Driver/Src/stm32h7xx_hal.c ****   CLEAR_BIT(DBGMCU->CR, DBGMCU_CR_DBG_STOPD2);
 1839              		.loc 1 996 3 view .LVU297
 1840 0000 024A     		ldr	r2, .L177
 1841 0002 5368     		ldr	r3, [r2, #4]
 1842 0004 23F01003 		bic	r3, r3, #16
 1843 0008 5360     		str	r3, [r2, #4]
 997:../../Drivers/STM32H7xx_HAL_Driver/Src/stm32h7xx_hal.c **** }
 1844              		.loc 1 997 1 is_stmt 0 view .LVU298
 1845 000a 7047     		bx	lr
 1846              	.L178:
 1847              		.align	2
 1848              	.L177:
 1849 000c 0010005C 		.word	1543507968
 1850              		.cfi_endproc
 1851              	.LFE181:
 1853              		.section	.text.HAL_EnableDomain2DBGStandbyMode,"ax",%progbits
 1854              		.align	1
 1855              		.global	HAL_EnableDomain2DBGStandbyMode
 1856              		.syntax unified
 1857              		.thumb
 1858              		.thumb_func
 1859              		.fpu fpv4-sp-d16
 1861              	HAL_EnableDomain2DBGStandbyMode:
 1862              	.LFB182:
 998:../../Drivers/STM32H7xx_HAL_Driver/Src/stm32h7xx_hal.c **** 
 999:../../Drivers/STM32H7xx_HAL_Driver/Src/stm32h7xx_hal.c **** /**
1000:../../Drivers/STM32H7xx_HAL_Driver/Src/stm32h7xx_hal.c ****   * @brief  Enable the Debug Module during Domain2 STANDBY mode
1001:../../Drivers/STM32H7xx_HAL_Driver/Src/stm32h7xx_hal.c ****   * @retval None
1002:../../Drivers/STM32H7xx_HAL_Driver/Src/stm32h7xx_hal.c ****   */
ARM GAS  /tmp/ccoUsChM.s 			page 51


1003:../../Drivers/STM32H7xx_HAL_Driver/Src/stm32h7xx_hal.c **** void HAL_EnableDomain2DBGStandbyMode(void)
1004:../../Drivers/STM32H7xx_HAL_Driver/Src/stm32h7xx_hal.c **** {
 1863              		.loc 1 1004 1 is_stmt 1 view -0
 1864              		.cfi_startproc
 1865              		@ args = 0, pretend = 0, frame = 0
 1866              		@ frame_needed = 0, uses_anonymous_args = 0
 1867              		@ link register save eliminated.
1005:../../Drivers/STM32H7xx_HAL_Driver/Src/stm32h7xx_hal.c ****   SET_BIT(DBGMCU->CR, DBGMCU_CR_DBG_STANDBYD2);
 1868              		.loc 1 1005 3 view .LVU300
 1869 0000 024A     		ldr	r2, .L180
 1870 0002 5368     		ldr	r3, [r2, #4]
 1871 0004 43F02003 		orr	r3, r3, #32
 1872 0008 5360     		str	r3, [r2, #4]
1006:../../Drivers/STM32H7xx_HAL_Driver/Src/stm32h7xx_hal.c **** }
 1873              		.loc 1 1006 1 is_stmt 0 view .LVU301
 1874 000a 7047     		bx	lr
 1875              	.L181:
 1876              		.align	2
 1877              	.L180:
 1878 000c 0010005C 		.word	1543507968
 1879              		.cfi_endproc
 1880              	.LFE182:
 1882              		.section	.text.HAL_DisableDomain2DBGStandbyMode,"ax",%progbits
 1883              		.align	1
 1884              		.global	HAL_DisableDomain2DBGStandbyMode
 1885              		.syntax unified
 1886              		.thumb
 1887              		.thumb_func
 1888              		.fpu fpv4-sp-d16
 1890              	HAL_DisableDomain2DBGStandbyMode:
 1891              	.LFB183:
1007:../../Drivers/STM32H7xx_HAL_Driver/Src/stm32h7xx_hal.c **** 
1008:../../Drivers/STM32H7xx_HAL_Driver/Src/stm32h7xx_hal.c **** /**
1009:../../Drivers/STM32H7xx_HAL_Driver/Src/stm32h7xx_hal.c ****   * @brief  Disable the Debug Module during Domain2 STANDBY mode
1010:../../Drivers/STM32H7xx_HAL_Driver/Src/stm32h7xx_hal.c ****   * @retval None
1011:../../Drivers/STM32H7xx_HAL_Driver/Src/stm32h7xx_hal.c ****   */
1012:../../Drivers/STM32H7xx_HAL_Driver/Src/stm32h7xx_hal.c **** void HAL_DisableDomain2DBGStandbyMode(void)
1013:../../Drivers/STM32H7xx_HAL_Driver/Src/stm32h7xx_hal.c **** {
 1892              		.loc 1 1013 1 is_stmt 1 view -0
 1893              		.cfi_startproc
 1894              		@ args = 0, pretend = 0, frame = 0
 1895              		@ frame_needed = 0, uses_anonymous_args = 0
 1896              		@ link register save eliminated.
1014:../../Drivers/STM32H7xx_HAL_Driver/Src/stm32h7xx_hal.c ****   CLEAR_BIT(DBGMCU->CR, DBGMCU_CR_DBG_STANDBYD2);
 1897              		.loc 1 1014 3 view .LVU303
 1898 0000 024A     		ldr	r2, .L183
 1899 0002 5368     		ldr	r3, [r2, #4]
 1900 0004 23F02003 		bic	r3, r3, #32
 1901 0008 5360     		str	r3, [r2, #4]
1015:../../Drivers/STM32H7xx_HAL_Driver/Src/stm32h7xx_hal.c **** }
 1902              		.loc 1 1015 1 is_stmt 0 view .LVU304
 1903 000a 7047     		bx	lr
 1904              	.L184:
 1905              		.align	2
 1906              	.L183:
 1907 000c 0010005C 		.word	1543507968
 1908              		.cfi_endproc
ARM GAS  /tmp/ccoUsChM.s 			page 52


 1909              	.LFE183:
 1911              		.section	.text.HAL_SetFMCMemorySwappingConfig,"ax",%progbits
 1912              		.align	1
 1913              		.global	HAL_SetFMCMemorySwappingConfig
 1914              		.syntax unified
 1915              		.thumb
 1916              		.thumb_func
 1917              		.fpu fpv4-sp-d16
 1919              	HAL_SetFMCMemorySwappingConfig:
 1920              	.LVL48:
 1921              	.LFB184:
1016:../../Drivers/STM32H7xx_HAL_Driver/Src/stm32h7xx_hal.c **** #endif /*DUAL_CORE*/
1017:../../Drivers/STM32H7xx_HAL_Driver/Src/stm32h7xx_hal.c **** 
1018:../../Drivers/STM32H7xx_HAL_Driver/Src/stm32h7xx_hal.c **** #if defined(DBGMCU_CR_DBG_STOPD3)
1019:../../Drivers/STM32H7xx_HAL_Driver/Src/stm32h7xx_hal.c **** /**
1020:../../Drivers/STM32H7xx_HAL_Driver/Src/stm32h7xx_hal.c ****   * @brief  Enable the Debug Module during Domain3/SRDomain STOP mode
1021:../../Drivers/STM32H7xx_HAL_Driver/Src/stm32h7xx_hal.c ****   * @retval None
1022:../../Drivers/STM32H7xx_HAL_Driver/Src/stm32h7xx_hal.c ****   */
1023:../../Drivers/STM32H7xx_HAL_Driver/Src/stm32h7xx_hal.c **** void HAL_EnableDomain3DBGStopMode(void)
1024:../../Drivers/STM32H7xx_HAL_Driver/Src/stm32h7xx_hal.c **** {
1025:../../Drivers/STM32H7xx_HAL_Driver/Src/stm32h7xx_hal.c ****   SET_BIT(DBGMCU->CR, DBGMCU_CR_DBG_STOPD3);
1026:../../Drivers/STM32H7xx_HAL_Driver/Src/stm32h7xx_hal.c **** }
1027:../../Drivers/STM32H7xx_HAL_Driver/Src/stm32h7xx_hal.c **** 
1028:../../Drivers/STM32H7xx_HAL_Driver/Src/stm32h7xx_hal.c **** /**
1029:../../Drivers/STM32H7xx_HAL_Driver/Src/stm32h7xx_hal.c ****   * @brief  Disable the Debug Module during Domain3/SRDomain STOP mode
1030:../../Drivers/STM32H7xx_HAL_Driver/Src/stm32h7xx_hal.c ****   * @retval None
1031:../../Drivers/STM32H7xx_HAL_Driver/Src/stm32h7xx_hal.c ****   */
1032:../../Drivers/STM32H7xx_HAL_Driver/Src/stm32h7xx_hal.c **** void HAL_DisableDomain3DBGStopMode(void)
1033:../../Drivers/STM32H7xx_HAL_Driver/Src/stm32h7xx_hal.c **** {
1034:../../Drivers/STM32H7xx_HAL_Driver/Src/stm32h7xx_hal.c ****   CLEAR_BIT(DBGMCU->CR, DBGMCU_CR_DBG_STOPD3);
1035:../../Drivers/STM32H7xx_HAL_Driver/Src/stm32h7xx_hal.c **** }
1036:../../Drivers/STM32H7xx_HAL_Driver/Src/stm32h7xx_hal.c **** #endif /*DBGMCU_CR_DBG_STOPD3*/
1037:../../Drivers/STM32H7xx_HAL_Driver/Src/stm32h7xx_hal.c **** 
1038:../../Drivers/STM32H7xx_HAL_Driver/Src/stm32h7xx_hal.c **** #if defined(DBGMCU_CR_DBG_STANDBYD3)
1039:../../Drivers/STM32H7xx_HAL_Driver/Src/stm32h7xx_hal.c **** /**
1040:../../Drivers/STM32H7xx_HAL_Driver/Src/stm32h7xx_hal.c ****   * @brief  Enable the Debug Module during Domain3/SRDomain STANDBY mode
1041:../../Drivers/STM32H7xx_HAL_Driver/Src/stm32h7xx_hal.c ****   * @retval None
1042:../../Drivers/STM32H7xx_HAL_Driver/Src/stm32h7xx_hal.c ****   */
1043:../../Drivers/STM32H7xx_HAL_Driver/Src/stm32h7xx_hal.c **** void HAL_EnableDomain3DBGStandbyMode(void)
1044:../../Drivers/STM32H7xx_HAL_Driver/Src/stm32h7xx_hal.c **** {
1045:../../Drivers/STM32H7xx_HAL_Driver/Src/stm32h7xx_hal.c ****   SET_BIT(DBGMCU->CR, DBGMCU_CR_DBG_STANDBYD3);
1046:../../Drivers/STM32H7xx_HAL_Driver/Src/stm32h7xx_hal.c **** }
1047:../../Drivers/STM32H7xx_HAL_Driver/Src/stm32h7xx_hal.c **** 
1048:../../Drivers/STM32H7xx_HAL_Driver/Src/stm32h7xx_hal.c **** /**
1049:../../Drivers/STM32H7xx_HAL_Driver/Src/stm32h7xx_hal.c ****   * @brief  Disable the Debug Module during Domain3/SRDomain STANDBY mode
1050:../../Drivers/STM32H7xx_HAL_Driver/Src/stm32h7xx_hal.c ****   * @retval None
1051:../../Drivers/STM32H7xx_HAL_Driver/Src/stm32h7xx_hal.c ****   */
1052:../../Drivers/STM32H7xx_HAL_Driver/Src/stm32h7xx_hal.c **** void HAL_DisableDomain3DBGStandbyMode(void)
1053:../../Drivers/STM32H7xx_HAL_Driver/Src/stm32h7xx_hal.c **** {
1054:../../Drivers/STM32H7xx_HAL_Driver/Src/stm32h7xx_hal.c ****   CLEAR_BIT(DBGMCU->CR, DBGMCU_CR_DBG_STANDBYD3);
1055:../../Drivers/STM32H7xx_HAL_Driver/Src/stm32h7xx_hal.c **** }
1056:../../Drivers/STM32H7xx_HAL_Driver/Src/stm32h7xx_hal.c **** #endif /*DBGMCU_CR_DBG_STANDBYD3*/
1057:../../Drivers/STM32H7xx_HAL_Driver/Src/stm32h7xx_hal.c **** 
1058:../../Drivers/STM32H7xx_HAL_Driver/Src/stm32h7xx_hal.c **** /**
1059:../../Drivers/STM32H7xx_HAL_Driver/Src/stm32h7xx_hal.c ****   * @brief  Set the FMC Memory Mapping Swapping config.
1060:../../Drivers/STM32H7xx_HAL_Driver/Src/stm32h7xx_hal.c ****   * @param  BankMapConfig: Defines the FMC Bank mapping configuration. This parameter can be
1061:../../Drivers/STM32H7xx_HAL_Driver/Src/stm32h7xx_hal.c ****             FMC_SWAPBMAP_DISABLE, FMC_SWAPBMAP_SDRAM_SRAM, FMC_SWAPBMAP_SDRAMB2
ARM GAS  /tmp/ccoUsChM.s 			page 53


1062:../../Drivers/STM32H7xx_HAL_Driver/Src/stm32h7xx_hal.c ****   * @retval HAL state
1063:../../Drivers/STM32H7xx_HAL_Driver/Src/stm32h7xx_hal.c ****   */
1064:../../Drivers/STM32H7xx_HAL_Driver/Src/stm32h7xx_hal.c **** void HAL_SetFMCMemorySwappingConfig(uint32_t BankMapConfig)
1065:../../Drivers/STM32H7xx_HAL_Driver/Src/stm32h7xx_hal.c **** {
 1922              		.loc 1 1065 1 is_stmt 1 view -0
 1923              		.cfi_startproc
 1924              		@ args = 0, pretend = 0, frame = 0
 1925              		@ frame_needed = 0, uses_anonymous_args = 0
 1926              		@ link register save eliminated.
1066:../../Drivers/STM32H7xx_HAL_Driver/Src/stm32h7xx_hal.c ****   /* Check the parameter */
1067:../../Drivers/STM32H7xx_HAL_Driver/Src/stm32h7xx_hal.c ****   assert_param(IS_FMC_SWAPBMAP_MODE(BankMapConfig));
 1927              		.loc 1 1067 3 view .LVU306
1068:../../Drivers/STM32H7xx_HAL_Driver/Src/stm32h7xx_hal.c ****   MODIFY_REG(FMC_Bank1_R->BTCR[0], FMC_BCR1_BMAP, BankMapConfig);
 1928              		.loc 1 1068 3 view .LVU307
 1929 0000 034A     		ldr	r2, .L186
 1930 0002 1368     		ldr	r3, [r2]
 1931 0004 23F04073 		bic	r3, r3, #50331648
 1932 0008 0343     		orrs	r3, r3, r0
 1933 000a 1360     		str	r3, [r2]
1069:../../Drivers/STM32H7xx_HAL_Driver/Src/stm32h7xx_hal.c **** }
 1934              		.loc 1 1069 1 is_stmt 0 view .LVU308
 1935 000c 7047     		bx	lr
 1936              	.L187:
 1937 000e 00BF     		.align	2
 1938              	.L186:
 1939 0010 00400052 		.word	1375748096
 1940              		.cfi_endproc
 1941              	.LFE184:
 1943              		.section	.text.HAL_GetFMCMemorySwappingConfig,"ax",%progbits
 1944              		.align	1
 1945              		.global	HAL_GetFMCMemorySwappingConfig
 1946              		.syntax unified
 1947              		.thumb
 1948              		.thumb_func
 1949              		.fpu fpv4-sp-d16
 1951              	HAL_GetFMCMemorySwappingConfig:
 1952              	.LFB185:
1070:../../Drivers/STM32H7xx_HAL_Driver/Src/stm32h7xx_hal.c **** 
1071:../../Drivers/STM32H7xx_HAL_Driver/Src/stm32h7xx_hal.c **** /**
1072:../../Drivers/STM32H7xx_HAL_Driver/Src/stm32h7xx_hal.c ****   * @brief  Get FMC Bank mapping mode.
1073:../../Drivers/STM32H7xx_HAL_Driver/Src/stm32h7xx_hal.c ****   * @retval The FMC Bank mapping mode. This parameter can be
1074:../../Drivers/STM32H7xx_HAL_Driver/Src/stm32h7xx_hal.c ****             FMC_SWAPBMAP_DISABLE, FMC_SWAPBMAP_SDRAM_SRAM, FMC_SWAPBMAP_SDRAMB2
1075:../../Drivers/STM32H7xx_HAL_Driver/Src/stm32h7xx_hal.c **** */
1076:../../Drivers/STM32H7xx_HAL_Driver/Src/stm32h7xx_hal.c **** uint32_t HAL_GetFMCMemorySwappingConfig(void)
1077:../../Drivers/STM32H7xx_HAL_Driver/Src/stm32h7xx_hal.c **** {
 1953              		.loc 1 1077 1 is_stmt 1 view -0
 1954              		.cfi_startproc
 1955              		@ args = 0, pretend = 0, frame = 0
 1956              		@ frame_needed = 0, uses_anonymous_args = 0
 1957              		@ link register save eliminated.
1078:../../Drivers/STM32H7xx_HAL_Driver/Src/stm32h7xx_hal.c ****   return READ_BIT(FMC_Bank1_R->BTCR[0], FMC_BCR1_BMAP);
 1958              		.loc 1 1078 3 view .LVU310
 1959              		.loc 1 1078 10 is_stmt 0 view .LVU311
 1960 0000 024B     		ldr	r3, .L189
 1961 0002 1868     		ldr	r0, [r3]
1079:../../Drivers/STM32H7xx_HAL_Driver/Src/stm32h7xx_hal.c **** }
 1962              		.loc 1 1079 1 view .LVU312
ARM GAS  /tmp/ccoUsChM.s 			page 54


 1963 0004 00F04070 		and	r0, r0, #50331648
 1964 0008 7047     		bx	lr
 1965              	.L190:
 1966 000a 00BF     		.align	2
 1967              	.L189:
 1968 000c 00400052 		.word	1375748096
 1969              		.cfi_endproc
 1970              	.LFE185:
 1972              		.section	.text.HAL_EXTI_EdgeConfig,"ax",%progbits
 1973              		.align	1
 1974              		.global	HAL_EXTI_EdgeConfig
 1975              		.syntax unified
 1976              		.thumb
 1977              		.thumb_func
 1978              		.fpu fpv4-sp-d16
 1980              	HAL_EXTI_EdgeConfig:
 1981              	.LVL49:
 1982              	.LFB186:
1080:../../Drivers/STM32H7xx_HAL_Driver/Src/stm32h7xx_hal.c **** 
1081:../../Drivers/STM32H7xx_HAL_Driver/Src/stm32h7xx_hal.c **** /**
1082:../../Drivers/STM32H7xx_HAL_Driver/Src/stm32h7xx_hal.c ****   * @brief  Configure the EXTI input event line edge
1083:../../Drivers/STM32H7xx_HAL_Driver/Src/stm32h7xx_hal.c ****   * @note    No edge configuration for direct lines but for configurable lines:(EXTI_LINE0..EXTI_LI
1084:../../Drivers/STM32H7xx_HAL_Driver/Src/stm32h7xx_hal.c ****   *          EXTI_LINE49,EXTI_LINE51,EXTI_LINE82,EXTI_LINE84,EXTI_LINE85 and EXTI_LINE86.
1085:../../Drivers/STM32H7xx_HAL_Driver/Src/stm32h7xx_hal.c ****   * @param   EXTI_Line: Specifies the EXTI LINE, it can be one of the following values,
1086:../../Drivers/STM32H7xx_HAL_Driver/Src/stm32h7xx_hal.c ****   *         (EXTI_LINE0....EXTI_LINE87)excluding :line45, line81,line83 which are reserved
1087:../../Drivers/STM32H7xx_HAL_Driver/Src/stm32h7xx_hal.c ****   * @param   EXTI_Edge: Specifies  EXTI line Edge used.
1088:../../Drivers/STM32H7xx_HAL_Driver/Src/stm32h7xx_hal.c ****   *          This parameter can be one of the following values :
1089:../../Drivers/STM32H7xx_HAL_Driver/Src/stm32h7xx_hal.c ****   *   @arg EXTI_RISING_EDGE : Configurable line, with Rising edge trigger detection
1090:../../Drivers/STM32H7xx_HAL_Driver/Src/stm32h7xx_hal.c ****   *   @arg EXTI_FALLING_EDGE: Configurable line, with Falling edge trigger detection
1091:../../Drivers/STM32H7xx_HAL_Driver/Src/stm32h7xx_hal.c ****   * @retval None
1092:../../Drivers/STM32H7xx_HAL_Driver/Src/stm32h7xx_hal.c ****   */
1093:../../Drivers/STM32H7xx_HAL_Driver/Src/stm32h7xx_hal.c **** void HAL_EXTI_EdgeConfig(uint32_t EXTI_Line , uint32_t EXTI_Edge )
1094:../../Drivers/STM32H7xx_HAL_Driver/Src/stm32h7xx_hal.c **** {
 1983              		.loc 1 1094 1 is_stmt 1 view -0
 1984              		.cfi_startproc
 1985              		@ args = 0, pretend = 0, frame = 0
 1986              		@ frame_needed = 0, uses_anonymous_args = 0
 1987              		@ link register save eliminated.
 1988              		.loc 1 1094 1 is_stmt 0 view .LVU314
 1989 0000 70B4     		push	{r4, r5, r6}
 1990              	.LCFI9:
 1991              		.cfi_def_cfa_offset 12
 1992              		.cfi_offset 4, -12
 1993              		.cfi_offset 5, -8
 1994              		.cfi_offset 6, -4
1095:../../Drivers/STM32H7xx_HAL_Driver/Src/stm32h7xx_hal.c ****   /* Check the parameter */
1096:../../Drivers/STM32H7xx_HAL_Driver/Src/stm32h7xx_hal.c ****   assert_param(IS_HAL_EXTI_CONFIG_LINE(EXTI_Line));
 1995              		.loc 1 1096 3 is_stmt 1 view .LVU315
1097:../../Drivers/STM32H7xx_HAL_Driver/Src/stm32h7xx_hal.c ****   assert_param(IS_EXTI_EDGE_LINE(EXTI_Edge));
 1996              		.loc 1 1097 3 view .LVU316
1098:../../Drivers/STM32H7xx_HAL_Driver/Src/stm32h7xx_hal.c **** 
1099:../../Drivers/STM32H7xx_HAL_Driver/Src/stm32h7xx_hal.c ****   /* Clear Rising Falling edge configuration */
1100:../../Drivers/STM32H7xx_HAL_Driver/Src/stm32h7xx_hal.c ****   CLEAR_BIT(*(__IO uint32_t *) (((uint32_t) &(EXTI->FTSR1)) + ((EXTI_Line >> 5 ) * 0x20UL)), (uint3
 1997              		.loc 1 1100 3 view .LVU317
 1998 0002 4309     		lsrs	r3, r0, #5
 1999 0004 20F01F05 		bic	r5, r0, #31
 2000 0008 0F4C     		ldr	r4, .L195
ARM GAS  /tmp/ccoUsChM.s 			page 55


 2001 000a 2E59     		ldr	r6, [r5, r4]
 2002 000c 00F01F00 		and	r0, r0, #31
 2003              	.LVL50:
 2004              		.loc 1 1100 3 is_stmt 0 view .LVU318
 2005 0010 0122     		movs	r2, #1
 2006 0012 02FA00F0 		lsl	r0, r2, r0
 2007 0016 26EA0006 		bic	r6, r6, r0
 2008 001a 2E51     		str	r6, [r5, r4]
1101:../../Drivers/STM32H7xx_HAL_Driver/Src/stm32h7xx_hal.c ****   CLEAR_BIT( *(__IO uint32_t *) (((uint32_t) &(EXTI->RTSR1)) + ((EXTI_Line >> 5 ) * 0x20UL)), (uint
 2009              		.loc 1 1101 3 is_stmt 1 view .LVU319
 2010 001c 03F13073 		add	r3, r3, #46137344
 2011 0020 5B01     		lsls	r3, r3, #5
 2012 0022 1A68     		ldr	r2, [r3]
 2013 0024 22EA0002 		bic	r2, r2, r0
 2014 0028 1A60     		str	r2, [r3]
1102:../../Drivers/STM32H7xx_HAL_Driver/Src/stm32h7xx_hal.c **** 
1103:../../Drivers/STM32H7xx_HAL_Driver/Src/stm32h7xx_hal.c ****   if( (EXTI_Edge & EXTI_RISING_EDGE) == EXTI_RISING_EDGE)
 2015              		.loc 1 1103 3 view .LVU320
 2016              		.loc 1 1103 5 is_stmt 0 view .LVU321
 2017 002a 11F4801F 		tst	r1, #1048576
 2018 002e 02D0     		beq	.L192
1104:../../Drivers/STM32H7xx_HAL_Driver/Src/stm32h7xx_hal.c ****   {
1105:../../Drivers/STM32H7xx_HAL_Driver/Src/stm32h7xx_hal.c ****    SET_BIT( *(__IO uint32_t *) (((uint32_t) &(EXTI->RTSR1)) + ((EXTI_Line >> 5 ) * 0x20UL)), (uint3
 2019              		.loc 1 1105 4 is_stmt 1 view .LVU322
 2020 0030 1A68     		ldr	r2, [r3]
 2021 0032 0243     		orrs	r2, r2, r0
 2022 0034 1A60     		str	r2, [r3]
 2023              	.L192:
1106:../../Drivers/STM32H7xx_HAL_Driver/Src/stm32h7xx_hal.c ****   }
1107:../../Drivers/STM32H7xx_HAL_Driver/Src/stm32h7xx_hal.c ****   if( (EXTI_Edge & EXTI_FALLING_EDGE) == EXTI_FALLING_EDGE)
 2024              		.loc 1 1107 3 view .LVU323
 2025              		.loc 1 1107 5 is_stmt 0 view .LVU324
 2026 0036 11F4001F 		tst	r1, #2097152
 2027 003a 02D0     		beq	.L191
1108:../../Drivers/STM32H7xx_HAL_Driver/Src/stm32h7xx_hal.c ****   {
1109:../../Drivers/STM32H7xx_HAL_Driver/Src/stm32h7xx_hal.c ****    SET_BIT(*(__IO uint32_t *) (((uint32_t) &(EXTI->FTSR1)) + ((EXTI_Line >> 5 ) * 0x20UL)), (uint32
 2028              		.loc 1 1109 4 is_stmt 1 view .LVU325
 2029 003c 2B59     		ldr	r3, [r5, r4]
 2030 003e 1843     		orrs	r0, r0, r3
 2031 0040 2851     		str	r0, [r5, r4]
 2032              	.L191:
1110:../../Drivers/STM32H7xx_HAL_Driver/Src/stm32h7xx_hal.c ****   }
1111:../../Drivers/STM32H7xx_HAL_Driver/Src/stm32h7xx_hal.c **** }
 2033              		.loc 1 1111 1 is_stmt 0 view .LVU326
 2034 0042 70BC     		pop	{r4, r5, r6}
 2035              	.LCFI10:
 2036              		.cfi_restore 6
 2037              		.cfi_restore 5
 2038              		.cfi_restore 4
 2039              		.cfi_def_cfa_offset 0
 2040 0044 7047     		bx	lr
 2041              	.L196:
 2042 0046 00BF     		.align	2
 2043              	.L195:
 2044 0048 04000058 		.word	1476395012
 2045              		.cfi_endproc
 2046              	.LFE186:
ARM GAS  /tmp/ccoUsChM.s 			page 56


 2048              		.section	.text.HAL_EXTI_GenerateSWInterrupt,"ax",%progbits
 2049              		.align	1
 2050              		.global	HAL_EXTI_GenerateSWInterrupt
 2051              		.syntax unified
 2052              		.thumb
 2053              		.thumb_func
 2054              		.fpu fpv4-sp-d16
 2056              	HAL_EXTI_GenerateSWInterrupt:
 2057              	.LVL51:
 2058              	.LFB187:
1112:../../Drivers/STM32H7xx_HAL_Driver/Src/stm32h7xx_hal.c **** 
1113:../../Drivers/STM32H7xx_HAL_Driver/Src/stm32h7xx_hal.c **** /**
1114:../../Drivers/STM32H7xx_HAL_Driver/Src/stm32h7xx_hal.c ****   * @brief  Generates a Software interrupt on selected EXTI line.
1115:../../Drivers/STM32H7xx_HAL_Driver/Src/stm32h7xx_hal.c ****   * @param   EXTI_Line: Specifies the EXTI LINE, it can be one of the following values,
1116:../../Drivers/STM32H7xx_HAL_Driver/Src/stm32h7xx_hal.c ****   *          (EXTI_LINE0..EXTI_LINE21),EXTI_LINE49,EXTI_LINE51,EXTI_LINE82,EXTI_LINE84,EXTI_LINE85 
1117:../../Drivers/STM32H7xx_HAL_Driver/Src/stm32h7xx_hal.c ****   * @retval None
1118:../../Drivers/STM32H7xx_HAL_Driver/Src/stm32h7xx_hal.c ****   */
1119:../../Drivers/STM32H7xx_HAL_Driver/Src/stm32h7xx_hal.c **** void HAL_EXTI_GenerateSWInterrupt(uint32_t EXTI_Line)
1120:../../Drivers/STM32H7xx_HAL_Driver/Src/stm32h7xx_hal.c **** {
 2059              		.loc 1 1120 1 is_stmt 1 view -0
 2060              		.cfi_startproc
 2061              		@ args = 0, pretend = 0, frame = 0
 2062              		@ frame_needed = 0, uses_anonymous_args = 0
 2063              		@ link register save eliminated.
 2064              		.loc 1 1120 1 is_stmt 0 view .LVU328
 2065 0000 10B4     		push	{r4}
 2066              	.LCFI11:
 2067              		.cfi_def_cfa_offset 4
 2068              		.cfi_offset 4, -4
1121:../../Drivers/STM32H7xx_HAL_Driver/Src/stm32h7xx_hal.c ****   /* Check the parameters */
1122:../../Drivers/STM32H7xx_HAL_Driver/Src/stm32h7xx_hal.c ****   assert_param(IS_HAL_EXTI_CONFIG_LINE(EXTI_Line));
 2069              		.loc 1 1122 3 is_stmt 1 view .LVU329
1123:../../Drivers/STM32H7xx_HAL_Driver/Src/stm32h7xx_hal.c **** 
1124:../../Drivers/STM32H7xx_HAL_Driver/Src/stm32h7xx_hal.c ****   SET_BIT(*(__IO uint32_t *) (((uint32_t) &(EXTI->SWIER1)) + ((EXTI_Line >> 5 ) * 0x20UL)), (uint32
 2070              		.loc 1 1124 3 view .LVU330
 2071 0002 20F01F04 		bic	r4, r0, #31
 2072 0006 0649     		ldr	r1, .L199
 2073 0008 6358     		ldr	r3, [r4, r1]
 2074 000a 00F01F00 		and	r0, r0, #31
 2075              	.LVL52:
 2076              		.loc 1 1124 3 is_stmt 0 view .LVU331
 2077 000e 0122     		movs	r2, #1
 2078 0010 02FA00F0 		lsl	r0, r2, r0
 2079 0014 1843     		orrs	r0, r0, r3
 2080 0016 6050     		str	r0, [r4, r1]
1125:../../Drivers/STM32H7xx_HAL_Driver/Src/stm32h7xx_hal.c **** }
 2081              		.loc 1 1125 1 view .LVU332
 2082 0018 5DF8044B 		ldr	r4, [sp], #4
 2083              	.LCFI12:
 2084              		.cfi_restore 4
 2085              		.cfi_def_cfa_offset 0
 2086 001c 7047     		bx	lr
 2087              	.L200:
 2088 001e 00BF     		.align	2
 2089              	.L199:
 2090 0020 08000058 		.word	1476395016
 2091              		.cfi_endproc
ARM GAS  /tmp/ccoUsChM.s 			page 57


 2092              	.LFE187:
 2094              		.section	.text.HAL_EXTI_D1_ClearFlag,"ax",%progbits
 2095              		.align	1
 2096              		.global	HAL_EXTI_D1_ClearFlag
 2097              		.syntax unified
 2098              		.thumb
 2099              		.thumb_func
 2100              		.fpu fpv4-sp-d16
 2102              	HAL_EXTI_D1_ClearFlag:
 2103              	.LVL53:
 2104              	.LFB188:
1126:../../Drivers/STM32H7xx_HAL_Driver/Src/stm32h7xx_hal.c **** 
1127:../../Drivers/STM32H7xx_HAL_Driver/Src/stm32h7xx_hal.c **** 
1128:../../Drivers/STM32H7xx_HAL_Driver/Src/stm32h7xx_hal.c **** /**
1129:../../Drivers/STM32H7xx_HAL_Driver/Src/stm32h7xx_hal.c ****   * @brief  Clears the EXTI's line pending flags for Domain D1
1130:../../Drivers/STM32H7xx_HAL_Driver/Src/stm32h7xx_hal.c ****   * @param   EXTI_Line: Specifies the EXTI LINE, it can be one of the following values,
1131:../../Drivers/STM32H7xx_HAL_Driver/Src/stm32h7xx_hal.c ****   *         (EXTI_LINE0....EXTI_LINE87)excluding :line45, line81,line83 which are reserved
1132:../../Drivers/STM32H7xx_HAL_Driver/Src/stm32h7xx_hal.c ****   * @retval None
1133:../../Drivers/STM32H7xx_HAL_Driver/Src/stm32h7xx_hal.c ****   */
1134:../../Drivers/STM32H7xx_HAL_Driver/Src/stm32h7xx_hal.c **** void HAL_EXTI_D1_ClearFlag(uint32_t EXTI_Line)
1135:../../Drivers/STM32H7xx_HAL_Driver/Src/stm32h7xx_hal.c **** {
 2105              		.loc 1 1135 1 is_stmt 1 view -0
 2106              		.cfi_startproc
 2107              		@ args = 0, pretend = 0, frame = 0
 2108              		@ frame_needed = 0, uses_anonymous_args = 0
 2109              		@ link register save eliminated.
1136:../../Drivers/STM32H7xx_HAL_Driver/Src/stm32h7xx_hal.c ****   /* Check the parameters */
1137:../../Drivers/STM32H7xx_HAL_Driver/Src/stm32h7xx_hal.c ****  assert_param(IS_EXTI_D1_LINE(EXTI_Line));
 2110              		.loc 1 1137 2 view .LVU334
1138:../../Drivers/STM32H7xx_HAL_Driver/Src/stm32h7xx_hal.c ****  WRITE_REG(*(__IO uint32_t *) (((uint32_t) &(EXTI_D1->PR1)) + ((EXTI_Line >> 5 ) * 0x10UL)), (uint3
 2111              		.loc 1 1138 2 view .LVU335
 2112 0000 00F01F02 		and	r2, r0, #31
 2113 0004 4009     		lsrs	r0, r0, #5
 2114              	.LVL54:
 2115              		.loc 1 1138 2 is_stmt 0 view .LVU336
 2116 0006 0001     		lsls	r0, r0, #4
 2117 0008 0123     		movs	r3, #1
 2118 000a 9340     		lsls	r3, r3, r2
 2119 000c 014A     		ldr	r2, .L202
 2120 000e 8350     		str	r3, [r0, r2]
1139:../../Drivers/STM32H7xx_HAL_Driver/Src/stm32h7xx_hal.c **** 
1140:../../Drivers/STM32H7xx_HAL_Driver/Src/stm32h7xx_hal.c **** }
 2121              		.loc 1 1140 1 view .LVU337
 2122 0010 7047     		bx	lr
 2123              	.L203:
 2124 0012 00BF     		.align	2
 2125              	.L202:
 2126 0014 88000058 		.word	1476395144
 2127              		.cfi_endproc
 2128              	.LFE188:
 2130              		.section	.text.HAL_EXTI_D2_ClearFlag,"ax",%progbits
 2131              		.align	1
 2132              		.global	HAL_EXTI_D2_ClearFlag
 2133              		.syntax unified
 2134              		.thumb
 2135              		.thumb_func
 2136              		.fpu fpv4-sp-d16
ARM GAS  /tmp/ccoUsChM.s 			page 58


 2138              	HAL_EXTI_D2_ClearFlag:
 2139              	.LVL55:
 2140              	.LFB189:
1141:../../Drivers/STM32H7xx_HAL_Driver/Src/stm32h7xx_hal.c **** 
1142:../../Drivers/STM32H7xx_HAL_Driver/Src/stm32h7xx_hal.c **** #if defined(DUAL_CORE)
1143:../../Drivers/STM32H7xx_HAL_Driver/Src/stm32h7xx_hal.c **** /**
1144:../../Drivers/STM32H7xx_HAL_Driver/Src/stm32h7xx_hal.c ****   * @brief  Clears the EXTI's line pending flags for Domain D2
1145:../../Drivers/STM32H7xx_HAL_Driver/Src/stm32h7xx_hal.c ****   * @param   EXTI_Line: Specifies the EXTI LINE, it can be one of the following values,
1146:../../Drivers/STM32H7xx_HAL_Driver/Src/stm32h7xx_hal.c ****   *         (EXTI_LINE0....EXTI_LINE87)excluding :line45, line81,line83 which are reserved
1147:../../Drivers/STM32H7xx_HAL_Driver/Src/stm32h7xx_hal.c ****   * @retval None
1148:../../Drivers/STM32H7xx_HAL_Driver/Src/stm32h7xx_hal.c ****   */
1149:../../Drivers/STM32H7xx_HAL_Driver/Src/stm32h7xx_hal.c **** void HAL_EXTI_D2_ClearFlag(uint32_t EXTI_Line)
1150:../../Drivers/STM32H7xx_HAL_Driver/Src/stm32h7xx_hal.c **** {
 2141              		.loc 1 1150 1 is_stmt 1 view -0
 2142              		.cfi_startproc
 2143              		@ args = 0, pretend = 0, frame = 0
 2144              		@ frame_needed = 0, uses_anonymous_args = 0
 2145              		@ link register save eliminated.
1151:../../Drivers/STM32H7xx_HAL_Driver/Src/stm32h7xx_hal.c ****   /* Check the parameters */
1152:../../Drivers/STM32H7xx_HAL_Driver/Src/stm32h7xx_hal.c ****  assert_param(IS_EXTI_D2_LINE(EXTI_Line));
 2146              		.loc 1 1152 2 view .LVU339
1153:../../Drivers/STM32H7xx_HAL_Driver/Src/stm32h7xx_hal.c ****  WRITE_REG(*(__IO uint32_t *) (((uint32_t) &(EXTI_D2->PR1)) + ((EXTI_Line >> 5 ) * 0x10UL)), (uint3
 2147              		.loc 1 1153 2 view .LVU340
 2148 0000 00F01F02 		and	r2, r0, #31
 2149 0004 4009     		lsrs	r0, r0, #5
 2150              	.LVL56:
 2151              		.loc 1 1153 2 is_stmt 0 view .LVU341
 2152 0006 0001     		lsls	r0, r0, #4
 2153 0008 0123     		movs	r3, #1
 2154 000a 9340     		lsls	r3, r3, r2
 2155 000c 014A     		ldr	r2, .L205
 2156 000e 8350     		str	r3, [r0, r2]
1154:../../Drivers/STM32H7xx_HAL_Driver/Src/stm32h7xx_hal.c **** }
 2157              		.loc 1 1154 1 view .LVU342
 2158 0010 7047     		bx	lr
 2159              	.L206:
 2160 0012 00BF     		.align	2
 2161              	.L205:
 2162 0014 C8000058 		.word	1476395208
 2163              		.cfi_endproc
 2164              	.LFE189:
 2166              		.section	.text.HAL_EXTI_D1_EventInputConfig,"ax",%progbits
 2167              		.align	1
 2168              		.global	HAL_EXTI_D1_EventInputConfig
 2169              		.syntax unified
 2170              		.thumb
 2171              		.thumb_func
 2172              		.fpu fpv4-sp-d16
 2174              	HAL_EXTI_D1_EventInputConfig:
 2175              	.LVL57:
 2176              	.LFB190:
1155:../../Drivers/STM32H7xx_HAL_Driver/Src/stm32h7xx_hal.c **** 
1156:../../Drivers/STM32H7xx_HAL_Driver/Src/stm32h7xx_hal.c **** #endif /*DUAL_CORE*/
1157:../../Drivers/STM32H7xx_HAL_Driver/Src/stm32h7xx_hal.c **** /**
1158:../../Drivers/STM32H7xx_HAL_Driver/Src/stm32h7xx_hal.c ****   * @brief  Configure the EXTI input event line for Domain D1
1159:../../Drivers/STM32H7xx_HAL_Driver/Src/stm32h7xx_hal.c ****   * @param   EXTI_Line: Specifies the EXTI LINE, it can be one of the following values,
1160:../../Drivers/STM32H7xx_HAL_Driver/Src/stm32h7xx_hal.c ****   *         (EXTI_LINE0....EXTI_LINE87)excluding :line45, line81,line83 which are reserved
ARM GAS  /tmp/ccoUsChM.s 			page 59


1161:../../Drivers/STM32H7xx_HAL_Driver/Src/stm32h7xx_hal.c ****   * @param   EXTI_Mode: Specifies which EXTI line is used as interrupt or an event.
1162:../../Drivers/STM32H7xx_HAL_Driver/Src/stm32h7xx_hal.c ****   *          This parameter can be one or a combination of the following values :
1163:../../Drivers/STM32H7xx_HAL_Driver/Src/stm32h7xx_hal.c ****   *   @arg EXTI_MODE_IT :  Interrupt Mode selected
1164:../../Drivers/STM32H7xx_HAL_Driver/Src/stm32h7xx_hal.c ****   *   @arg EXTI_MODE_EVT : Event Mode selected
1165:../../Drivers/STM32H7xx_HAL_Driver/Src/stm32h7xx_hal.c ****   * @param   EXTI_LineCmd controls (Enable/Disable) the EXTI line.
1166:../../Drivers/STM32H7xx_HAL_Driver/Src/stm32h7xx_hal.c **** 
1167:../../Drivers/STM32H7xx_HAL_Driver/Src/stm32h7xx_hal.c ****   * @retval None
1168:../../Drivers/STM32H7xx_HAL_Driver/Src/stm32h7xx_hal.c ****   */
1169:../../Drivers/STM32H7xx_HAL_Driver/Src/stm32h7xx_hal.c **** void HAL_EXTI_D1_EventInputConfig(uint32_t EXTI_Line , uint32_t EXTI_Mode,  uint32_t EXTI_LineCmd )
1170:../../Drivers/STM32H7xx_HAL_Driver/Src/stm32h7xx_hal.c **** {
 2177              		.loc 1 1170 1 is_stmt 1 view -0
 2178              		.cfi_startproc
 2179              		@ args = 0, pretend = 0, frame = 0
 2180              		@ frame_needed = 0, uses_anonymous_args = 0
 2181              		@ link register save eliminated.
 2182              		.loc 1 1170 1 is_stmt 0 view .LVU344
 2183 0000 70B4     		push	{r4, r5, r6}
 2184              	.LCFI13:
 2185              		.cfi_def_cfa_offset 12
 2186              		.cfi_offset 4, -12
 2187              		.cfi_offset 5, -8
 2188              		.cfi_offset 6, -4
1171:../../Drivers/STM32H7xx_HAL_Driver/Src/stm32h7xx_hal.c ****   /* Check the parameter */
1172:../../Drivers/STM32H7xx_HAL_Driver/Src/stm32h7xx_hal.c ****   assert_param(IS_EXTI_D1_LINE(EXTI_Line));
 2189              		.loc 1 1172 3 is_stmt 1 view .LVU345
1173:../../Drivers/STM32H7xx_HAL_Driver/Src/stm32h7xx_hal.c ****   assert_param(IS_EXTI_MODE_LINE(EXTI_Mode));
 2190              		.loc 1 1173 3 view .LVU346
1174:../../Drivers/STM32H7xx_HAL_Driver/Src/stm32h7xx_hal.c **** 
1175:../../Drivers/STM32H7xx_HAL_Driver/Src/stm32h7xx_hal.c ****   if( (EXTI_Mode & EXTI_MODE_IT) == EXTI_MODE_IT)
 2191              		.loc 1 1175 3 view .LVU347
 2192              		.loc 1 1175 5 is_stmt 0 view .LVU348
 2193 0002 11F4803F 		tst	r1, #65536
 2194 0006 0CD0     		beq	.L208
1176:../../Drivers/STM32H7xx_HAL_Driver/Src/stm32h7xx_hal.c ****   {
1177:../../Drivers/STM32H7xx_HAL_Driver/Src/stm32h7xx_hal.c ****      if( EXTI_LineCmd == 0UL)
 2195              		.loc 1 1177 6 is_stmt 1 view .LVU349
 2196              		.loc 1 1177 8 is_stmt 0 view .LVU350
 2197 0008 E2B9     		cbnz	r2, .L209
1178:../../Drivers/STM32H7xx_HAL_Driver/Src/stm32h7xx_hal.c ****      {
1179:../../Drivers/STM32H7xx_HAL_Driver/Src/stm32h7xx_hal.c ****        /* Clear EXTI line configuration */
1180:../../Drivers/STM32H7xx_HAL_Driver/Src/stm32h7xx_hal.c ****         CLEAR_BIT(*(__IO uint32_t *) (((uint32_t) &(EXTI_D1->IMR1)) + ((EXTI_Line >> 5 ) * 0x10UL))
 2198              		.loc 1 1180 9 is_stmt 1 view .LVU351
 2199 000a 1A4B     		ldr	r3, .L213
 2200 000c 03EB5013 		add	r3, r3, r0, lsr #5
 2201 0010 1B01     		lsls	r3, r3, #4
 2202 0012 1C68     		ldr	r4, [r3]
 2203 0014 00F01F06 		and	r6, r0, #31
 2204 0018 0125     		movs	r5, #1
 2205 001a B540     		lsls	r5, r5, r6
 2206 001c 24EA0504 		bic	r4, r4, r5
 2207 0020 1C60     		str	r4, [r3]
 2208              	.L208:
1181:../../Drivers/STM32H7xx_HAL_Driver/Src/stm32h7xx_hal.c ****      }
1182:../../Drivers/STM32H7xx_HAL_Driver/Src/stm32h7xx_hal.c ****      else
1183:../../Drivers/STM32H7xx_HAL_Driver/Src/stm32h7xx_hal.c ****      {
1184:../../Drivers/STM32H7xx_HAL_Driver/Src/stm32h7xx_hal.c ****         SET_BIT(*(__IO uint32_t *) (((uint32_t) &(EXTI_D1->IMR1)) + ((EXTI_Line >> 5 ) * 0x10UL)), 
1185:../../Drivers/STM32H7xx_HAL_Driver/Src/stm32h7xx_hal.c ****      }
ARM GAS  /tmp/ccoUsChM.s 			page 60


1186:../../Drivers/STM32H7xx_HAL_Driver/Src/stm32h7xx_hal.c ****   }
1187:../../Drivers/STM32H7xx_HAL_Driver/Src/stm32h7xx_hal.c **** 
1188:../../Drivers/STM32H7xx_HAL_Driver/Src/stm32h7xx_hal.c ****   if( (EXTI_Mode & EXTI_MODE_EVT) == EXTI_MODE_EVT)
 2209              		.loc 1 1188 3 view .LVU352
 2210              		.loc 1 1188 5 is_stmt 0 view .LVU353
 2211 0022 11F4003F 		tst	r1, #131072
 2212 0026 0BD0     		beq	.L207
1189:../../Drivers/STM32H7xx_HAL_Driver/Src/stm32h7xx_hal.c ****   {
1190:../../Drivers/STM32H7xx_HAL_Driver/Src/stm32h7xx_hal.c ****     if( EXTI_LineCmd == 0UL)
 2213              		.loc 1 1190 5 is_stmt 1 view .LVU354
 2214              		.loc 1 1190 7 is_stmt 0 view .LVU355
 2215 0028 C2B9     		cbnz	r2, .L211
1191:../../Drivers/STM32H7xx_HAL_Driver/Src/stm32h7xx_hal.c ****     {
1192:../../Drivers/STM32H7xx_HAL_Driver/Src/stm32h7xx_hal.c ****       /* Clear EXTI line configuration */
1193:../../Drivers/STM32H7xx_HAL_Driver/Src/stm32h7xx_hal.c ****       CLEAR_BIT(  *(__IO uint32_t *) (((uint32_t) &(EXTI_D1->EMR1)) + ((EXTI_Line >> 5 ) * 0x10UL))
 2216              		.loc 1 1193 7 is_stmt 1 view .LVU356
 2217 002a 4309     		lsrs	r3, r0, #5
 2218 002c 1B01     		lsls	r3, r3, #4
 2219 002e 1249     		ldr	r1, .L213+4
 2220              	.LVL58:
 2221              		.loc 1 1193 7 is_stmt 0 view .LVU357
 2222 0030 5A58     		ldr	r2, [r3, r1]
 2223              	.LVL59:
 2224              		.loc 1 1193 7 view .LVU358
 2225 0032 00F01F04 		and	r4, r0, #31
 2226 0036 0120     		movs	r0, #1
 2227              	.LVL60:
 2228              		.loc 1 1193 7 view .LVU359
 2229 0038 A040     		lsls	r0, r0, r4
 2230 003a 22EA0000 		bic	r0, r2, r0
 2231 003e 5850     		str	r0, [r3, r1]
 2232              	.L207:
1194:../../Drivers/STM32H7xx_HAL_Driver/Src/stm32h7xx_hal.c ****     }
1195:../../Drivers/STM32H7xx_HAL_Driver/Src/stm32h7xx_hal.c ****     else
1196:../../Drivers/STM32H7xx_HAL_Driver/Src/stm32h7xx_hal.c ****     {
1197:../../Drivers/STM32H7xx_HAL_Driver/Src/stm32h7xx_hal.c ****       SET_BIT(  *(__IO uint32_t *) (((uint32_t) &(EXTI_D1->EMR1)) + ((EXTI_Line >> 5 ) * 0x10UL)), 
1198:../../Drivers/STM32H7xx_HAL_Driver/Src/stm32h7xx_hal.c ****     }
1199:../../Drivers/STM32H7xx_HAL_Driver/Src/stm32h7xx_hal.c ****   }
1200:../../Drivers/STM32H7xx_HAL_Driver/Src/stm32h7xx_hal.c **** }
 2233              		.loc 1 1200 1 view .LVU360
 2234 0040 70BC     		pop	{r4, r5, r6}
 2235              	.LCFI14:
 2236              		.cfi_remember_state
 2237              		.cfi_restore 6
 2238              		.cfi_restore 5
 2239              		.cfi_restore 4
 2240              		.cfi_def_cfa_offset 0
 2241 0042 7047     		bx	lr
 2242              	.LVL61:
 2243              	.L209:
 2244              	.LCFI15:
 2245              		.cfi_restore_state
1184:../../Drivers/STM32H7xx_HAL_Driver/Src/stm32h7xx_hal.c ****      }
 2246              		.loc 1 1184 9 is_stmt 1 view .LVU361
 2247 0044 0B4B     		ldr	r3, .L213
 2248 0046 03EB5013 		add	r3, r3, r0, lsr #5
 2249 004a 1B01     		lsls	r3, r3, #4
ARM GAS  /tmp/ccoUsChM.s 			page 61


 2250 004c 1C68     		ldr	r4, [r3]
 2251 004e 00F01F06 		and	r6, r0, #31
 2252 0052 0125     		movs	r5, #1
 2253 0054 B540     		lsls	r5, r5, r6
 2254 0056 2C43     		orrs	r4, r4, r5
 2255 0058 1C60     		str	r4, [r3]
 2256 005a E2E7     		b	.L208
 2257              	.L211:
1197:../../Drivers/STM32H7xx_HAL_Driver/Src/stm32h7xx_hal.c ****     }
 2258              		.loc 1 1197 7 view .LVU362
 2259 005c 4309     		lsrs	r3, r0, #5
 2260 005e 1B01     		lsls	r3, r3, #4
 2261 0060 054C     		ldr	r4, .L213+4
 2262 0062 1A59     		ldr	r2, [r3, r4]
 2263              	.LVL62:
1197:../../Drivers/STM32H7xx_HAL_Driver/Src/stm32h7xx_hal.c ****     }
 2264              		.loc 1 1197 7 is_stmt 0 view .LVU363
 2265 0064 00F01F00 		and	r0, r0, #31
 2266              	.LVL63:
1197:../../Drivers/STM32H7xx_HAL_Driver/Src/stm32h7xx_hal.c ****     }
 2267              		.loc 1 1197 7 view .LVU364
 2268 0068 0121     		movs	r1, #1
 2269              	.LVL64:
1197:../../Drivers/STM32H7xx_HAL_Driver/Src/stm32h7xx_hal.c ****     }
 2270              		.loc 1 1197 7 view .LVU365
 2271 006a 01FA00F0 		lsl	r0, r1, r0
 2272 006e 1043     		orrs	r0, r0, r2
 2273 0070 1851     		str	r0, [r3, r4]
 2274              		.loc 1 1200 1 view .LVU366
 2275 0072 E5E7     		b	.L207
 2276              	.L214:
 2277              		.align	2
 2278              	.L213:
 2279 0074 08008005 		.word	92274696
 2280 0078 84000058 		.word	1476395140
 2281              		.cfi_endproc
 2282              	.LFE190:
 2284              		.section	.text.HAL_EXTI_D2_EventInputConfig,"ax",%progbits
 2285              		.align	1
 2286              		.global	HAL_EXTI_D2_EventInputConfig
 2287              		.syntax unified
 2288              		.thumb
 2289              		.thumb_func
 2290              		.fpu fpv4-sp-d16
 2292              	HAL_EXTI_D2_EventInputConfig:
 2293              	.LVL65:
 2294              	.LFB191:
1201:../../Drivers/STM32H7xx_HAL_Driver/Src/stm32h7xx_hal.c **** 
1202:../../Drivers/STM32H7xx_HAL_Driver/Src/stm32h7xx_hal.c **** #if defined(DUAL_CORE)
1203:../../Drivers/STM32H7xx_HAL_Driver/Src/stm32h7xx_hal.c **** /**
1204:../../Drivers/STM32H7xx_HAL_Driver/Src/stm32h7xx_hal.c ****   * @brief  Configure the EXTI input event line for Domain D2
1205:../../Drivers/STM32H7xx_HAL_Driver/Src/stm32h7xx_hal.c ****   * @param   EXTI_Line: Specifies the EXTI LINE, it can be one of the following values,
1206:../../Drivers/STM32H7xx_HAL_Driver/Src/stm32h7xx_hal.c ****   *         (EXTI_LINE0....EXTI_LINE87)excluding :line45, line81,line83 which are reserved
1207:../../Drivers/STM32H7xx_HAL_Driver/Src/stm32h7xx_hal.c ****   * @param   EXTI_Mode: Specifies which EXTI line is used as interrupt or an event.
1208:../../Drivers/STM32H7xx_HAL_Driver/Src/stm32h7xx_hal.c ****   *          This parameter can be one or a combination of the following values :
1209:../../Drivers/STM32H7xx_HAL_Driver/Src/stm32h7xx_hal.c ****   *   @arg EXTI_MODE_IT :  Interrupt Mode selected
1210:../../Drivers/STM32H7xx_HAL_Driver/Src/stm32h7xx_hal.c ****   *   @arg EXTI_MODE_EVT : Event Mode selected
ARM GAS  /tmp/ccoUsChM.s 			page 62


1211:../../Drivers/STM32H7xx_HAL_Driver/Src/stm32h7xx_hal.c ****   * @param   EXTI_LineCmd controls (Enable/Disable) the EXTI line.
1212:../../Drivers/STM32H7xx_HAL_Driver/Src/stm32h7xx_hal.c **** 
1213:../../Drivers/STM32H7xx_HAL_Driver/Src/stm32h7xx_hal.c ****   * @retval None
1214:../../Drivers/STM32H7xx_HAL_Driver/Src/stm32h7xx_hal.c ****   */
1215:../../Drivers/STM32H7xx_HAL_Driver/Src/stm32h7xx_hal.c **** void HAL_EXTI_D2_EventInputConfig(uint32_t EXTI_Line , uint32_t EXTI_Mode,  uint32_t EXTI_LineCmd )
1216:../../Drivers/STM32H7xx_HAL_Driver/Src/stm32h7xx_hal.c **** {
 2295              		.loc 1 1216 1 is_stmt 1 view -0
 2296              		.cfi_startproc
 2297              		@ args = 0, pretend = 0, frame = 0
 2298              		@ frame_needed = 0, uses_anonymous_args = 0
 2299              		@ link register save eliminated.
 2300              		.loc 1 1216 1 is_stmt 0 view .LVU368
 2301 0000 70B4     		push	{r4, r5, r6}
 2302              	.LCFI16:
 2303              		.cfi_def_cfa_offset 12
 2304              		.cfi_offset 4, -12
 2305              		.cfi_offset 5, -8
 2306              		.cfi_offset 6, -4
1217:../../Drivers/STM32H7xx_HAL_Driver/Src/stm32h7xx_hal.c ****   /* Check the parameter */
1218:../../Drivers/STM32H7xx_HAL_Driver/Src/stm32h7xx_hal.c ****   assert_param(IS_EXTI_D2_LINE(EXTI_Line));
 2307              		.loc 1 1218 3 is_stmt 1 view .LVU369
1219:../../Drivers/STM32H7xx_HAL_Driver/Src/stm32h7xx_hal.c ****   assert_param(IS_EXTI_MODE_LINE(EXTI_Mode));
 2308              		.loc 1 1219 3 view .LVU370
1220:../../Drivers/STM32H7xx_HAL_Driver/Src/stm32h7xx_hal.c **** 
1221:../../Drivers/STM32H7xx_HAL_Driver/Src/stm32h7xx_hal.c ****   if( (EXTI_Mode & EXTI_MODE_IT) == EXTI_MODE_IT)
 2309              		.loc 1 1221 3 view .LVU371
 2310              		.loc 1 1221 5 is_stmt 0 view .LVU372
 2311 0002 11F4803F 		tst	r1, #65536
 2312 0006 0CD0     		beq	.L216
1222:../../Drivers/STM32H7xx_HAL_Driver/Src/stm32h7xx_hal.c ****   {
1223:../../Drivers/STM32H7xx_HAL_Driver/Src/stm32h7xx_hal.c ****     if( EXTI_LineCmd == 0UL)
 2313              		.loc 1 1223 5 is_stmt 1 view .LVU373
 2314              		.loc 1 1223 7 is_stmt 0 view .LVU374
 2315 0008 E2B9     		cbnz	r2, .L217
1224:../../Drivers/STM32H7xx_HAL_Driver/Src/stm32h7xx_hal.c ****     {
1225:../../Drivers/STM32H7xx_HAL_Driver/Src/stm32h7xx_hal.c ****     /* Clear EXTI line configuration */
1226:../../Drivers/STM32H7xx_HAL_Driver/Src/stm32h7xx_hal.c ****      CLEAR_BIT(*(__IO uint32_t *) (((uint32_t) &(EXTI_D2->IMR1)) + ((EXTI_Line >> 5 ) * 0x10UL)),(u
 2316              		.loc 1 1226 6 is_stmt 1 view .LVU375
 2317 000a 1A4B     		ldr	r3, .L221
 2318 000c 03EB5013 		add	r3, r3, r0, lsr #5
 2319 0010 1B01     		lsls	r3, r3, #4
 2320 0012 1C68     		ldr	r4, [r3]
 2321 0014 00F01F06 		and	r6, r0, #31
 2322 0018 0125     		movs	r5, #1
 2323 001a B540     		lsls	r5, r5, r6
 2324 001c 24EA0504 		bic	r4, r4, r5
 2325 0020 1C60     		str	r4, [r3]
 2326              	.L216:
1227:../../Drivers/STM32H7xx_HAL_Driver/Src/stm32h7xx_hal.c ****     }
1228:../../Drivers/STM32H7xx_HAL_Driver/Src/stm32h7xx_hal.c ****     else
1229:../../Drivers/STM32H7xx_HAL_Driver/Src/stm32h7xx_hal.c ****     {
1230:../../Drivers/STM32H7xx_HAL_Driver/Src/stm32h7xx_hal.c ****      SET_BIT(*(__IO uint32_t *) (((uint32_t) &(EXTI_D2->IMR1)) + ((EXTI_Line >> 5 ) * 0x10UL)), (ui
1231:../../Drivers/STM32H7xx_HAL_Driver/Src/stm32h7xx_hal.c ****     }
1232:../../Drivers/STM32H7xx_HAL_Driver/Src/stm32h7xx_hal.c ****   }
1233:../../Drivers/STM32H7xx_HAL_Driver/Src/stm32h7xx_hal.c **** 
1234:../../Drivers/STM32H7xx_HAL_Driver/Src/stm32h7xx_hal.c ****   if( (EXTI_Mode & EXTI_MODE_EVT) == EXTI_MODE_EVT)
 2327              		.loc 1 1234 3 view .LVU376
ARM GAS  /tmp/ccoUsChM.s 			page 63


 2328              		.loc 1 1234 5 is_stmt 0 view .LVU377
 2329 0022 11F4003F 		tst	r1, #131072
 2330 0026 0BD0     		beq	.L215
1235:../../Drivers/STM32H7xx_HAL_Driver/Src/stm32h7xx_hal.c ****   {
1236:../../Drivers/STM32H7xx_HAL_Driver/Src/stm32h7xx_hal.c ****     if( EXTI_LineCmd == 0UL)
 2331              		.loc 1 1236 5 is_stmt 1 view .LVU378
 2332              		.loc 1 1236 7 is_stmt 0 view .LVU379
 2333 0028 C2B9     		cbnz	r2, .L219
1237:../../Drivers/STM32H7xx_HAL_Driver/Src/stm32h7xx_hal.c ****     {
1238:../../Drivers/STM32H7xx_HAL_Driver/Src/stm32h7xx_hal.c ****       /* Clear EXTI line configuration */
1239:../../Drivers/STM32H7xx_HAL_Driver/Src/stm32h7xx_hal.c ****       CLEAR_BIT(  *(__IO uint32_t *) (((uint32_t) &(EXTI_D2->EMR1)) + ((EXTI_Line >> 5 ) * 0x10UL))
 2334              		.loc 1 1239 7 is_stmt 1 view .LVU380
 2335 002a 4309     		lsrs	r3, r0, #5
 2336 002c 1B01     		lsls	r3, r3, #4
 2337 002e 1249     		ldr	r1, .L221+4
 2338              	.LVL66:
 2339              		.loc 1 1239 7 is_stmt 0 view .LVU381
 2340 0030 5A58     		ldr	r2, [r3, r1]
 2341              	.LVL67:
 2342              		.loc 1 1239 7 view .LVU382
 2343 0032 00F01F04 		and	r4, r0, #31
 2344 0036 0120     		movs	r0, #1
 2345              	.LVL68:
 2346              		.loc 1 1239 7 view .LVU383
 2347 0038 A040     		lsls	r0, r0, r4
 2348 003a 22EA0000 		bic	r0, r2, r0
 2349 003e 5850     		str	r0, [r3, r1]
 2350              	.L215:
1240:../../Drivers/STM32H7xx_HAL_Driver/Src/stm32h7xx_hal.c ****     }
1241:../../Drivers/STM32H7xx_HAL_Driver/Src/stm32h7xx_hal.c ****     else
1242:../../Drivers/STM32H7xx_HAL_Driver/Src/stm32h7xx_hal.c ****     {
1243:../../Drivers/STM32H7xx_HAL_Driver/Src/stm32h7xx_hal.c ****       SET_BIT(  *(__IO uint32_t *) (((uint32_t) &(EXTI_D2->EMR1)) + ((EXTI_Line >> 5 ) * 0x10UL)), 
1244:../../Drivers/STM32H7xx_HAL_Driver/Src/stm32h7xx_hal.c ****     }
1245:../../Drivers/STM32H7xx_HAL_Driver/Src/stm32h7xx_hal.c ****   }
1246:../../Drivers/STM32H7xx_HAL_Driver/Src/stm32h7xx_hal.c **** }
 2351              		.loc 1 1246 1 view .LVU384
 2352 0040 70BC     		pop	{r4, r5, r6}
 2353              	.LCFI17:
 2354              		.cfi_remember_state
 2355              		.cfi_restore 6
 2356              		.cfi_restore 5
 2357              		.cfi_restore 4
 2358              		.cfi_def_cfa_offset 0
 2359 0042 7047     		bx	lr
 2360              	.LVL69:
 2361              	.L217:
 2362              	.LCFI18:
 2363              		.cfi_restore_state
1230:../../Drivers/STM32H7xx_HAL_Driver/Src/stm32h7xx_hal.c ****     }
 2364              		.loc 1 1230 6 is_stmt 1 view .LVU385
 2365 0044 0B4B     		ldr	r3, .L221
 2366 0046 03EB5013 		add	r3, r3, r0, lsr #5
 2367 004a 1B01     		lsls	r3, r3, #4
 2368 004c 1C68     		ldr	r4, [r3]
 2369 004e 00F01F06 		and	r6, r0, #31
 2370 0052 0125     		movs	r5, #1
 2371 0054 B540     		lsls	r5, r5, r6
ARM GAS  /tmp/ccoUsChM.s 			page 64


 2372 0056 2C43     		orrs	r4, r4, r5
 2373 0058 1C60     		str	r4, [r3]
 2374 005a E2E7     		b	.L216
 2375              	.L219:
1243:../../Drivers/STM32H7xx_HAL_Driver/Src/stm32h7xx_hal.c ****     }
 2376              		.loc 1 1243 7 view .LVU386
 2377 005c 4309     		lsrs	r3, r0, #5
 2378 005e 1B01     		lsls	r3, r3, #4
 2379 0060 054C     		ldr	r4, .L221+4
 2380 0062 1A59     		ldr	r2, [r3, r4]
 2381              	.LVL70:
1243:../../Drivers/STM32H7xx_HAL_Driver/Src/stm32h7xx_hal.c ****     }
 2382              		.loc 1 1243 7 is_stmt 0 view .LVU387
 2383 0064 00F01F00 		and	r0, r0, #31
 2384              	.LVL71:
1243:../../Drivers/STM32H7xx_HAL_Driver/Src/stm32h7xx_hal.c ****     }
 2385              		.loc 1 1243 7 view .LVU388
 2386 0068 0121     		movs	r1, #1
 2387              	.LVL72:
1243:../../Drivers/STM32H7xx_HAL_Driver/Src/stm32h7xx_hal.c ****     }
 2388              		.loc 1 1243 7 view .LVU389
 2389 006a 01FA00F0 		lsl	r0, r1, r0
 2390 006e 1043     		orrs	r0, r0, r2
 2391 0070 1851     		str	r0, [r3, r4]
 2392              		.loc 1 1246 1 view .LVU390
 2393 0072 E5E7     		b	.L215
 2394              	.L222:
 2395              		.align	2
 2396              	.L221:
 2397 0074 0C008005 		.word	92274700
 2398 0078 C4000058 		.word	1476395204
 2399              		.cfi_endproc
 2400              	.LFE191:
 2402              		.section	.text.HAL_EXTI_D3_EventInputConfig,"ax",%progbits
 2403              		.align	1
 2404              		.global	HAL_EXTI_D3_EventInputConfig
 2405              		.syntax unified
 2406              		.thumb
 2407              		.thumb_func
 2408              		.fpu fpv4-sp-d16
 2410              	HAL_EXTI_D3_EventInputConfig:
 2411              	.LVL73:
 2412              	.LFB192:
1247:../../Drivers/STM32H7xx_HAL_Driver/Src/stm32h7xx_hal.c **** #endif /*DUAL_CORE*/
1248:../../Drivers/STM32H7xx_HAL_Driver/Src/stm32h7xx_hal.c **** 
1249:../../Drivers/STM32H7xx_HAL_Driver/Src/stm32h7xx_hal.c **** /**
1250:../../Drivers/STM32H7xx_HAL_Driver/Src/stm32h7xx_hal.c ****   * @brief  Configure the EXTI input event line for Domain D3
1251:../../Drivers/STM32H7xx_HAL_Driver/Src/stm32h7xx_hal.c ****   * @param   EXTI_Line: Specifies the EXTI LINE, it can be one of the following values,
1252:../../Drivers/STM32H7xx_HAL_Driver/Src/stm32h7xx_hal.c ****   *         (EXTI_LINE0...EXTI_LINE15),(EXTI_LINE19...EXTI_LINE21),EXTI_LINE25, EXTI_LINE34,
1253:../../Drivers/STM32H7xx_HAL_Driver/Src/stm32h7xx_hal.c ****   *          EXTI_LINE35,EXTI_LINE41,(EXTI_LINE48...EXTI_LINE53)
1254:../../Drivers/STM32H7xx_HAL_Driver/Src/stm32h7xx_hal.c ****   * @param   EXTI_LineCmd controls (Enable/Disable) the EXTI line.
1255:../../Drivers/STM32H7xx_HAL_Driver/Src/stm32h7xx_hal.c ****   * @param   EXTI_ClearSrc: Specifies the clear source of D3 pending event.
1256:../../Drivers/STM32H7xx_HAL_Driver/Src/stm32h7xx_hal.c ****   *          This parameter can be one of the following values :
1257:../../Drivers/STM32H7xx_HAL_Driver/Src/stm32h7xx_hal.c ****   *   @arg BDMA_CH6_CLEAR : BDMA ch6 event selected as D3 domain pendclear source
1258:../../Drivers/STM32H7xx_HAL_Driver/Src/stm32h7xx_hal.c ****   *   @arg BDMA_CH7_CLEAR : BDMA ch7 event selected as D3 domain pendclear source
1259:../../Drivers/STM32H7xx_HAL_Driver/Src/stm32h7xx_hal.c ****   *   @arg LPTIM4_OUT_CLEAR : LPTIM4 out selected as D3 domain pendclear source
1260:../../Drivers/STM32H7xx_HAL_Driver/Src/stm32h7xx_hal.c ****   *   @arg LPTIM5_OUT_CLEAR : LPTIM5 out selected as D3 domain pendclear source
ARM GAS  /tmp/ccoUsChM.s 			page 65


1261:../../Drivers/STM32H7xx_HAL_Driver/Src/stm32h7xx_hal.c ****   * @retval None
1262:../../Drivers/STM32H7xx_HAL_Driver/Src/stm32h7xx_hal.c ****   */
1263:../../Drivers/STM32H7xx_HAL_Driver/Src/stm32h7xx_hal.c **** void HAL_EXTI_D3_EventInputConfig(uint32_t EXTI_Line, uint32_t EXTI_LineCmd , uint32_t EXTI_ClearSr
1264:../../Drivers/STM32H7xx_HAL_Driver/Src/stm32h7xx_hal.c **** {
 2413              		.loc 1 1264 1 is_stmt 1 view -0
 2414              		.cfi_startproc
 2415              		@ args = 0, pretend = 0, frame = 0
 2416              		@ frame_needed = 0, uses_anonymous_args = 0
 2417              		@ link register save eliminated.
 2418              		.loc 1 1264 1 is_stmt 0 view .LVU392
 2419 0000 70B4     		push	{r4, r5, r6}
 2420              	.LCFI19:
 2421              		.cfi_def_cfa_offset 12
 2422              		.cfi_offset 4, -12
 2423              		.cfi_offset 5, -8
 2424              		.cfi_offset 6, -4
1265:../../Drivers/STM32H7xx_HAL_Driver/Src/stm32h7xx_hal.c ****   __IO uint32_t *pRegv;
 2425              		.loc 1 1265 3 is_stmt 1 view .LVU393
1266:../../Drivers/STM32H7xx_HAL_Driver/Src/stm32h7xx_hal.c **** 
1267:../../Drivers/STM32H7xx_HAL_Driver/Src/stm32h7xx_hal.c ****   /* Check the parameter */
1268:../../Drivers/STM32H7xx_HAL_Driver/Src/stm32h7xx_hal.c ****   assert_param(IS_EXTI_D3_LINE(EXTI_Line));
 2426              		.loc 1 1268 3 view .LVU394
1269:../../Drivers/STM32H7xx_HAL_Driver/Src/stm32h7xx_hal.c ****   assert_param(IS_EXTI_D3_CLEAR(EXTI_ClearSrc));
 2427              		.loc 1 1269 3 view .LVU395
1270:../../Drivers/STM32H7xx_HAL_Driver/Src/stm32h7xx_hal.c **** 
1271:../../Drivers/STM32H7xx_HAL_Driver/Src/stm32h7xx_hal.c ****   if( EXTI_LineCmd == 0UL)
 2428              		.loc 1 1271 3 view .LVU396
 2429              		.loc 1 1271 5 is_stmt 0 view .LVU397
 2430 0002 F9B9     		cbnz	r1, .L224
1272:../../Drivers/STM32H7xx_HAL_Driver/Src/stm32h7xx_hal.c ****   {
1273:../../Drivers/STM32H7xx_HAL_Driver/Src/stm32h7xx_hal.c ****     /* Clear EXTI line configuration */
1274:../../Drivers/STM32H7xx_HAL_Driver/Src/stm32h7xx_hal.c ****     CLEAR_BIT(*(__IO uint32_t *) (((uint32_t) &(EXTI->D3PMR1)) + ((EXTI_Line >> 5 ) * 0x20UL)),(uin
 2431              		.loc 1 1274 5 is_stmt 1 view .LVU398
 2432 0004 20F01F03 		bic	r3, r0, #31
 2433 0008 164D     		ldr	r5, .L229
 2434 000a 5959     		ldr	r1, [r3, r5]
 2435              	.LVL74:
 2436              		.loc 1 1274 5 is_stmt 0 view .LVU399
 2437 000c 00F01F06 		and	r6, r0, #31
 2438 0010 0124     		movs	r4, #1
 2439 0012 B440     		lsls	r4, r4, r6
 2440 0014 21EA0401 		bic	r1, r1, r4
 2441 0018 5951     		str	r1, [r3, r5]
 2442              	.L225:
1275:../../Drivers/STM32H7xx_HAL_Driver/Src/stm32h7xx_hal.c ****   }
1276:../../Drivers/STM32H7xx_HAL_Driver/Src/stm32h7xx_hal.c ****   else
1277:../../Drivers/STM32H7xx_HAL_Driver/Src/stm32h7xx_hal.c ****   {
1278:../../Drivers/STM32H7xx_HAL_Driver/Src/stm32h7xx_hal.c ****     SET_BIT(*(__IO uint32_t *) (((uint32_t) &(EXTI->D3PMR1)) +((EXTI_Line >> 5 ) * 0x20UL)), (uint3
1279:../../Drivers/STM32H7xx_HAL_Driver/Src/stm32h7xx_hal.c ****   }
1280:../../Drivers/STM32H7xx_HAL_Driver/Src/stm32h7xx_hal.c **** 
1281:../../Drivers/STM32H7xx_HAL_Driver/Src/stm32h7xx_hal.c ****   if(((EXTI_Line>>4)%2UL) == 0UL)
 2443              		.loc 1 1281 3 is_stmt 1 view .LVU400
 2444              		.loc 1 1281 5 is_stmt 0 view .LVU401
 2445 001a 10F0100F 		tst	r0, #16
 2446 001e 1CD1     		bne	.L226
1282:../../Drivers/STM32H7xx_HAL_Driver/Src/stm32h7xx_hal.c ****   {
1283:../../Drivers/STM32H7xx_HAL_Driver/Src/stm32h7xx_hal.c ****     pRegv = (__IO uint32_t *) (((uint32_t) &(EXTI->D3PCR1L)) + ((EXTI_Line >> 5 ) * 0x20UL));
ARM GAS  /tmp/ccoUsChM.s 			page 66


 2447              		.loc 1 1283 5 is_stmt 1 view .LVU402
 2448              		.loc 1 1283 83 is_stmt 0 view .LVU403
 2449 0020 20F01F03 		bic	r3, r0, #31
 2450              		.loc 1 1283 62 view .LVU404
 2451 0024 1049     		ldr	r1, .L229+4
 2452 0026 1944     		add	r1, r1, r3
 2453              	.LVL75:
 2454              	.L227:
1284:../../Drivers/STM32H7xx_HAL_Driver/Src/stm32h7xx_hal.c ****   }
1285:../../Drivers/STM32H7xx_HAL_Driver/Src/stm32h7xx_hal.c ****   else
1286:../../Drivers/STM32H7xx_HAL_Driver/Src/stm32h7xx_hal.c ****   {
1287:../../Drivers/STM32H7xx_HAL_Driver/Src/stm32h7xx_hal.c ****     pRegv = (__IO uint32_t *) (((uint32_t) &(EXTI->D3PCR1H)) + ((EXTI_Line >> 5 ) * 0x20UL));
1288:../../Drivers/STM32H7xx_HAL_Driver/Src/stm32h7xx_hal.c ****   }
1289:../../Drivers/STM32H7xx_HAL_Driver/Src/stm32h7xx_hal.c ****   MODIFY_REG(*pRegv, (uint32_t)(3UL << ((EXTI_Line*2UL) & 0x1FUL)), (uint32_t)(EXTI_ClearSrc << ((E
 2455              		.loc 1 1289 3 is_stmt 1 view .LVU405
 2456 0028 0B68     		ldr	r3, [r1]
 2457 002a 4000     		lsls	r0, r0, #1
 2458              	.LVL76:
 2459              		.loc 1 1289 3 is_stmt 0 view .LVU406
 2460 002c 00F01E00 		and	r0, r0, #30
 2461 0030 0324     		movs	r4, #3
 2462 0032 8440     		lsls	r4, r4, r0
 2463 0034 23EA0403 		bic	r3, r3, r4
 2464 0038 02FA00F0 		lsl	r0, r2, r0
 2465 003c 1843     		orrs	r0, r0, r3
 2466 003e 0860     		str	r0, [r1]
1290:../../Drivers/STM32H7xx_HAL_Driver/Src/stm32h7xx_hal.c **** 
1291:../../Drivers/STM32H7xx_HAL_Driver/Src/stm32h7xx_hal.c **** }
 2467              		.loc 1 1291 1 view .LVU407
 2468 0040 70BC     		pop	{r4, r5, r6}
 2469              	.LCFI20:
 2470              		.cfi_remember_state
 2471              		.cfi_restore 6
 2472              		.cfi_restore 5
 2473              		.cfi_restore 4
 2474              		.cfi_def_cfa_offset 0
 2475 0042 7047     		bx	lr
 2476              	.LVL77:
 2477              	.L224:
 2478              	.LCFI21:
 2479              		.cfi_restore_state
1278:../../Drivers/STM32H7xx_HAL_Driver/Src/stm32h7xx_hal.c ****   }
 2480              		.loc 1 1278 5 is_stmt 1 view .LVU408
 2481 0044 20F01F03 		bic	r3, r0, #31
 2482 0048 064D     		ldr	r5, .L229
 2483 004a 5959     		ldr	r1, [r3, r5]
 2484              	.LVL78:
1278:../../Drivers/STM32H7xx_HAL_Driver/Src/stm32h7xx_hal.c ****   }
 2485              		.loc 1 1278 5 is_stmt 0 view .LVU409
 2486 004c 00F01F06 		and	r6, r0, #31
 2487 0050 0124     		movs	r4, #1
 2488 0052 B440     		lsls	r4, r4, r6
 2489 0054 2143     		orrs	r1, r1, r4
 2490 0056 5951     		str	r1, [r3, r5]
 2491 0058 DFE7     		b	.L225
 2492              	.L226:
1287:../../Drivers/STM32H7xx_HAL_Driver/Src/stm32h7xx_hal.c ****   }
ARM GAS  /tmp/ccoUsChM.s 			page 67


 2493              		.loc 1 1287 5 is_stmt 1 view .LVU410
1287:../../Drivers/STM32H7xx_HAL_Driver/Src/stm32h7xx_hal.c ****   }
 2494              		.loc 1 1287 83 is_stmt 0 view .LVU411
 2495 005a 20F01F03 		bic	r3, r0, #31
1287:../../Drivers/STM32H7xx_HAL_Driver/Src/stm32h7xx_hal.c ****   }
 2496              		.loc 1 1287 62 view .LVU412
 2497 005e 0349     		ldr	r1, .L229+8
 2498 0060 1944     		add	r1, r1, r3
 2499              	.LVL79:
1287:../../Drivers/STM32H7xx_HAL_Driver/Src/stm32h7xx_hal.c ****   }
 2500              		.loc 1 1287 62 view .LVU413
 2501 0062 E1E7     		b	.L227
 2502              	.L230:
 2503              		.align	2
 2504              	.L229:
 2505 0064 0C000058 		.word	1476395020
 2506 0068 10000058 		.word	1476395024
 2507 006c 14000058 		.word	1476395028
 2508              		.cfi_endproc
 2509              	.LFE192:
 2511              		.global	uwTickFreq
 2512              		.global	uwTickPrio
 2513              		.comm	uwTick,4,4
 2514              		.section	.data.uwTickFreq,"aw"
 2515              		.set	.LANCHOR0,. + 0
 2518              	uwTickFreq:
 2519 0000 01       		.byte	1
 2520              		.section	.data.uwTickPrio,"aw"
 2521              		.align	2
 2522              		.set	.LANCHOR1,. + 0
 2525              	uwTickPrio:
 2526 0000 10000000 		.word	16
 2527              		.text
 2528              	.Letext0:
 2529              		.file 2 "/home/im/Programs/gcc-arm-none-eabi/gcc-arm-none-eabi-9-2020-q2-update/arm-none-eabi/incl
 2530              		.file 3 "/home/im/Programs/gcc-arm-none-eabi/gcc-arm-none-eabi-9-2020-q2-update/arm-none-eabi/incl
 2531              		.file 4 "../../Drivers/CMSIS/Include/core_cm4.h"
 2532              		.file 5 "../../Drivers/CMSIS/Device/ST/STM32H7xx/Include/system_stm32h7xx.h"
 2533              		.file 6 "../../Drivers/CMSIS/Device/ST/STM32H7xx/Include/stm32h747xx.h"
 2534              		.file 7 "/home/im/Programs/gcc-arm-none-eabi/gcc-arm-none-eabi-9-2020-q2-update/lib/gcc/arm-none-e
 2535              		.file 8 "/home/im/Programs/gcc-arm-none-eabi/gcc-arm-none-eabi-9-2020-q2-update/arm-none-eabi/incl
 2536              		.file 9 "/home/im/Programs/gcc-arm-none-eabi/gcc-arm-none-eabi-9-2020-q2-update/arm-none-eabi/incl
 2537              		.file 10 "/home/im/Programs/gcc-arm-none-eabi/gcc-arm-none-eabi-9-2020-q2-update/arm-none-eabi/inc
 2538              		.file 11 "/home/im/Programs/gcc-arm-none-eabi/gcc-arm-none-eabi-9-2020-q2-update/arm-none-eabi/inc
 2539              		.file 12 "../../Drivers/STM32H7xx_HAL_Driver/Inc/stm32h7xx_hal_def.h"
 2540              		.file 13 "../../Drivers/STM32H7xx_HAL_Driver/Inc/stm32h7xx_hal_flash.h"
 2541              		.file 14 "../../Drivers/STM32H7xx_HAL_Driver/Inc/stm32h7xx_hal.h"
 2542              		.file 15 "../../Drivers/STM32H7xx_HAL_Driver/Inc/stm32h7xx_hal_cortex.h"
 2543              		.file 16 "../../Drivers/STM32H7xx_HAL_Driver/Inc/stm32h7xx_hal_rcc.h"
ARM GAS  /tmp/ccoUsChM.s 			page 68

